cnumpy.core.multiarray
_reconstruct
p0
(cnumpy
ndarray
p1
(I0
tp2
S'b'
p3
tp4
Rp5
(I1
(I319
tp6
cnumpy
dtype
p7
(S'O8'
p8
I0
I1
tp9
Rp10
(I3
S'|'
p11
NNNI-1
I-1
I63
tp12
bI00
(lp13
c__builtin__
set
p14
((lp15
tp16
Rp17
ag14
((lp18
I2
atp19
Rp20
ag14
((lp21
I1
atp22
Rp23
ag14
((lp24
tp25
Rp26
ag14
((lp27
I-3
atp28
Rp29
ag14
((lp30
tp31
Rp32
ag14
((lp33
tp34
Rp35
ag14
((lp36
tp37
Rp38
ag14
((lp39
tp40
Rp41
ag14
((lp42
I-8
aI-6
aI-5
atp43
Rp44
ag14
((lp45
tp46
Rp47
ag14
((lp48
tp49
Rp50
ag14
((lp51
tp52
Rp53
ag14
((lp54
tp55
Rp56
ag14
((lp57
I18
atp58
Rp59
ag14
((lp60
I16
aI-13
aI19
atp61
Rp62
ag14
((lp63
I19
aI15
atp64
Rp65
ag14
((lp66
tp67
Rp68
ag14
((lp69
I14
atp70
Rp71
ag14
((lp72
I16
aI15
aI-13
atp73
Rp74
ag14
((lp75
I-14
atp76
Rp77
ag14
((lp78
tp79
Rp80
ag14
((lp81
tp82
Rp83
ag14
((lp84
tp85
Rp86
ag14
((lp87
tp88
Rp89
ag14
((lp90
tp91
Rp92
ag14
((lp93
I-16
atp94
Rp95
ag14
((lp96
I-16
atp97
Rp98
ag14
((lp99
tp100
Rp101
ag14
((lp102
tp103
Rp104
ag14
((lp105
tp106
Rp107
ag14
((lp108
tp109
Rp110
ag14
((lp111
tp112
Rp113
ag14
((lp114
I-31
atp115
Rp116
ag14
((lp117
tp118
Rp119
ag14
((lp120
tp121
Rp122
ag14
((lp123
tp124
Rp125
ag14
((lp126
tp127
Rp128
ag14
((lp129
tp130
Rp131
ag14
((lp132
tp133
Rp134
ag14
((lp135
tp136
Rp137
ag14
((lp138
tp139
Rp140
ag14
((lp141
tp142
Rp143
ag14
((lp144
tp145
Rp146
ag14
((lp147
tp148
Rp149
ag14
((lp150
tp151
Rp152
ag14
((lp153
tp154
Rp155
ag14
((lp156
tp157
Rp158
ag14
((lp159
I-47
aI-46
aI-45
aI-44
aI-43
aI-41
aI-40
aI-39
aI-38
aI-36
aI-35
aI-34
aI-33
aI-30
aI-29
aI-27
aI-25
aI-24
aI-23
aI-22
aI-21
aI-20
aI-19
aI-18
aI-17
aI-12
atp160
Rp161
ag14
((lp162
I50
atp163
Rp164
ag14
((lp165
I49
atp166
Rp167
ag14
((lp168
tp169
Rp170
ag14
((lp171
tp172
Rp173
ag14
((lp174
tp175
Rp176
ag14
((lp177
I55
aI56
aI57
aI58
aI-53
aI-52
atp178
Rp179
ag14
((lp180
I54
aI56
aI57
aI58
aI-53
aI-52
atp181
Rp182
ag14
((lp183
I54
aI55
aI57
aI58
aI-53
aI-52
atp184
Rp185
ag14
((lp186
I54
aI55
aI56
aI58
aI-53
aI-52
atp187
Rp188
ag14
((lp189
I54
aI55
aI56
aI57
aI-53
aI-52
atp190
Rp191
ag14
((lp192
tp193
Rp194
ag14
((lp195
tp196
Rp197
ag14
((lp198
tp199
Rp200
ag14
((lp201
tp202
Rp203
ag14
((lp204
tp205
Rp206
ag14
((lp207
I-55
aI65
atp208
Rp209
ag14
((lp210
I64
aI-55
aI66
atp211
Rp212
ag14
((lp213
I-55
aI65
atp214
Rp215
ag14
((lp216
tp217
Rp218
ag14
((lp219
I-61
aI-60
aI69
aI70
aI71
aI72
aI73
aI74
aI-58
aI-65
atp220
Rp221
ag14
((lp222
I-61
aI68
aI70
aI-58
aI71
aI72
aI73
aI74
aI-60
aI-65
atp223
Rp224
ag14
((lp225
I-61
aI68
aI69
aI-58
aI71
aI72
aI73
aI74
aI-60
aI-65
atp226
Rp227
ag14
((lp228
I-61
aI68
aI70
aI-58
aI72
aI73
aI74
aI-60
aI-65
aI69
atp229
Rp230
ag14
((lp231
I-61
aI-60
aI-58
aI70
aI71
aI73
aI74
aI68
aI69
aI-65
atp232
Rp233
ag14
((lp234
I-61
aI68
aI69
aI-58
aI71
aI72
aI74
aI-60
aI70
aI-65
atp235
Rp236
ag14
((lp237
I-61
aI68
aI69
aI70
aI71
aI72
aI73
aI-58
aI-60
aI-65
atp238
Rp239
ag14
((lp240
tp241
Rp242
ag14
((lp243
tp244
Rp245
ag14
((lp246
tp247
Rp248
ag14
((lp249
I-62
aI79
aI-73
atp250
Rp251
ag14
((lp252
I-62
aI-73
aI78
atp253
Rp254
ag14
((lp255
I81
atp256
Rp257
ag14
((lp258
I80
atp259
Rp260
ag14
((lp261
tp262
Rp263
ag14
((lp264
tp265
Rp266
ag14
((lp267
I85
atp268
Rp269
ag14
((lp270
I84
atp271
Rp272
ag14
((lp273
tp274
Rp275
ag14
((lp276
tp277
Rp278
ag14
((lp279
tp280
Rp281
ag14
((lp282
tp283
Rp284
ag14
((lp285
tp286
Rp287
ag14
((lp288
tp289
Rp290
ag14
((lp291
tp292
Rp293
ag14
((lp294
tp295
Rp296
ag14
((lp297
I-92
atp298
Rp299
ag14
((lp300
tp301
Rp302
ag14
((lp303
tp304
Rp305
ag14
((lp306
tp307
Rp308
ag14
((lp309
tp310
Rp311
ag14
((lp312
I100
atp313
Rp314
ag14
((lp315
I99
atp316
Rp317
ag14
((lp318
tp319
Rp320
ag14
((lp321
I-99
atp322
Rp323
ag14
((lp324
tp325
Rp326
ag14
((lp327
tp328
Rp329
ag14
((lp330
tp331
Rp332
ag14
((lp333
tp334
Rp335
ag14
((lp336
tp337
Rp338
ag14
((lp339
I-107
aI-106
aI-105
aI-104
aI-103
aI-102
aI-101
aI-100
aI-98
aI-96
aI-95
aI-94
aI-93
aI-91
aI-90
aI-89
aI109
atp340
Rp341
ag14
((lp342
I-107
aI-106
aI-105
aI-104
aI-103
aI-102
aI-101
aI-100
aI-98
aI-96
aI-95
aI-94
aI-93
aI-91
aI-90
aI-89
aI108
atp343
Rp344
ag14
((lp345
I-108
atp346
Rp347
ag14
((lp348
tp349
Rp350
ag14
((lp351
I-110
atp352
Rp353
ag14
((lp354
I114
aI-109
atp355
Rp356
ag14
((lp357
I113
aI-109
atp358
Rp359
ag14
((lp360
tp361
Rp362
ag14
((lp363
tp364
Rp365
ag14
((lp366
tp367
Rp368
ag14
((lp369
tp370
Rp371
ag14
((lp372
tp373
Rp374
ag14
((lp375
tp376
Rp377
ag14
((lp378
tp379
Rp380
ag14
((lp381
tp382
Rp383
ag14
((lp384
tp385
Rp386
ag14
((lp387
tp388
Rp389
ag14
((lp390
tp391
Rp392
ag14
((lp393
I128
aI-125
aI-124
aI-123
aI-122
aI-121
aI-120
aI-119
aI-118
aI-117
aI-116
aI127
atp394
Rp395
ag14
((lp396
I128
aI-125
aI-124
aI-123
aI-122
aI-121
aI-120
aI-119
aI-118
aI-117
aI-116
aI126
atp397
Rp398
ag14
((lp399
I-125
aI-124
aI-123
aI-122
aI-121
aI-120
aI-119
aI-118
aI-117
aI-116
aI126
aI127
atp400
Rp401
ag14
((lp402
tp403
Rp404
ag14
((lp405
tp406
Rp407
ag14
((lp408
tp409
Rp410
ag14
((lp411
tp412
Rp413
ag14
((lp414
tp415
Rp416
ag14
((lp417
tp418
Rp419
ag14
((lp420
tp421
Rp422
ag14
((lp423
tp424
Rp425
ag14
((lp426
I138
atp427
Rp428
ag14
((lp429
I137
atp430
Rp431
ag14
((lp432
tp433
Rp434
ag14
((lp435
tp436
Rp437
ag14
((lp438
tp439
Rp440
ag14
((lp441
I-136
aI-134
aI-141
aI143
atp442
Rp443
ag14
((lp444
I-136
aI-134
aI-141
aI142
atp445
Rp446
ag14
((lp447
tp448
Rp449
ag14
((lp450
I-143
atp451
Rp452
ag14
((lp453
tp454
Rp455
ag14
((lp456
tp457
Rp458
ag14
((lp459
tp460
Rp461
ag14
((lp462
I-148
aI-147
aI-146
aI-144
aI150
aI151
aI152
atp463
Rp464
ag14
((lp465
I-148
aI-147
aI-146
aI-144
aI149
aI151
aI152
atp466
Rp467
ag14
((lp468
I-148
aI-147
aI-146
aI-144
aI149
aI150
aI152
atp469
Rp470
ag14
((lp471
I-148
aI-147
aI-146
aI-144
aI149
aI150
aI151
atp472
Rp473
ag14
((lp474
tp475
Rp476
ag14
((lp477
I-150
aI-153
atp478
Rp479
ag14
((lp480
I-151
aI-154
atp481
Rp482
ag14
((lp483
tp484
Rp485
ag14
((lp486
I-156
aI-155
aI-152
aI158
aI159
atp487
Rp488
ag14
((lp489
I-156
aI-155
aI-152
aI157
aI159
atp490
Rp491
ag14
((lp492
I-156
aI-155
aI-152
aI157
aI158
atp493
Rp494
ag14
((lp495
tp496
Rp497
ag14
((lp498
tp499
Rp500
ag14
((lp501
tp502
Rp503
ag14
((lp504
I-155
aI-152
aI157
aI158
aI159
atp505
Rp506
ag14
((lp507
I-156
aI-152
aI157
aI158
aI159
atp508
Rp509
ag14
((lp510
I-151
aI155
atp511
Rp512
ag14
((lp513
I154
aI-150
atp514
Rp515
ag14
((lp516
I-156
aI-155
aI157
aI158
aI159
atp517
Rp518
ag14
((lp519
I155
aI-154
atp520
Rp521
ag14
((lp522
I154
aI-153
atp523
Rp524
ag14
((lp525
tp526
Rp527
ag14
((lp528
I-147
aI-146
aI-144
aI149
aI150
aI151
aI152
atp529
Rp530
ag14
((lp531
I-148
aI-146
aI-144
aI149
aI150
aI151
aI152
atp532
Rp533
ag14
((lp534
I-148
aI-147
aI-144
aI149
aI150
aI151
aI152
atp535
Rp536
ag14
((lp537
tp538
Rp539
ag14
((lp540
I-148
aI-147
aI-146
aI149
aI150
aI151
aI152
atp541
Rp542
ag14
((lp543
I145
atp544
Rp545
ag14
((lp546
tp547
Rp548
ag14
((lp549
I-136
aI-134
aI142
aI143
atp550
Rp551
ag14
((lp552
tp553
Rp554
ag14
((lp555
tp556
Rp557
ag14
((lp558
tp559
Rp560
ag14
((lp561
tp562
Rp563
ag14
((lp564
I-134
aI-141
aI142
aI143
atp565
Rp566
ag14
((lp567
tp568
Rp569
ag14
((lp570
I-136
aI-141
aI142
aI143
atp571
Rp572
ag14
((lp573
I-131
atp574
Rp575
ag14
((lp576
tp577
Rp578
ag14
((lp579
I-133
atp580
Rp581
ag14
((lp582
tp583
Rp584
ag14
((lp585
tp586
Rp587
ag14
((lp588
tp589
Rp590
ag14
((lp591
tp592
Rp593
ag14
((lp594
tp595
Rp596
ag14
((lp597
I128
aI-124
aI-123
aI-122
aI-121
aI-120
aI-119
aI-118
aI-117
aI-116
aI126
aI127
atp598
Rp599
ag14
((lp600
I128
aI-125
aI-123
aI-122
aI-121
aI-120
aI-119
aI-118
aI-117
aI-116
aI126
aI127
atp601
Rp602
ag14
((lp603
I128
aI-125
aI-124
aI-122
aI-121
aI-120
aI-119
aI-118
aI-117
aI-116
aI126
aI127
atp604
Rp605
ag14
((lp606
I128
aI-125
aI-124
aI-123
aI-121
aI-120
aI-119
aI-118
aI-117
aI-116
aI126
aI127
atp607
Rp608
ag14
((lp609
I128
aI-125
aI-124
aI-123
aI-122
aI-120
aI-119
aI-118
aI-117
aI-116
aI126
aI127
atp610
Rp611
ag14
((lp612
I128
aI-125
aI-124
aI-123
aI-122
aI-121
aI-119
aI-118
aI-117
aI-116
aI126
aI127
atp613
Rp614
ag14
((lp615
I128
aI-125
aI-124
aI-123
aI-122
aI-121
aI-120
aI-118
aI-117
aI-116
aI126
aI127
atp616
Rp617
ag14
((lp618
I128
aI-125
aI-124
aI-123
aI-122
aI-121
aI-120
aI-119
aI-117
aI-116
aI126
aI127
atp619
Rp620
ag14
((lp621
I128
aI-125
aI-124
aI-123
aI-122
aI-121
aI-120
aI-119
aI-118
aI-116
aI126
aI127
atp622
Rp623
ag14
((lp624
I128
aI-125
aI-124
aI-123
aI-122
aI-121
aI-120
aI-119
aI-118
aI-117
aI126
aI127
atp625
Rp626
ag14
((lp627
tp628
Rp629
ag14
((lp630
tp631
Rp632
ag14
((lp633
tp634
Rp635
ag14
((lp636
tp637
Rp638
ag14
((lp639
tp640
Rp641
ag14
((lp642
I112
atp643
Rp644
ag14
((lp645
I113
aI114
atp646
Rp647
ag14
((lp648
I110
atp649
Rp650
ag14
((lp651
I-106
aI-105
aI-104
aI-103
aI-102
aI-101
aI-100
aI-98
aI-96
aI-95
aI-94
aI-93
aI-91
aI-90
aI-89
aI108
aI109
atp652
Rp653
ag14
((lp654
I-107
aI-105
aI-104
aI-103
aI-102
aI-101
aI-100
aI-98
aI-96
aI-95
aI-94
aI-93
aI-91
aI-90
aI-89
aI108
aI109
atp655
Rp656
ag14
((lp657
I-96
aI-95
aI-94
aI-93
aI-91
aI-90
aI-89
aI108
aI109
aI-107
aI-106
aI-104
aI-100
aI-98
atp658
Rp659
ag14
((lp660
I-107
aI-106
aI-105
aI-103
aI-102
aI-101
aI-100
aI-98
aI-96
aI-95
aI-94
aI-93
aI-91
aI-90
aI-89
aI108
aI109
atp661
Rp662
ag14
((lp663
I-107
aI-106
aI-104
aI-102
aI-101
aI-100
aI-98
aI-96
aI-95
aI-94
aI-93
aI-91
aI-90
aI-89
aI108
aI109
atp664
Rp665
ag14
((lp666
I-107
aI-106
aI-104
aI-103
aI-101
aI-100
aI-98
aI-96
aI-95
aI-94
aI-93
aI-91
aI-90
aI-89
aI108
aI109
atp667
Rp668
ag14
((lp669
I-107
aI-106
aI-104
aI-103
aI-102
aI-100
aI-98
aI-96
aI-95
aI-94
aI-93
aI-91
aI-90
aI-89
aI108
aI109
atp670
Rp671
ag14
((lp672
I-107
aI-106
aI-105
aI-104
aI-103
aI-102
aI-101
aI-98
aI-96
aI-95
aI-94
aI-93
aI-91
aI-90
aI-89
aI108
aI109
atp673
Rp674
ag14
((lp675
I102
atp676
Rp677
ag14
((lp678
I-107
aI-106
aI-105
aI-104
aI-103
aI-102
aI-101
aI-100
aI-96
aI-95
aI-94
aI-93
aI-91
aI-90
aI-89
aI108
aI109
atp679
Rp680
ag14
((lp681
tp682
Rp683
ag14
((lp684
I-107
aI-106
aI-105
aI-104
aI-103
aI-102
aI-101
aI-100
aI-98
aI-95
aI-94
aI-93
aI-91
aI-90
aI-89
aI108
aI109
atp685
Rp686
ag14
((lp687
I-107
aI-106
aI-105
aI-104
aI-103
aI-102
aI-101
aI-100
aI-98
aI-96
aI-94
aI-93
aI-91
aI-90
aI-89
aI108
aI109
atp688
Rp689
ag14
((lp690
I-107
aI-106
aI-105
aI-104
aI-103
aI-102
aI-101
aI-100
aI-98
aI-96
aI-95
aI-93
aI-91
aI-90
aI-89
aI108
aI109
atp691
Rp692
ag14
((lp693
I-107
aI-106
aI-105
aI-104
aI-103
aI-102
aI-101
aI-100
aI-98
aI-96
aI-95
aI-94
aI-91
aI-90
aI-89
aI108
aI109
atp694
Rp695
ag14
((lp696
I94
atp697
Rp698
ag14
((lp699
I-107
aI-106
aI-105
aI-104
aI-103
aI-102
aI-101
aI-100
aI-98
aI-96
aI-95
aI-94
aI-93
aI-90
aI-89
aI108
aI109
atp700
Rp701
ag14
((lp702
I-107
aI-106
aI-105
aI-104
aI-103
aI-102
aI-101
aI-100
aI-98
aI-96
aI-95
aI-94
aI-93
aI-91
aI-89
aI108
aI109
atp703
Rp704
ag14
((lp705
I-107
aI-106
aI-105
aI-104
aI-103
aI-102
aI-101
aI-100
aI-98
aI-96
aI-95
aI-94
aI-93
aI-91
aI-90
aI108
aI109
atp706
Rp707
ag14
((lp708
tp709
Rp710
ag14
((lp711
tp712
Rp713
ag14
((lp714
tp715
Rp716
ag14
((lp717
tp718
Rp719
ag14
((lp720
tp721
Rp722
ag14
((lp723
tp724
Rp725
ag14
((lp726
tp727
Rp728
ag14
((lp729
I-74
atp730
Rp731
ag14
((lp732
tp733
Rp734
ag14
((lp735
tp736
Rp737
ag14
((lp738
tp739
Rp740
ag14
((lp741
tp742
Rp743
ag14
((lp744
tp745
Rp746
ag14
((lp747
tp748
Rp749
ag14
((lp750
I-81
atp751
Rp752
ag14
((lp753
I-62
aI79
aI78
atp754
Rp755
ag14
((lp756
tp757
Rp758
ag14
((lp759
tp760
Rp761
ag14
((lp762
tp763
Rp764
ag14
((lp765
tp766
Rp767
ag14
((lp768
I-63
aI-67
aI-66
aI-51
atp769
Rp770
ag14
((lp771
I-63
aI-68
aI-51
atp772
Rp773
ag14
((lp774
I-68
atp775
Rp776
ag14
((lp777
I-61
aI68
aI69
aI-58
aI71
aI72
aI73
aI74
aI-60
aI70
atp778
Rp779
ag14
((lp780
I-57
atp781
Rp782
ag14
((lp783
I-68
aI-67
aI-51
atp784
Rp785
ag14
((lp786
I79
aI78
aI-73
atp787
Rp788
ag14
((lp789
I68
aI69
aI70
aI71
aI72
aI73
aI74
aI-58
aI-60
aI-65
atp790
Rp791
ag14
((lp792
I-61
aI68
aI69
aI-58
aI71
aI72
aI73
aI74
aI70
aI-65
atp793
Rp794
ag14
((lp795
tp796
Rp797
ag14
((lp798
I-61
aI68
aI69
aI70
aI71
aI72
aI73
aI74
aI-60
aI-65
atp799
Rp800
ag14
((lp801
I-64
atp802
Rp803
ag14
((lp804
tp805
Rp806
ag14
((lp807
I64
aI66
aI65
atp808
Rp809
ag14
((lp810
tp811
Rp812
ag14
((lp813
I54
aI55
aI56
aI57
aI58
aI-52
atp814
Rp815
ag14
((lp816
I54
aI55
aI56
aI57
aI58
aI-53
atp817
Rp818
ag14
((lp819
I-63
aI-68
aI-67
atp820
Rp821
ag14
((lp822
tp823
Rp824
ag14
((lp825
tp826
Rp827
ag14
((lp828
tp829
Rp830
ag14
((lp831
I-46
aI-45
aI-44
aI-43
aI-41
aI-40
aI-39
aI-38
aI-36
aI-35
aI-34
aI-33
aI-30
aI-29
aI-27
aI-25
aI-24
aI-23
aI-22
aI-21
aI-20
aI-19
aI-18
aI-17
aI48
aI-12
atp832
Rp833
ag14
((lp834
I-47
aI-45
aI-44
aI-43
aI-41
aI-40
aI-39
aI-38
aI-36
aI-35
aI-34
aI-33
aI-30
aI-29
aI-27
aI-25
aI-24
aI-23
aI-22
aI-21
aI-20
aI-19
aI-18
aI-17
aI48
aI-12
atp835
Rp836
ag14
((lp837
I-47
aI-46
aI-44
aI-43
aI-41
aI-40
aI-39
aI-38
aI-36
aI-35
aI-34
aI-33
aI-30
aI-29
aI-27
aI-25
aI-24
aI-23
aI-22
aI-21
aI-20
aI-19
aI-18
aI-17
aI48
aI-12
atp838
Rp839
ag14
((lp840
I-47
aI-46
aI-45
aI-43
aI-41
aI-40
aI-39
aI-38
aI-36
aI-35
aI-34
aI-33
aI-30
aI-29
aI-27
aI-25
aI-24
aI-23
aI-22
aI-21
aI-20
aI-19
aI-18
aI-17
aI48
aI-12
atp841
Rp842
ag14
((lp843
I-47
aI-46
aI-45
aI-44
aI-41
aI-40
aI-39
aI-38
aI-36
aI-35
aI-34
aI-33
aI-30
aI-29
aI-27
aI-25
aI-24
aI-23
aI-22
aI-21
aI-20
aI-19
aI-18
aI-17
aI48
aI-12
atp844
Rp845
ag14
((lp846
tp847
Rp848
ag14
((lp849
I-47
aI-46
aI-45
aI-44
aI-43
aI-40
aI-39
aI-38
aI-36
aI-35
aI-34
aI-33
aI-30
aI-29
aI-27
aI-25
aI-24
aI-23
aI-22
aI-21
aI-20
aI-19
aI-18
aI-17
aI48
aI-12
atp850
Rp851
ag14
((lp852
I-47
aI-46
aI-45
aI-44
aI-43
aI-41
aI-39
aI-38
aI-36
aI-35
aI-34
aI-33
aI-30
aI-29
aI-27
aI-25
aI-24
aI-23
aI-22
aI-21
aI-20
aI-19
aI-18
aI-17
aI48
aI-12
atp853
Rp854
ag14
((lp855
I-47
aI-46
aI-45
aI-44
aI-43
aI-41
aI-40
aI-38
aI-36
aI-35
aI-34
aI-33
aI-30
aI-29
aI-27
aI-25
aI-24
aI-23
aI-22
aI-21
aI-20
aI-19
aI-18
aI-17
aI48
aI-12
atp856
Rp857
ag14
((lp858
I-47
aI-46
aI-45
aI-44
aI-43
aI-41
aI-40
aI-39
aI-36
aI-35
aI-34
aI-33
aI-30
aI-29
aI-27
aI-25
aI-24
aI-23
aI-22
aI-21
aI-20
aI-19
aI-18
aI-17
aI48
aI-12
atp859
Rp860
ag14
((lp861
tp862
Rp863
ag14
((lp864
I-47
aI-46
aI-45
aI-44
aI-43
aI-41
aI-40
aI-39
aI-38
aI-35
aI-34
aI-33
aI-30
aI-29
aI-27
aI-25
aI-24
aI-23
aI-22
aI-21
aI-20
aI-19
aI-18
aI-17
aI48
aI-12
atp865
Rp866
ag14
((lp867
I-47
aI-46
aI-45
aI-44
aI-43
aI-41
aI-40
aI-39
aI-38
aI-36
aI-34
aI-33
aI-30
aI-29
aI-27
aI-25
aI-24
aI-23
aI-22
aI-21
aI-20
aI-19
aI-18
aI-17
aI48
aI-12
atp868
Rp869
ag14
((lp870
I-47
aI-46
aI-45
aI-44
aI-43
aI-41
aI-40
aI-39
aI-38
aI-36
aI-35
aI-33
aI-30
aI-29
aI-27
aI-25
aI-24
aI-23
aI-22
aI-21
aI-20
aI-19
aI-18
aI-17
aI48
aI-12
atp871
Rp872
ag14
((lp873
I-47
aI-46
aI-45
aI-44
aI-43
aI-41
aI-40
aI-39
aI-38
aI-36
aI-35
aI-34
aI-30
aI-29
aI-27
aI-25
aI-24
aI-23
aI-22
aI-21
aI-20
aI-19
aI-18
aI-17
aI48
aI-12
atp874
Rp875
ag14
((lp876
tp877
Rp878
ag14
((lp879
I33
atp880
Rp881
ag14
((lp882
I-47
aI-46
aI-45
aI-44
aI-43
aI-41
aI-40
aI-39
aI-38
aI-36
aI-35
aI-34
aI-33
aI-29
aI-27
aI-25
aI-24
aI-23
aI-22
aI-21
aI-20
aI-19
aI-18
aI-17
aI48
aI-12
atp883
Rp884
ag14
((lp885
I-47
aI-46
aI-45
aI-44
aI-43
aI-41
aI-40
aI-39
aI-38
aI-36
aI-35
aI-34
aI-33
aI-30
aI-27
aI-25
aI-24
aI-23
aI-22
aI-21
aI-20
aI-19
aI-18
aI-17
aI48
aI-12
atp886
Rp887
ag14
((lp888
tp889
Rp890
ag14
((lp891
I-47
aI-46
aI-45
aI-44
aI-43
aI-41
aI-40
aI-39
aI-38
aI-36
aI-35
aI-34
aI-33
aI-30
aI-29
aI-25
aI-24
aI-23
aI-22
aI-21
aI-20
aI-19
aI-18
aI-17
aI48
aI-12
atp892
Rp893
ag14
((lp894
tp895
Rp896
ag14
((lp897
I-47
aI-46
aI-45
aI-44
aI-43
aI-41
aI-40
aI-39
aI-38
aI-36
aI-35
aI-34
aI-33
aI-30
aI-29
aI-27
aI-24
aI-23
aI-22
aI-21
aI-20
aI-19
aI-18
aI-17
aI48
aI-12
atp898
Rp899
ag14
((lp900
I-47
aI-46
aI-45
aI-44
aI-43
aI-41
aI-40
aI-39
aI-38
aI-36
aI-35
aI-34
aI-33
aI-30
aI-29
aI-27
aI-25
aI-23
aI-22
aI-21
aI-20
aI-19
aI-18
aI-17
aI48
aI-12
atp901
Rp902
ag14
((lp903
I-47
aI-46
aI-45
aI-44
aI-43
aI-41
aI-40
aI-39
aI-38
aI-36
aI-35
aI-34
aI-33
aI-30
aI-29
aI-27
aI-25
aI-24
aI-22
aI-21
aI-20
aI-19
aI-18
aI-17
aI48
aI-12
atp904
Rp905
ag14
((lp906
I-47
aI-46
aI-45
aI-44
aI-43
aI-41
aI-40
aI-39
aI-38
aI-36
aI-35
aI-34
aI-33
aI-30
aI-29
aI-27
aI-25
aI-24
aI-23
aI-21
aI-20
aI-19
aI-18
aI-17
aI48
aI-12
atp907
Rp908
ag14
((lp909
I-47
aI-46
aI-45
aI-44
aI-43
aI-41
aI-40
aI-39
aI-38
aI-36
aI-35
aI-34
aI-33
aI-30
aI-29
aI-27
aI-25
aI-24
aI-23
aI-22
aI-20
aI-19
aI-18
aI-17
aI48
aI-12
atp910
Rp911
ag14
((lp912
I-47
aI-46
aI-45
aI-44
aI-43
aI-41
aI-40
aI-39
aI-38
aI-36
aI-35
aI-34
aI-33
aI-30
aI-29
aI-27
aI-25
aI-24
aI-23
aI-22
aI-21
aI-19
aI-18
aI-17
aI48
aI-12
atp913
Rp914
ag14
((lp915
I-47
aI-46
aI-45
aI-44
aI-43
aI-41
aI-40
aI-39
aI-38
aI-36
aI-35
aI-34
aI-33
aI-30
aI-29
aI-27
aI-25
aI-24
aI-23
aI-22
aI-21
aI-20
aI-18
aI-17
aI48
aI-12
atp916
Rp917
ag14
((lp918
I-47
aI-46
aI-45
aI-44
aI-43
aI-41
aI-40
aI-39
aI-38
aI-36
aI-35
aI-34
aI-33
aI-30
aI-29
aI-27
aI-25
aI-24
aI-23
aI-22
aI-21
aI-20
aI-19
aI-17
aI48
aI-12
atp919
Rp920
ag14
((lp921
I-47
aI-46
aI-45
aI-44
aI-43
aI-41
aI-40
aI-39
aI-38
aI-36
aI-35
aI-34
aI-33
aI-30
aI-29
aI-27
aI-25
aI-24
aI-23
aI-22
aI-21
aI-20
aI-19
aI-18
aI48
aI-12
atp922
Rp923
ag14
((lp924
I26
aI27
atp925
Rp926
ag14
((lp927
tp928
Rp929
ag14
((lp930
I20
atp931
Rp932
ag14
((lp933
I19
aI15
atp934
Rp935
ag14
((lp936
I-47
aI-46
aI-45
aI-44
aI-43
aI-41
aI-40
aI-39
aI-38
aI-36
aI-35
aI-34
aI-33
aI-30
aI-29
aI-27
aI-25
aI-24
aI-23
aI-22
aI-21
aI-20
aI-19
aI-18
aI-17
aI48
atp937
Rp938
ag14
((lp939
tp940
Rp941
ag14
((lp942
tp943
Rp944
ag14
((lp945
tp946
Rp947
ag14
((lp948
I9
aI-6
aI-5
atp949
Rp950
ag14
((lp951
tp952
Rp953
ag14
((lp954
I-8
aI9
aI-5
atp955
Rp956
ag14
((lp957
I-8
aI9
aI-6
atp958
Rp959
ag14
((lp960
tp961
Rp962
ag14
((lp963
I4
atp964
Rp965
ag14
((lp966
tp967
Rp968
ag14
((lp969
tp970
Rp971
atp972
b.