cnumpy.core.multiarray
_reconstruct
p0
(cnumpy
ndarray
p1
(I0
tp2
S'b'
p3
tp4
Rp5
(I1
(I4317
tp6
cnumpy
dtype
p7
(S'O8'
p8
I0
I1
tp9
Rp10
(I3
S'|'
p11
NNNI-1
I-1
I63
tp12
bI00
(lp13
c__builtin__
set
p14
((lp15
tp16
Rp17
ag14
((lp18
tp19
Rp20
ag14
((lp21
tp22
Rp23
ag14
((lp24
tp25
Rp26
ag14
((lp27
tp28
Rp29
ag14
((lp30
tp31
Rp32
ag14
((lp33
tp34
Rp35
ag14
((lp36
tp37
Rp38
ag14
((lp39
tp40
Rp41
ag14
((lp42
tp43
Rp44
ag14
((lp45
tp46
Rp47
ag14
((lp48
I12
aI13
aI14
atp49
Rp50
ag14
((lp51
I11
aI13
aI14
atp52
Rp53
ag14
((lp54
I11
aI12
aI14
atp55
Rp56
ag14
((lp57
I11
aI12
aI13
atp58
Rp59
ag14
((lp60
tp61
Rp62
ag14
((lp63
tp64
Rp65
ag14
((lp66
tp67
Rp68
ag14
((lp69
tp70
Rp71
ag14
((lp72
tp73
Rp74
ag14
((lp75
tp76
Rp77
ag14
((lp78
tp79
Rp80
ag14
((lp81
tp82
Rp83
ag14
((lp84
tp85
Rp86
ag14
((lp87
tp88
Rp89
ag14
((lp90
tp91
Rp92
ag14
((lp93
tp94
Rp95
ag14
((lp96
tp97
Rp98
ag14
((lp99
tp100
Rp101
ag14
((lp102
tp103
Rp104
ag14
((lp105
tp106
Rp107
ag14
((lp108
tp109
Rp110
ag14
((lp111
tp112
Rp113
ag14
((lp114
tp115
Rp116
ag14
((lp117
tp118
Rp119
ag14
((lp120
tp121
Rp122
ag14
((lp123
tp124
Rp125
ag14
((lp126
tp127
Rp128
ag14
((lp129
tp130
Rp131
ag14
((lp132
tp133
Rp134
ag14
((lp135
tp136
Rp137
ag14
((lp138
tp139
Rp140
ag14
((lp141
tp142
Rp143
ag14
((lp144
tp145
Rp146
ag14
((lp147
tp148
Rp149
ag14
((lp150
tp151
Rp152
ag14
((lp153
tp154
Rp155
ag14
((lp156
tp157
Rp158
ag14
((lp159
tp160
Rp161
ag14
((lp162
tp163
Rp164
ag14
((lp165
tp166
Rp167
ag14
((lp168
tp169
Rp170
ag14
((lp171
tp172
Rp173
ag14
((lp174
tp175
Rp176
ag14
((lp177
tp178
Rp179
ag14
((lp180
tp181
Rp182
ag14
((lp183
tp184
Rp185
ag14
((lp186
tp187
Rp188
ag14
((lp189
tp190
Rp191
ag14
((lp192
I60
aI61
aI62
atp193
Rp194
ag14
((lp195
I59
aI61
aI62
atp196
Rp197
ag14
((lp198
I59
aI60
aI62
atp199
Rp200
ag14
((lp201
I59
aI60
aI61
atp202
Rp203
ag14
((lp204
tp205
Rp206
ag14
((lp207
tp208
Rp209
ag14
((lp210
tp211
Rp212
ag14
((lp213
tp214
Rp215
ag14
((lp216
tp217
Rp218
ag14
((lp219
tp220
Rp221
ag14
((lp222
tp223
Rp224
ag14
((lp225
tp226
Rp227
ag14
((lp228
tp229
Rp230
ag14
((lp231
I73
aI79
aI-59
aI77
atp232
Rp233
ag14
((lp234
I72
aI79
aI-59
aI77
atp235
Rp236
ag14
((lp237
I78
atp238
Rp239
ag14
((lp240
I-68
atp241
Rp242
ag14
((lp243
tp244
Rp245
ag14
((lp246
I72
aI73
aI79
aI-59
atp247
Rp248
ag14
((lp249
I74
atp250
Rp251
ag14
((lp252
I72
aI73
aI-59
aI77
atp253
Rp254
ag14
((lp255
I81
atp256
Rp257
ag14
((lp258
I80
atp259
Rp260
ag14
((lp261
tp262
Rp263
ag14
((lp264
tp265
Rp266
ag14
((lp267
tp268
Rp269
ag14
((lp270
tp271
Rp272
ag14
((lp273
tp274
Rp275
ag14
((lp276
I88
aI-73
atp277
Rp278
ag14
((lp279
I-80
aI-60
aI-74
aI87
aI-73
aI-67
atp280
Rp281
ag14
((lp282
tp283
Rp284
ag14
((lp285
tp286
Rp287
ag14
((lp288
tp289
Rp290
ag14
((lp291
tp292
Rp293
ag14
((lp294
tp295
Rp296
ag14
((lp297
tp298
Rp299
ag14
((lp300
tp301
Rp302
ag14
((lp303
tp304
Rp305
ag14
((lp306
I98
atp307
Rp308
ag14
((lp309
I97
atp310
Rp311
ag14
((lp312
tp313
Rp314
ag14
((lp315
tp316
Rp317
ag14
((lp318
tp319
Rp320
ag14
((lp321
tp322
Rp323
ag14
((lp324
tp325
Rp326
ag14
((lp327
tp328
Rp329
ag14
((lp330
tp331
Rp332
ag14
((lp333
tp334
Rp335
ag14
((lp336
tp337
Rp338
ag14
((lp339
tp340
Rp341
ag14
((lp342
tp343
Rp344
ag14
((lp345
tp346
Rp347
ag14
((lp348
tp349
Rp350
ag14
((lp351
tp352
Rp353
ag14
((lp354
tp355
Rp356
ag14
((lp357
tp358
Rp359
ag14
((lp360
tp361
Rp362
ag14
((lp363
tp364
Rp365
ag14
((lp366
tp367
Rp368
ag14
((lp369
I119
atp370
Rp371
ag14
((lp372
I118
atp373
Rp374
ag14
((lp375
I-116
atp376
Rp377
ag14
((lp378
tp379
Rp380
ag14
((lp381
I-118
atp382
Rp383
ag14
((lp384
I124
atp385
Rp386
ag14
((lp387
I123
atp388
Rp389
ag14
((lp390
tp391
Rp392
ag14
((lp393
tp394
Rp395
ag14
((lp396
tp397
Rp398
ag14
((lp399
tp400
Rp401
ag14
((lp402
I-16
aI130
aI-29
aI133
aI134
aI-87
atp403
Rp404
ag14
((lp405
I129
aI134
atp406
Rp407
ag14
((lp408
tp409
Rp410
ag14
((lp411
tp412
Rp413
ag14
((lp414
I129
aI-29
atp415
Rp416
ag14
((lp417
I129
aI130
atp418
Rp419
ag14
((lp420
tp421
Rp422
ag14
((lp423
tp424
Rp425
ag14
((lp426
tp427
Rp428
ag14
((lp429
tp430
Rp431
ag14
((lp432
tp433
Rp434
ag14
((lp435
tp436
Rp437
ag14
((lp438
tp439
Rp440
ag14
((lp441
tp442
Rp443
ag14
((lp444
tp445
Rp446
ag14
((lp447
tp448
Rp449
ag14
((lp450
tp451
Rp452
ag14
((lp453
tp454
Rp455
ag14
((lp456
tp457
Rp458
ag14
((lp459
tp460
Rp461
ag14
((lp462
I-128
aI-127
aI-126
aI-125
aI-123
aI-122
aI-121
aI-120
aI-119
aI-115
aI-145
aI-104
aI-110
aI-109
aI-106
aI151
aI152
aI153
aI154
aI155
aI-100
aI150
aI-94
aI-93
aI-92
aI-91
aI-89
aI-88
aI-86
aI-85
aI-83
aI-81
aI-78
aI-77
aI-76
aI-98
aI-75
aI-62
aI-147
aI-146
aI-17
aI-144
aI-143
aI-142
aI-141
aI-137
aI-136
aI-135
aI-132
aI-131
aI-129
atp463
Rp464
ag14
((lp465
I-128
aI-127
aI-126
aI-125
aI-124
aI-123
aI-122
aI-121
aI-120
aI-119
aI-117
aI-115
aI-104
aI-110
aI-109
aI149
aI-106
aI151
aI152
aI153
aI154
aI155
aI-100
aI-98
aI-94
aI-93
aI-92
aI-91
aI-89
aI-88
aI-86
aI-85
aI-83
aI-81
aI-78
aI-77
aI-76
aI-75
aI-62
aI-17
aI-147
aI-146
aI-145
aI-144
aI-143
aI-142
aI-141
aI-137
aI-136
aI-135
aI-132
aI-131
aI-129
atp466
Rp467
ag14
((lp468
I-128
aI-127
aI-126
aI-125
aI-123
aI-122
aI-121
aI-120
aI-119
aI-117
aI-115
aI-145
aI-104
aI-110
aI-109
aI149
aI150
aI152
aI153
aI154
aI155
aI-100
aI-98
aI-94
aI-93
aI-92
aI-91
aI-89
aI-88
aI-86
aI-85
aI-83
aI-81
aI-78
aI-77
aI-76
aI-75
aI-62
aI-146
aI-147
aI-106
aI-17
aI-144
aI-143
aI-142
aI-141
aI-137
aI-136
aI-135
aI-132
aI-131
aI-129
atp469
Rp470
ag14
((lp471
I-128
aI-127
aI-126
aI-125
aI-123
aI-122
aI-121
aI-120
aI-119
aI-117
aI-115
aI-145
aI-104
aI-110
aI-109
aI149
aI-106
aI151
aI153
aI154
aI155
aI-100
aI-98
aI-94
aI-93
aI-92
aI-91
aI-89
aI-88
aI-86
aI-85
aI-83
aI-81
aI-78
aI-77
aI-76
aI-75
aI-62
aI-147
aI-146
aI-17
aI-144
aI-143
aI-142
aI-141
aI150
aI-137
aI-136
aI-135
aI-132
aI-131
aI-129
atp472
Rp473
ag14
((lp474
I-128
aI-127
aI-126
aI-125
aI-123
aI-122
aI-121
aI-120
aI-119
aI-117
aI-115
aI152
aI-110
aI-109
aI149
aI-106
aI151
aI-104
aI154
aI155
aI-100
aI-98
aI-94
aI-93
aI-92
aI-91
aI-89
aI-88
aI-86
aI-85
aI-83
aI-81
aI-78
aI-77
aI-76
aI-75
aI-62
aI-17
aI-147
aI-146
aI-145
aI-144
aI-143
aI-142
aI-141
aI150
aI-137
aI-136
aI-135
aI-132
aI-131
aI-129
atp475
Rp476
ag14
((lp477
I-128
aI-127
aI-126
aI-125
aI-124
aI-123
aI-122
aI-121
aI-119
aI-115
aI-110
aI149
aI150
aI151
aI152
aI153
aI-100
aI-98
aI-94
aI-93
aI-92
aI-89
aI-88
aI-85
aI-83
aI-81
aI-78
aI-77
aI-76
aI-62
aI-147
aI-146
aI-145
aI-144
aI-143
aI-137
aI-136
aI-135
aI-132
aI-131
aI-129
atp478
Rp479
ag14
((lp480
I-128
aI-127
aI-126
aI-123
aI-122
aI-17
aI-120
aI-119
aI-117
aI-115
aI-104
aI-110
aI-109
aI149
aI-106
aI151
aI152
aI153
aI-100
aI150
aI-94
aI-93
aI-92
aI-91
aI-89
aI-88
aI-86
aI-85
aI-83
aI-81
aI-78
aI-77
aI-76
aI-98
aI-75
aI-62
aI-147
aI-146
aI-145
aI-144
aI-143
aI-142
aI-141
aI-136
aI-135
aI-132
aI-131
aI-129
atp481
Rp482
ag14
((lp483
tp484
Rp485
ag14
((lp486
tp487
Rp488
ag14
((lp489
I160
aI161
aI162
aI163
aI164
aI165
aI-150
aI159
atp490
Rp491
ag14
((lp492
I160
aI161
aI162
aI163
aI164
aI165
aI-150
aI158
atp493
Rp494
ag14
((lp495
I161
aI162
aI163
aI164
aI165
aI-150
aI158
aI159
atp496
Rp497
ag14
((lp498
I160
aI162
aI163
aI164
aI165
aI-150
aI158
aI159
atp499
Rp500
ag14
((lp501
I160
aI161
aI163
aI164
aI165
aI-150
aI158
aI159
atp502
Rp503
ag14
((lp504
I160
aI161
aI162
aI164
aI165
aI-150
aI158
aI159
atp505
Rp506
ag14
((lp507
I160
aI161
aI162
aI163
aI165
aI-150
aI158
aI159
atp508
Rp509
ag14
((lp510
I160
aI161
aI162
aI163
aI164
aI-150
aI158
aI159
atp511
Rp512
ag14
((lp513
tp514
Rp515
ag14
((lp516
tp517
Rp518
ag14
((lp519
tp520
Rp521
ag14
((lp522
tp523
Rp524
ag14
((lp525
tp526
Rp527
ag14
((lp528
tp529
Rp530
ag14
((lp531
tp532
Rp533
ag14
((lp534
I-161
atp535
Rp536
ag14
((lp537
tp538
Rp539
ag14
((lp540
tp541
Rp542
ag14
((lp543
tp544
Rp545
ag14
((lp546
tp547
Rp548
ag14
((lp549
tp550
Rp551
ag14
((lp552
tp553
Rp554
ag14
((lp555
I181
aI-163
atp556
Rp557
ag14
((lp558
I180
aI-163
atp559
Rp560
ag14
((lp561
I186
atp562
Rp563
ag14
((lp564
tp565
Rp566
ag14
((lp567
tp568
Rp569
ag14
((lp570
tp571
Rp572
ag14
((lp573
I182
atp574
Rp575
ag14
((lp576
tp577
Rp578
ag14
((lp579
tp580
Rp581
ag14
((lp582
tp583
Rp584
ag14
((lp585
tp586
Rp587
ag14
((lp588
tp589
Rp590
ag14
((lp591
tp592
Rp593
ag14
((lp594
tp595
Rp596
ag14
((lp597
tp598
Rp599
ag14
((lp600
tp601
Rp602
ag14
((lp603
I208
aI202
aI206
aI-193
atp604
Rp605
ag14
((lp606
I-192
aI212
aI-183
aI-182
aI204
aI205
atp607
Rp608
ag14
((lp609
I-185
aI-184
aI201
aI-182
aI204
aI206
aI207
aI208
aI210
aI211
aI213
aI214
aI215
aI216
aI-164
aI199
aI200
aI-173
atp610
Rp611
ag14
((lp612
I198
aI-185
aI200
aI201
aI-182
aI204
aI206
aI207
aI210
aI211
aI213
aI214
aI215
aI216
aI-164
aI-184
aI-173
atp613
Rp614
ag14
((lp615
I198
aI199
aI-184
aI201
aI-182
aI204
aI206
aI207
aI210
aI211
aI213
aI214
aI215
aI216
aI-164
aI-185
aI-173
atp616
Rp617
ag14
((lp618
I198
aI-185
aI-184
aI-182
aI204
aI206
aI207
aI210
aI211
aI214
aI215
aI216
aI-164
aI199
aI200
atp619
Rp620
ag14
((lp621
I208
aI196
aI-193
aI206
aI207
atp622
Rp623
ag14
((lp624
I-182
atp625
Rp626
ag14
((lp627
I-192
aI197
aI198
aI-185
aI200
aI-183
aI-182
aI205
aI206
aI207
aI210
aI-173
aI212
aI213
aI214
aI215
aI216
aI-164
aI199
aI-184
aI211
aI201
atp628
Rp629
ag14
((lp630
I-192
aI212
aI197
aI-183
aI-182
aI204
atp631
Rp632
ag14
((lp633
I196
aI198
aI-185
aI200
aI201
aI202
aI204
aI207
aI208
aI210
aI211
aI213
aI214
aI215
aI216
aI-164
aI199
aI-184
aI-173
aI-182
aI-193
atp634
Rp635
ag14
((lp636
I198
aI-185
aI-184
aI201
aI-182
aI204
aI206
aI208
aI210
aI211
aI213
aI214
aI215
aI216
aI-164
aI199
aI200
aI-173
aI202
atp637
Rp638
ag14
((lp639
I196
aI198
aI202
aI206
aI207
aI210
aI-193
atp640
Rp641
ag14
((lp642
tp643
Rp644
ag14
((lp645
I198
aI199
aI200
aI201
aI-182
aI204
aI206
aI207
aI208
aI211
aI213
aI214
aI215
aI216
aI-164
aI-185
aI-184
atp646
Rp647
ag14
((lp648
I198
aI199
aI200
aI201
aI-182
aI204
aI206
aI207
aI210
aI-173
aI213
aI214
aI215
aI216
aI-164
aI-185
aI-184
atp649
Rp650
ag14
((lp651
I-192
aI197
aI-183
aI-182
aI204
aI205
atp652
Rp653
ag14
((lp654
I198
aI199
aI200
aI-182
aI-185
aI204
aI206
aI207
aI210
aI-173
aI214
aI215
aI-164
aI211
atp655
Rp656
ag14
((lp657
I198
aI-185
aI200
aI201
aI-182
aI204
aI206
aI207
aI210
aI211
aI213
aI215
aI216
aI-164
aI199
aI-184
atp658
Rp659
ag14
((lp660
I198
aI199
aI200
aI201
aI-182
aI204
aI206
aI207
aI210
aI211
aI213
aI214
aI216
aI-164
aI-185
aI-184
atp661
Rp662
ag14
((lp663
I198
aI199
aI200
aI201
aI-182
aI204
aI206
aI207
aI210
aI211
aI214
aI215
aI-164
aI-185
aI-184
atp664
Rp665
ag14
((lp666
tp667
Rp668
ag14
((lp669
tp670
Rp671
ag14
((lp672
tp673
Rp674
ag14
((lp675
tp676
Rp677
ag14
((lp678
tp679
Rp680
ag14
((lp681
I-200
atp682
Rp683
ag14
((lp684
I-200
atp685
Rp686
ag14
((lp687
I-208
aI-204
aI-186
aI-209
atp688
Rp689
ag14
((lp690
I-206
aI-205
aI-203
aI-181
aI-222
atp691
Rp692
ag14
((lp693
I-206
atp694
Rp695
ag14
((lp696
tp697
Rp698
ag14
((lp699
tp700
Rp701
ag14
((lp702
tp703
Rp704
ag14
((lp705
tp706
Rp707
ag14
((lp708
tp709
Rp710
ag14
((lp711
tp712
Rp713
ag14
((lp714
tp715
Rp716
ag14
((lp717
tp718
Rp719
ag14
((lp720
tp721
Rp722
ag14
((lp723
tp724
Rp725
ag14
((lp726
tp727
Rp728
ag14
((lp729
tp730
Rp731
ag14
((lp732
tp733
Rp734
ag14
((lp735
tp736
Rp737
ag14
((lp738
I-239
aI-211
atp739
Rp740
ag14
((lp741
I-213
aI-241
atp742
Rp743
ag14
((lp744
tp745
Rp746
ag14
((lp747
tp748
Rp749
ag14
((lp750
I248
aI249
aI246
aI247
atp751
Rp752
ag14
((lp753
I245
aI247
aI248
aI249
aI250
aI-225
atp754
Rp755
ag14
((lp756
I248
aI245
aI246
atp757
Rp758
ag14
((lp759
I249
aI245
aI246
aI247
atp760
Rp761
ag14
((lp762
I245
aI246
aI248
aI250
aI-225
atp763
Rp764
ag14
((lp765
I249
aI246
aI-225
atp766
Rp767
ag14
((lp768
I-229
aI-242
atp769
Rp770
ag14
((lp771
I253
aI254
aI255
atp772
Rp773
ag14
((lp774
I252
aI254
aI255
atp775
Rp776
ag14
((lp777
I252
aI253
aI255
atp778
Rp779
ag14
((lp780
I252
aI253
aI254
atp781
Rp782
ag14
((lp783
tp784
Rp785
ag14
((lp786
tp787
Rp788
ag14
((lp789
tp790
Rp791
ag14
((lp792
tp793
Rp794
ag14
((lp795
tp796
Rp797
ag14
((lp798
tp799
Rp800
ag14
((lp801
tp802
Rp803
ag14
((lp804
tp805
Rp806
ag14
((lp807
tp808
Rp809
ag14
((lp810
tp811
Rp812
ag14
((lp813
tp814
Rp815
ag14
((lp816
I268
aI269
aI-266
atp817
Rp818
ag14
((lp819
I267
aI269
aI-266
atp820
Rp821
ag14
((lp822
I267
aI268
aI-266
atp823
Rp824
ag14
((lp825
I-264
atp826
Rp827
ag14
((lp828
I-255
aI-267
atp829
Rp830
ag14
((lp831
tp832
Rp833
ag14
((lp834
I274
aI275
aI276
aI277
atp835
Rp836
ag14
((lp837
I273
aI275
aI276
aI277
atp838
Rp839
ag14
((lp840
I273
aI274
aI276
aI277
atp841
Rp842
ag14
((lp843
I273
aI274
aI275
aI277
atp844
Rp845
ag14
((lp846
I273
aI274
aI275
aI276
atp847
Rp848
ag14
((lp849
tp850
Rp851
ag14
((lp852
tp853
Rp854
ag14
((lp855
tp856
Rp857
ag14
((lp858
I-275
atp859
Rp860
ag14
((lp861
tp862
Rp863
ag14
((lp864
tp865
Rp866
ag14
((lp867
tp868
Rp869
ag14
((lp870
I-40
atp871
Rp872
ag14
((lp873
I-282
atp874
Rp875
ag14
((lp876
I288
aI289
aI290
aI-270
atp877
Rp878
ag14
((lp879
I289
aI-270
aI290
aI287
atp880
Rp881
ag14
((lp882
I288
aI290
aI287
atp883
Rp884
ag14
((lp885
I288
aI289
aI-270
aI287
atp886
Rp887
ag14
((lp888
tp889
Rp890
ag14
((lp891
tp892
Rp893
ag14
((lp894
tp895
Rp896
ag14
((lp897
tp898
Rp899
ag14
((lp900
tp901
Rp902
ag14
((lp903
tp904
Rp905
ag14
((lp906
tp907
Rp908
ag14
((lp909
tp910
Rp911
ag14
((lp912
tp913
Rp914
ag14
((lp915
tp916
Rp917
ag14
((lp918
tp919
Rp920
ag14
((lp921
I-296
aI-288
atp922
Rp923
ag14
((lp924
tp925
Rp926
ag14
((lp927
tp928
Rp929
ag14
((lp930
I307
atp931
Rp932
ag14
((lp933
tp934
Rp935
ag14
((lp936
I305
atp937
Rp938
ag14
((lp939
tp940
Rp941
ag14
((lp942
tp943
Rp944
ag14
((lp945
I311
aI312
aI313
aI316
aI-305
atp946
Rp947
ag14
((lp948
I310
aI312
aI313
aI316
aI-305
atp949
Rp950
ag14
((lp951
I310
aI311
aI313
aI315
aI316
aI-305
atp952
Rp953
ag14
((lp954
I310
aI311
aI312
aI316
aI-305
atp955
Rp956
ag14
((lp957
I-305
atp958
Rp959
ag14
((lp960
I312
atp961
Rp962
ag14
((lp963
I310
aI311
aI312
aI313
aI-305
atp964
Rp965
ag14
((lp966
I318
atp967
Rp968
ag14
((lp969
I317
atp970
Rp971
ag14
((lp972
tp973
Rp974
ag14
((lp975
tp976
Rp977
ag14
((lp978
I322
aI-317
aI-312
aI-311
aI-307
atp979
Rp980
ag14
((lp981
I321
atp982
Rp983
ag14
((lp984
tp985
Rp986
ag14
((lp987
tp988
Rp989
ag14
((lp990
tp991
Rp992
ag14
((lp993
tp994
Rp995
ag14
((lp996
I-321
aI-324
atp997
Rp998
ag14
((lp999
I329
aI330
atp1000
Rp1001
ag14
((lp1002
I328
aI330
atp1003
Rp1004
ag14
((lp1005
I328
aI329
atp1006
Rp1007
ag14
((lp1008
tp1009
Rp1010
ag14
((lp1011
tp1012
Rp1013
ag14
((lp1014
tp1015
Rp1016
ag14
((lp1017
tp1018
Rp1019
ag14
((lp1020
tp1021
Rp1022
ag14
((lp1023
tp1024
Rp1025
ag14
((lp1026
tp1027
Rp1028
ag14
((lp1029
tp1030
Rp1031
ag14
((lp1032
tp1033
Rp1034
ag14
((lp1035
tp1036
Rp1037
ag14
((lp1038
tp1039
Rp1040
ag14
((lp1041
tp1042
Rp1043
ag14
((lp1044
I-342
atp1045
Rp1046
ag14
((lp1047
tp1048
Rp1049
ag14
((lp1050
tp1051
Rp1052
ag14
((lp1053
tp1054
Rp1055
ag14
((lp1056
tp1057
Rp1058
ag14
((lp1059
tp1060
Rp1061
ag14
((lp1062
tp1063
Rp1064
ag14
((lp1065
I351
atp1066
Rp1067
ag14
((lp1068
I350
atp1069
Rp1070
ag14
((lp1071
tp1072
Rp1073
ag14
((lp1074
tp1075
Rp1076
ag14
((lp1077
tp1078
Rp1079
ag14
((lp1080
tp1081
Rp1082
ag14
((lp1083
tp1084
Rp1085
ag14
((lp1086
tp1087
Rp1088
ag14
((lp1089
tp1090
Rp1091
ag14
((lp1092
tp1093
Rp1094
ag14
((lp1095
tp1096
Rp1097
ag14
((lp1098
tp1099
Rp1100
ag14
((lp1101
tp1102
Rp1103
ag14
((lp1104
tp1105
Rp1106
ag14
((lp1107
I-360
atp1108
Rp1109
ag14
((lp1110
tp1111
Rp1112
ag14
((lp1113
I367
atp1114
Rp1115
ag14
((lp1116
I366
atp1117
Rp1118
ag14
((lp1119
tp1120
Rp1121
ag14
((lp1122
tp1123
Rp1124
ag14
((lp1125
tp1126
Rp1127
ag14
((lp1128
tp1129
Rp1130
ag14
((lp1131
tp1132
Rp1133
ag14
((lp1134
tp1135
Rp1136
ag14
((lp1137
tp1138
Rp1139
ag14
((lp1140
tp1141
Rp1142
ag14
((lp1143
tp1144
Rp1145
ag14
((lp1146
I-366
aI378
aI-374
atp1147
Rp1148
ag14
((lp1149
I377
aI-366
aI-374
atp1150
Rp1151
ag14
((lp1152
tp1153
Rp1154
ag14
((lp1155
tp1156
Rp1157
ag14
((lp1158
tp1159
Rp1160
ag14
((lp1161
tp1162
Rp1163
ag14
((lp1164
tp1165
Rp1166
ag14
((lp1167
tp1168
Rp1169
ag14
((lp1170
I386
aI389
aI390
atp1171
Rp1172
ag14
((lp1173
I385
aI387
aI389
aI390
atp1174
Rp1175
ag14
((lp1176
I386
aI389
aI390
atp1177
Rp1178
ag14
((lp1179
I390
atp1180
Rp1181
ag14
((lp1182
I385
aI386
aI387
aI390
atp1183
Rp1184
ag14
((lp1185
I385
aI386
aI387
aI388
aI389
aI391
aI392
atp1186
Rp1187
ag14
((lp1188
I392
aI390
atp1189
Rp1190
ag14
((lp1191
I390
aI391
atp1192
Rp1193
ag14
((lp1194
I394
atp1195
Rp1196
ag14
((lp1197
I393
atp1198
Rp1199
ag14
((lp1200
tp1201
Rp1202
ag14
((lp1203
tp1204
Rp1205
ag14
((lp1206
tp1207
Rp1208
ag14
((lp1209
I-381
atp1210
Rp1211
ag14
((lp1212
tp1213
Rp1214
ag14
((lp1215
tp1216
Rp1217
ag14
((lp1218
tp1219
Rp1220
ag14
((lp1221
tp1222
Rp1223
ag14
((lp1224
tp1225
Rp1226
ag14
((lp1227
tp1228
Rp1229
ag14
((lp1230
tp1231
Rp1232
ag14
((lp1233
tp1234
Rp1235
ag14
((lp1236
tp1237
Rp1238
ag14
((lp1239
tp1240
Rp1241
ag14
((lp1242
tp1243
Rp1244
ag14
((lp1245
tp1246
Rp1247
ag14
((lp1248
tp1249
Rp1250
ag14
((lp1251
tp1252
Rp1253
ag14
((lp1254
I414
atp1255
Rp1256
ag14
((lp1257
I413
atp1258
Rp1259
ag14
((lp1260
I-349
atp1261
Rp1262
ag14
((lp1263
tp1264
Rp1265
ag14
((lp1266
I-389
atp1267
Rp1268
ag14
((lp1269
tp1270
Rp1271
ag14
((lp1272
tp1273
Rp1274
ag14
((lp1275
tp1276
Rp1277
ag14
((lp1278
tp1279
Rp1280
ag14
((lp1281
tp1282
Rp1283
ag14
((lp1284
tp1285
Rp1286
ag14
((lp1287
I425
aI426
atp1288
Rp1289
ag14
((lp1290
I424
aI426
atp1291
Rp1292
ag14
((lp1293
I424
aI425
atp1294
Rp1295
ag14
((lp1296
tp1297
Rp1298
ag14
((lp1299
tp1300
Rp1301
ag14
((lp1302
tp1303
Rp1304
ag14
((lp1305
tp1306
Rp1307
ag14
((lp1308
tp1309
Rp1310
ag14
((lp1311
tp1312
Rp1313
ag14
((lp1314
tp1315
Rp1316
ag14
((lp1317
tp1318
Rp1319
ag14
((lp1320
tp1321
Rp1322
ag14
((lp1323
tp1324
Rp1325
ag14
((lp1326
tp1327
Rp1328
ag14
((lp1329
tp1330
Rp1331
ag14
((lp1332
tp1333
Rp1334
ag14
((lp1335
tp1336
Rp1337
ag14
((lp1338
I-439
atp1339
Rp1340
ag14
((lp1341
I443
atp1342
Rp1343
ag14
((lp1344
I442
aI444
atp1345
Rp1346
ag14
((lp1347
I443
atp1348
Rp1349
ag14
((lp1350
tp1351
Rp1352
ag14
((lp1353
tp1354
Rp1355
ag14
((lp1356
tp1357
Rp1358
ag14
((lp1359
tp1360
Rp1361
ag14
((lp1362
tp1363
Rp1364
ag14
((lp1365
tp1366
Rp1367
ag14
((lp1368
tp1369
Rp1370
ag14
((lp1371
tp1372
Rp1373
ag14
((lp1374
tp1375
Rp1376
ag14
((lp1377
tp1378
Rp1379
ag14
((lp1380
tp1381
Rp1382
ag14
((lp1383
tp1384
Rp1385
ag14
((lp1386
tp1387
Rp1388
ag14
((lp1389
tp1390
Rp1391
ag14
((lp1392
tp1393
Rp1394
ag14
((lp1395
tp1396
Rp1397
ag14
((lp1398
tp1399
Rp1400
ag14
((lp1401
tp1402
Rp1403
ag14
((lp1404
tp1405
Rp1406
ag14
((lp1407
tp1408
Rp1409
ag14
((lp1410
tp1411
Rp1412
ag14
((lp1413
tp1414
Rp1415
ag14
((lp1416
tp1417
Rp1418
ag14
((lp1419
tp1420
Rp1421
ag14
((lp1422
tp1423
Rp1424
ag14
((lp1425
I472
aI-453
atp1426
Rp1427
ag14
((lp1428
tp1429
Rp1430
ag14
((lp1431
I-453
aI470
atp1432
Rp1433
ag14
((lp1434
I474
atp1435
Rp1436
ag14
((lp1437
I473
atp1438
Rp1439
ag14
((lp1440
tp1441
Rp1442
ag14
((lp1443
tp1444
Rp1445
ag14
((lp1446
tp1447
Rp1448
ag14
((lp1449
tp1450
Rp1451
ag14
((lp1452
tp1453
Rp1454
ag14
((lp1455
I481
aI482
aI-477
aI483
atp1456
Rp1457
ag14
((lp1458
I480
aI482
aI-477
aI483
atp1459
Rp1460
ag14
((lp1461
I480
aI481
aI-477
aI483
atp1462
Rp1463
ag14
((lp1464
I480
aI481
aI482
aI-477
atp1465
Rp1466
ag14
((lp1467
tp1468
Rp1469
ag14
((lp1470
tp1471
Rp1472
ag14
((lp1473
tp1474
Rp1475
ag14
((lp1476
tp1477
Rp1478
ag14
((lp1479
tp1480
Rp1481
ag14
((lp1482
tp1483
Rp1484
ag14
((lp1485
tp1486
Rp1487
ag14
((lp1488
I492
atp1489
Rp1490
ag14
((lp1491
I491
atp1492
Rp1493
ag14
((lp1494
tp1495
Rp1496
ag14
((lp1497
tp1498
Rp1499
ag14
((lp1500
tp1501
Rp1502
ag14
((lp1503
tp1504
Rp1505
ag14
((lp1506
tp1507
Rp1508
ag14
((lp1509
tp1510
Rp1511
ag14
((lp1512
tp1513
Rp1514
ag14
((lp1515
tp1516
Rp1517
ag14
((lp1518
tp1519
Rp1520
ag14
((lp1521
tp1522
Rp1523
ag14
((lp1524
tp1525
Rp1526
ag14
((lp1527
tp1528
Rp1529
ag14
((lp1530
tp1531
Rp1532
ag14
((lp1533
tp1534
Rp1535
ag14
((lp1536
I-506
atp1537
Rp1538
ag14
((lp1539
tp1540
Rp1541
ag14
((lp1542
I510
atp1543
Rp1544
ag14
((lp1545
I509
atp1546
Rp1547
ag14
((lp1548
tp1549
Rp1550
ag14
((lp1551
I513
atp1552
Rp1553
ag14
((lp1554
I512
atp1555
Rp1556
ag14
((lp1557
tp1558
Rp1559
ag14
((lp1560
tp1561
Rp1562
ag14
((lp1563
I-504
aI-509
aI-507
aI-472
aI-514
aI-513
atp1564
Rp1565
ag14
((lp1566
I-510
aI-450
aI518
aI519
atp1567
Rp1568
ag14
((lp1569
I-510
aI-450
aI517
aI519
atp1570
Rp1571
ag14
((lp1572
I517
aI518
atp1573
Rp1574
ag14
((lp1575
tp1576
Rp1577
ag14
((lp1578
tp1579
Rp1580
ag14
((lp1581
tp1582
Rp1583
ag14
((lp1584
tp1585
Rp1586
ag14
((lp1587
tp1588
Rp1589
ag14
((lp1590
I-517
atp1591
Rp1592
ag14
((lp1593
tp1594
Rp1595
ag14
((lp1596
I528
aI-518
aI-525
atp1597
Rp1598
ag14
((lp1599
I-518
aI-525
aI527
atp1600
Rp1601
ag14
((lp1602
I-518
aI-525
atp1603
Rp1604
ag14
((lp1605
tp1606
Rp1607
ag14
((lp1608
I-527
aI532
aI-529
atp1609
Rp1610
ag14
((lp1611
I-528
aI-527
aI531
aI-529
atp1612
Rp1613
ag14
((lp1614
tp1615
Rp1616
ag14
((lp1617
tp1618
Rp1619
ag14
((lp1620
I536
atp1621
Rp1622
ag14
((lp1623
I537
aI535
atp1624
Rp1625
ag14
((lp1626
I536
atp1627
Rp1628
ag14
((lp1629
tp1630
Rp1631
ag14
((lp1632
I-536
aI-226
atp1633
Rp1634
ag14
((lp1635
I-539
atp1636
Rp1637
ag14
((lp1638
tp1639
Rp1640
ag14
((lp1641
tp1642
Rp1643
ag14
((lp1644
tp1645
Rp1646
ag14
((lp1647
I-496
atp1648
Rp1649
ag14
((lp1650
tp1651
Rp1652
ag14
((lp1653
I-543
aI547
aI548
aI-497
atp1654
Rp1655
ag14
((lp1656
I-543
aI546
aI548
aI-497
atp1657
Rp1658
ag14
((lp1659
I546
aI547
aI-497
atp1660
Rp1661
ag14
((lp1662
tp1663
Rp1664
ag14
((lp1665
tp1666
Rp1667
ag14
((lp1668
tp1669
Rp1670
ag14
((lp1671
tp1672
Rp1673
ag14
((lp1674
tp1675
Rp1676
ag14
((lp1677
tp1678
Rp1679
ag14
((lp1680
tp1681
Rp1682
ag14
((lp1683
tp1684
Rp1685
ag14
((lp1686
tp1687
Rp1688
ag14
((lp1689
tp1690
Rp1691
ag14
((lp1692
tp1693
Rp1694
ag14
((lp1695
tp1696
Rp1697
ag14
((lp1698
tp1699
Rp1700
ag14
((lp1701
tp1702
Rp1703
ag14
((lp1704
tp1705
Rp1706
ag14
((lp1707
tp1708
Rp1709
ag14
((lp1710
tp1711
Rp1712
ag14
((lp1713
tp1714
Rp1715
ag14
((lp1716
tp1717
Rp1718
ag14
((lp1719
tp1720
Rp1721
ag14
((lp1722
tp1723
Rp1724
ag14
((lp1725
tp1726
Rp1727
ag14
((lp1728
tp1729
Rp1730
ag14
((lp1731
tp1732
Rp1733
ag14
((lp1734
tp1735
Rp1736
ag14
((lp1737
tp1738
Rp1739
ag14
((lp1740
tp1741
Rp1742
ag14
((lp1743
tp1744
Rp1745
ag14
((lp1746
tp1747
Rp1748
ag14
((lp1749
tp1750
Rp1751
ag14
((lp1752
tp1753
Rp1754
ag14
((lp1755
tp1756
Rp1757
ag14
((lp1758
tp1759
Rp1760
ag14
((lp1761
tp1762
Rp1763
ag14
((lp1764
tp1765
Rp1766
ag14
((lp1767
tp1768
Rp1769
ag14
((lp1770
tp1771
Rp1772
ag14
((lp1773
tp1774
Rp1775
ag14
((lp1776
tp1777
Rp1778
ag14
((lp1779
tp1780
Rp1781
ag14
((lp1782
tp1783
Rp1784
ag14
((lp1785
tp1786
Rp1787
ag14
((lp1788
tp1789
Rp1790
ag14
((lp1791
tp1792
Rp1793
ag14
((lp1794
tp1795
Rp1796
ag14
((lp1797
I595
atp1798
Rp1799
ag14
((lp1800
I594
atp1801
Rp1802
ag14
((lp1803
tp1804
Rp1805
ag14
((lp1806
tp1807
Rp1808
ag14
((lp1809
tp1810
Rp1811
ag14
((lp1812
I600
atp1813
Rp1814
ag14
((lp1815
I599
atp1816
Rp1817
ag14
((lp1818
tp1819
Rp1820
ag14
((lp1821
I-599
atp1822
Rp1823
ag14
((lp1824
I-600
aI-602
aI-593
atp1825
Rp1826
ag14
((lp1827
tp1828
Rp1829
ag14
((lp1830
tp1831
Rp1832
ag14
((lp1833
I-156
atp1834
Rp1835
ag14
((lp1836
tp1837
Rp1838
ag14
((lp1839
I609
atp1840
Rp1841
ag14
((lp1842
I608
atp1843
Rp1844
ag14
((lp1845
tp1846
Rp1847
ag14
((lp1848
tp1849
Rp1850
ag14
((lp1851
I613
atp1852
Rp1853
ag14
((lp1854
I612
atp1855
Rp1856
ag14
((lp1857
tp1858
Rp1859
ag14
((lp1860
tp1861
Rp1862
ag14
((lp1863
tp1864
Rp1865
ag14
((lp1866
tp1867
Rp1868
ag14
((lp1869
tp1870
Rp1871
ag14
((lp1872
tp1873
Rp1874
ag14
((lp1875
tp1876
Rp1877
ag14
((lp1878
tp1879
Rp1880
ag14
((lp1881
I623
atp1882
Rp1883
ag14
((lp1884
I624
aI622
atp1885
Rp1886
ag14
((lp1887
I623
atp1888
Rp1889
ag14
((lp1890
tp1891
Rp1892
ag14
((lp1893
tp1894
Rp1895
ag14
((lp1896
I628
atp1897
Rp1898
ag14
((lp1899
I627
atp1900
Rp1901
ag14
((lp1902
tp1903
Rp1904
ag14
((lp1905
I631
atp1906
Rp1907
ag14
((lp1908
I630
atp1909
Rp1910
ag14
((lp1911
tp1912
Rp1913
ag14
((lp1914
tp1915
Rp1916
ag14
((lp1917
tp1918
Rp1919
ag14
((lp1920
tp1921
Rp1922
ag14
((lp1923
tp1924
Rp1925
ag14
((lp1926
tp1927
Rp1928
ag14
((lp1929
tp1930
Rp1931
ag14
((lp1932
tp1933
Rp1934
ag14
((lp1935
tp1936
Rp1937
ag14
((lp1938
tp1939
Rp1940
ag14
((lp1941
tp1942
Rp1943
ag14
((lp1944
tp1945
Rp1946
ag14
((lp1947
tp1948
Rp1949
ag14
((lp1950
tp1951
Rp1952
ag14
((lp1953
tp1954
Rp1955
ag14
((lp1956
tp1957
Rp1958
ag14
((lp1959
tp1960
Rp1961
ag14
((lp1962
tp1963
Rp1964
ag14
((lp1965
tp1966
Rp1967
ag14
((lp1968
tp1969
Rp1970
ag14
((lp1971
tp1972
Rp1973
ag14
((lp1974
tp1975
Rp1976
ag14
((lp1977
tp1978
Rp1979
ag14
((lp1980
tp1981
Rp1982
ag14
((lp1983
tp1984
Rp1985
ag14
((lp1986
tp1987
Rp1988
ag14
((lp1989
tp1990
Rp1991
ag14
((lp1992
tp1993
Rp1994
ag14
((lp1995
tp1996
Rp1997
ag14
((lp1998
tp1999
Rp2000
ag14
((lp2001
tp2002
Rp2003
ag14
((lp2004
tp2005
Rp2006
ag14
((lp2007
tp2008
Rp2009
ag14
((lp2010
tp2011
Rp2012
ag14
((lp2013
tp2014
Rp2015
ag14
((lp2016
tp2017
Rp2018
ag14
((lp2019
tp2020
Rp2021
ag14
((lp2022
tp2023
Rp2024
ag14
((lp2025
tp2026
Rp2027
ag14
((lp2028
tp2029
Rp2030
ag14
((lp2031
tp2032
Rp2033
ag14
((lp2034
tp2035
Rp2036
ag14
((lp2037
tp2038
Rp2039
ag14
((lp2040
tp2041
Rp2042
ag14
((lp2043
tp2044
Rp2045
ag14
((lp2046
tp2047
Rp2048
ag14
((lp2049
tp2050
Rp2051
ag14
((lp2052
I-672
aI680
atp2053
Rp2054
ag14
((lp2055
I-672
aI679
atp2056
Rp2057
ag14
((lp2058
tp2059
Rp2060
ag14
((lp2061
tp2062
Rp2063
ag14
((lp2064
tp2065
Rp2066
ag14
((lp2067
tp2068
Rp2069
ag14
((lp2070
tp2071
Rp2072
ag14
((lp2073
tp2074
Rp2075
ag14
((lp2076
tp2077
Rp2078
ag14
((lp2079
tp2080
Rp2081
ag14
((lp2082
tp2083
Rp2084
ag14
((lp2085
tp2086
Rp2087
ag14
((lp2088
tp2089
Rp2090
ag14
((lp2091
tp2092
Rp2093
ag14
((lp2094
tp2095
Rp2096
ag14
((lp2097
I695
atp2098
Rp2099
ag14
((lp2100
I694
atp2101
Rp2102
ag14
((lp2103
tp2104
Rp2105
ag14
((lp2106
tp2107
Rp2108
ag14
((lp2109
tp2110
Rp2111
ag14
((lp2112
tp2113
Rp2114
ag14
((lp2115
tp2116
Rp2117
ag14
((lp2118
tp2119
Rp2120
ag14
((lp2121
tp2122
Rp2123
ag14
((lp2124
tp2125
Rp2126
ag14
((lp2127
tp2128
Rp2129
ag14
((lp2130
tp2131
Rp2132
ag14
((lp2133
tp2134
Rp2135
ag14
((lp2136
I-688
atp2137
Rp2138
ag14
((lp2139
tp2140
Rp2141
ag14
((lp2142
tp2143
Rp2144
ag14
((lp2145
tp2146
Rp2147
ag14
((lp2148
tp2149
Rp2150
ag14
((lp2151
tp2152
Rp2153
ag14
((lp2154
tp2155
Rp2156
ag14
((lp2157
tp2158
Rp2159
ag14
((lp2160
tp2161
Rp2162
ag14
((lp2163
tp2164
Rp2165
ag14
((lp2166
tp2167
Rp2168
ag14
((lp2169
tp2170
Rp2171
ag14
((lp2172
tp2173
Rp2174
ag14
((lp2175
tp2176
Rp2177
ag14
((lp2178
tp2179
Rp2180
ag14
((lp2181
tp2182
Rp2183
ag14
((lp2184
tp2185
Rp2186
ag14
((lp2187
tp2188
Rp2189
ag14
((lp2190
tp2191
Rp2192
ag14
((lp2193
tp2194
Rp2195
ag14
((lp2196
tp2197
Rp2198
ag14
((lp2199
tp2200
Rp2201
ag14
((lp2202
tp2203
Rp2204
ag14
((lp2205
tp2206
Rp2207
ag14
((lp2208
tp2209
Rp2210
ag14
((lp2211
I733
atp2212
Rp2213
ag14
((lp2214
I732
atp2215
Rp2216
ag14
((lp2217
tp2218
Rp2219
ag14
((lp2220
I736
aI737
atp2221
Rp2222
ag14
((lp2223
I737
aI735
atp2224
Rp2225
ag14
((lp2226
I736
aI735
atp2227
Rp2228
ag14
((lp2229
tp2230
Rp2231
ag14
((lp2232
tp2233
Rp2234
ag14
((lp2235
I-735
aI-739
atp2236
Rp2237
ag14
((lp2238
tp2239
Rp2240
ag14
((lp2241
tp2242
Rp2243
ag14
((lp2244
tp2245
Rp2246
ag14
((lp2247
I-708
atp2248
Rp2249
ag14
((lp2250
tp2251
Rp2252
ag14
((lp2253
tp2254
Rp2255
ag14
((lp2256
tp2257
Rp2258
ag14
((lp2259
I-611
atp2260
Rp2261
ag14
((lp2262
tp2263
Rp2264
ag14
((lp2265
I751
atp2266
Rp2267
ag14
((lp2268
I750
atp2269
Rp2270
ag14
((lp2271
tp2272
Rp2273
ag14
((lp2274
tp2275
Rp2276
ag14
((lp2277
tp2278
Rp2279
ag14
((lp2280
tp2281
Rp2282
ag14
((lp2283
tp2284
Rp2285
ag14
((lp2286
tp2287
Rp2288
ag14
((lp2289
tp2290
Rp2291
ag14
((lp2292
tp2293
Rp2294
ag14
((lp2295
tp2296
Rp2297
ag14
((lp2298
I762
aI763
aI764
aI765
aI766
atp2299
Rp2300
ag14
((lp2301
I761
aI763
aI764
aI765
aI766
atp2302
Rp2303
ag14
((lp2304
I761
aI762
aI764
atp2305
Rp2306
ag14
((lp2307
I761
aI762
aI763
aI765
aI766
atp2308
Rp2309
ag14
((lp2310
I761
aI762
aI764
aI766
atp2311
Rp2312
ag14
((lp2313
I761
aI762
aI764
aI765
atp2314
Rp2315
ag14
((lp2316
tp2317
Rp2318
ag14
((lp2319
tp2320
Rp2321
ag14
((lp2322
tp2323
Rp2324
ag14
((lp2325
tp2326
Rp2327
ag14
((lp2328
tp2329
Rp2330
ag14
((lp2331
tp2332
Rp2333
ag14
((lp2334
tp2335
Rp2336
ag14
((lp2337
tp2338
Rp2339
ag14
((lp2340
tp2341
Rp2342
ag14
((lp2343
I777
aI-774
aI-765
atp2344
Rp2345
ag14
((lp2346
I776
aI-774
aI-765
atp2347
Rp2348
ag14
((lp2349
tp2350
Rp2351
ag14
((lp2352
tp2353
Rp2354
ag14
((lp2355
tp2356
Rp2357
ag14
((lp2358
tp2359
Rp2360
ag14
((lp2361
tp2362
Rp2363
ag14
((lp2364
tp2365
Rp2366
ag14
((lp2367
tp2368
Rp2369
ag14
((lp2370
tp2371
Rp2372
ag14
((lp2373
tp2374
Rp2375
ag14
((lp2376
tp2377
Rp2378
ag14
((lp2379
tp2380
Rp2381
ag14
((lp2382
tp2383
Rp2384
ag14
((lp2385
I-786
aI791
aI-779
aI-777
atp2386
Rp2387
ag14
((lp2388
I-786
aI-777
aI-779
aI790
atp2389
Rp2390
ag14
((lp2391
tp2392
Rp2393
ag14
((lp2394
tp2395
Rp2396
ag14
((lp2397
tp2398
Rp2399
ag14
((lp2400
tp2401
Rp2402
ag14
((lp2403
tp2404
Rp2405
ag14
((lp2406
I-793
atp2407
Rp2408
ag14
((lp2409
tp2410
Rp2411
ag14
((lp2412
tp2413
Rp2414
ag14
((lp2415
I-796
atp2416
Rp2417
ag14
((lp2418
tp2419
Rp2420
ag14
((lp2421
tp2422
Rp2423
ag14
((lp2424
tp2425
Rp2426
ag14
((lp2427
tp2428
Rp2429
ag14
((lp2430
tp2431
Rp2432
ag14
((lp2433
tp2434
Rp2435
ag14
((lp2436
tp2437
Rp2438
ag14
((lp2439
tp2440
Rp2441
ag14
((lp2442
tp2443
Rp2444
ag14
((lp2445
tp2446
Rp2447
ag14
((lp2448
tp2449
Rp2450
ag14
((lp2451
tp2452
Rp2453
ag14
((lp2454
I814
atp2455
Rp2456
ag14
((lp2457
I813
atp2458
Rp2459
ag14
((lp2460
tp2461
Rp2462
ag14
((lp2463
tp2464
Rp2465
ag14
((lp2466
tp2467
Rp2468
ag14
((lp2469
tp2470
Rp2471
ag14
((lp2472
tp2473
Rp2474
ag14
((lp2475
tp2476
Rp2477
ag14
((lp2478
tp2479
Rp2480
ag14
((lp2481
I-816
aI-798
atp2482
Rp2483
ag14
((lp2484
tp2485
Rp2486
ag14
((lp2487
tp2488
Rp2489
ag14
((lp2490
tp2491
Rp2492
ag14
((lp2493
tp2494
Rp2495
ag14
((lp2496
I829
atp2497
Rp2498
ag14
((lp2499
I829
aI830
atp2500
Rp2501
ag14
((lp2502
I827
aI828
aI830
atp2503
Rp2504
ag14
((lp2505
I828
aI829
atp2506
Rp2507
ag14
((lp2508
tp2509
Rp2510
ag14
((lp2511
tp2512
Rp2513
ag14
((lp2514
I834
aI835
aI-828
atp2515
Rp2516
ag14
((lp2517
I833
aI835
aI-828
atp2518
Rp2519
ag14
((lp2520
I833
aI834
aI-828
atp2521
Rp2522
ag14
((lp2523
tp2524
Rp2525
ag14
((lp2526
tp2527
Rp2528
ag14
((lp2529
tp2530
Rp2531
ag14
((lp2532
I840
aI841
aI843
atp2533
Rp2534
ag14
((lp2535
I841
aI843
aI839
atp2536
Rp2537
ag14
((lp2538
I840
aI843
aI839
atp2539
Rp2540
ag14
((lp2541
tp2542
Rp2543
ag14
((lp2544
I840
aI841
aI839
atp2545
Rp2546
ag14
((lp2547
tp2548
Rp2549
ag14
((lp2550
tp2551
Rp2552
ag14
((lp2553
tp2554
Rp2555
ag14
((lp2556
tp2557
Rp2558
ag14
((lp2559
tp2560
Rp2561
ag14
((lp2562
tp2563
Rp2564
ag14
((lp2565
I851
atp2566
Rp2567
ag14
((lp2568
I850
atp2569
Rp2570
ag14
((lp2571
I-841
atp2572
Rp2573
ag14
((lp2574
I854
aI855
atp2575
Rp2576
ag14
((lp2577
I853
aI855
atp2578
Rp2579
ag14
((lp2580
I853
aI854
atp2581
Rp2582
ag14
((lp2583
tp2584
Rp2585
ag14
((lp2586
I858
aI859
atp2587
Rp2588
ag14
((lp2589
I857
aI859
atp2590
Rp2591
ag14
((lp2592
I857
aI858
atp2593
Rp2594
ag14
((lp2595
tp2596
Rp2597
ag14
((lp2598
tp2599
Rp2600
ag14
((lp2601
tp2602
Rp2603
ag14
((lp2604
tp2605
Rp2606
ag14
((lp2607
tp2608
Rp2609
ag14
((lp2610
tp2611
Rp2612
ag14
((lp2613
tp2614
Rp2615
ag14
((lp2616
tp2617
Rp2618
ag14
((lp2619
tp2620
Rp2621
ag14
((lp2622
tp2623
Rp2624
ag14
((lp2625
tp2626
Rp2627
ag14
((lp2628
tp2629
Rp2630
ag14
((lp2631
tp2632
Rp2633
ag14
((lp2634
tp2635
Rp2636
ag14
((lp2637
I-872
atp2638
Rp2639
ag14
((lp2640
tp2641
Rp2642
ag14
((lp2643
tp2644
Rp2645
ag14
((lp2646
tp2647
Rp2648
ag14
((lp2649
tp2650
Rp2651
ag14
((lp2652
tp2653
Rp2654
ag14
((lp2655
tp2656
Rp2657
ag14
((lp2658
tp2659
Rp2660
ag14
((lp2661
tp2662
Rp2663
ag14
((lp2664
I884
aI885
atp2665
Rp2666
ag14
((lp2667
I883
aI885
atp2668
Rp2669
ag14
((lp2670
I883
aI884
atp2671
Rp2672
ag14
((lp2673
tp2674
Rp2675
ag14
((lp2676
tp2677
Rp2678
ag14
((lp2679
tp2680
Rp2681
ag14
((lp2682
tp2683
Rp2684
ag14
((lp2685
I891
atp2686
Rp2687
ag14
((lp2688
I890
aI892
atp2689
Rp2690
ag14
((lp2691
I891
atp2692
Rp2693
ag14
((lp2694
I-870
aI-876
aI-883
aI895
atp2695
Rp2696
ag14
((lp2697
tp2698
Rp2699
ag14
((lp2700
I-870
aI893
aI-883
atp2701
Rp2702
ag14
((lp2703
tp2704
Rp2705
ag14
((lp2706
tp2707
Rp2708
ag14
((lp2709
tp2710
Rp2711
ag14
((lp2712
I-895
atp2713
Rp2714
ag14
((lp2715
I-892
atp2716
Rp2717
ag14
((lp2718
tp2719
Rp2720
ag14
((lp2721
I-873
atp2722
Rp2723
ag14
((lp2724
tp2725
Rp2726
ag14
((lp2727
I-882
atp2728
Rp2729
ag14
((lp2730
tp2731
Rp2732
ag14
((lp2733
I907
aI909
atp2734
Rp2735
ag14
((lp2736
I906
aI909
atp2737
Rp2738
ag14
((lp2739
tp2740
Rp2741
ag14
((lp2742
I906
aI907
atp2743
Rp2744
ag14
((lp2745
I-568
atp2746
Rp2747
ag14
((lp2748
tp2749
Rp2750
ag14
((lp2751
tp2752
Rp2753
ag14
((lp2754
I914
aI916
atp2755
Rp2756
ag14
((lp2757
I913
aI916
atp2758
Rp2759
ag14
((lp2760
tp2761
Rp2762
ag14
((lp2763
I913
aI914
atp2764
Rp2765
ag14
((lp2766
I920
atp2767
Rp2768
ag14
((lp2769
tp2770
Rp2771
ag14
((lp2772
I-913
atp2773
Rp2774
ag14
((lp2775
I917
atp2776
Rp2777
ag14
((lp2778
tp2779
Rp2780
ag14
((lp2781
tp2782
Rp2783
ag14
((lp2784
I924
atp2785
Rp2786
ag14
((lp2787
I923
atp2788
Rp2789
ag14
((lp2790
tp2791
Rp2792
ag14
((lp2793
I928
aI929
aI-923
aI-922
aI927
atp2794
Rp2795
ag14
((lp2796
I928
aI929
aI-923
aI-922
aI926
atp2797
Rp2798
ag14
((lp2799
I929
aI-923
aI-922
aI926
aI927
atp2800
Rp2801
ag14
((lp2802
I928
aI-923
aI-922
aI926
aI927
atp2803
Rp2804
ag14
((lp2805
tp2806
Rp2807
ag14
((lp2808
tp2809
Rp2810
ag14
((lp2811
tp2812
Rp2813
ag14
((lp2814
tp2815
Rp2816
ag14
((lp2817
I-927
aI-933
aI935
atp2818
Rp2819
ag14
((lp2820
I-927
aI-933
aI934
atp2821
Rp2822
ag14
((lp2823
tp2824
Rp2825
ag14
((lp2826
tp2827
Rp2828
ag14
((lp2829
I-937
atp2830
Rp2831
ag14
((lp2832
tp2833
Rp2834
ag14
((lp2835
I-928
aI-916
aI-912
aI-939
aI-938
aI-934
aI-901
aI-930
atp2836
Rp2837
ag14
((lp2838
tp2839
Rp2840
ag14
((lp2841
tp2842
Rp2843
ag14
((lp2844
tp2845
Rp2846
ag14
((lp2847
tp2848
Rp2849
ag14
((lp2850
tp2851
Rp2852
ag14
((lp2853
tp2854
Rp2855
ag14
((lp2856
tp2857
Rp2858
ag14
((lp2859
tp2860
Rp2861
ag14
((lp2862
tp2863
Rp2864
ag14
((lp2865
tp2866
Rp2867
ag14
((lp2868
tp2869
Rp2870
ag14
((lp2871
tp2872
Rp2873
ag14
((lp2874
tp2875
Rp2876
ag14
((lp2877
tp2878
Rp2879
ag14
((lp2880
tp2881
Rp2882
ag14
((lp2883
I957
atp2884
Rp2885
ag14
((lp2886
I956
atp2887
Rp2888
ag14
((lp2889
tp2890
Rp2891
ag14
((lp2892
tp2893
Rp2894
ag14
((lp2895
tp2896
Rp2897
ag14
((lp2898
tp2899
Rp2900
ag14
((lp2901
tp2902
Rp2903
ag14
((lp2904
tp2905
Rp2906
ag14
((lp2907
tp2908
Rp2909
ag14
((lp2910
tp2911
Rp2912
ag14
((lp2913
tp2914
Rp2915
ag14
((lp2916
tp2917
Rp2918
ag14
((lp2919
I969
aI-966
aI-957
aI-946
atp2920
Rp2921
ag14
((lp2922
I968
aI-966
aI-946
atp2923
Rp2924
ag14
((lp2925
I-968
aI971
atp2926
Rp2927
ag14
((lp2928
I-968
aI970
atp2929
Rp2930
ag14
((lp2931
I973
atp2932
Rp2933
ag14
((lp2934
I972
atp2935
Rp2936
ag14
((lp2937
tp2938
Rp2939
ag14
((lp2940
tp2941
Rp2942
ag14
((lp2943
tp2944
Rp2945
ag14
((lp2946
tp2947
Rp2948
ag14
((lp2949
tp2950
Rp2951
ag14
((lp2952
tp2953
Rp2954
ag14
((lp2955
I981
atp2956
Rp2957
ag14
((lp2958
I984
aI980
atp2959
Rp2960
ag14
((lp2961
I985
aI986
aI987
aI983
atp2962
Rp2963
ag14
((lp2964
I985
aI986
aI982
atp2965
Rp2966
ag14
((lp2967
I981
atp2968
Rp2969
ag14
((lp2970
I986
aI987
aI982
aI983
atp2971
Rp2972
ag14
((lp2973
I985
aI982
aI983
atp2974
Rp2975
ag14
((lp2976
I985
aI982
atp2977
Rp2978
ag14
((lp2979
tp2980
Rp2981
ag14
((lp2982
tp2983
Rp2984
ag14
((lp2985
tp2986
Rp2987
ag14
((lp2988
tp2989
Rp2990
ag14
((lp2991
tp2992
Rp2993
ag14
((lp2994
tp2995
Rp2996
ag14
((lp2997
I-768
atp2998
Rp2999
ag14
((lp3000
tp3001
Rp3002
ag14
((lp3003
tp3004
Rp3005
ag14
((lp3006
tp3007
Rp3008
ag14
((lp3009
tp3010
Rp3011
ag14
((lp3012
tp3013
Rp3014
ag14
((lp3015
tp3016
Rp3017
ag14
((lp3018
tp3019
Rp3020
ag14
((lp3021
tp3022
Rp3023
ag14
((lp3024
tp3025
Rp3026
ag14
((lp3027
tp3028
Rp3029
ag14
((lp3030
tp3031
Rp3032
ag14
((lp3033
tp3034
Rp3035
ag14
((lp3036
tp3037
Rp3038
ag14
((lp3039
tp3040
Rp3041
ag14
((lp3042
tp3043
Rp3044
ag14
((lp3045
tp3046
Rp3047
ag14
((lp3048
tp3049
Rp3050
ag14
((lp3051
tp3052
Rp3053
ag14
((lp3054
tp3055
Rp3056
ag14
((lp3057
tp3058
Rp3059
ag14
((lp3060
tp3061
Rp3062
ag14
((lp3063
tp3064
Rp3065
ag14
((lp3066
tp3067
Rp3068
ag14
((lp3069
tp3070
Rp3071
ag14
((lp3072
tp3073
Rp3074
ag14
((lp3075
tp3076
Rp3077
ag14
((lp3078
I1022
atp3079
Rp3080
ag14
((lp3081
I1021
atp3082
Rp3083
ag14
((lp3084
tp3085
Rp3086
ag14
((lp3087
tp3088
Rp3089
ag14
((lp3090
tp3091
Rp3092
ag14
((lp3093
tp3094
Rp3095
ag14
((lp3096
tp3097
Rp3098
ag14
((lp3099
tp3100
Rp3101
ag14
((lp3102
tp3103
Rp3104
ag14
((lp3105
tp3106
Rp3107
ag14
((lp3108
tp3109
Rp3110
ag14
((lp3111
tp3112
Rp3113
ag14
((lp3114
tp3115
Rp3116
ag14
((lp3117
tp3118
Rp3119
ag14
((lp3120
tp3121
Rp3122
ag14
((lp3123
tp3124
Rp3125
ag14
((lp3126
tp3127
Rp3128
ag14
((lp3129
tp3130
Rp3131
ag14
((lp3132
tp3133
Rp3134
ag14
((lp3135
tp3136
Rp3137
ag14
((lp3138
tp3139
Rp3140
ag14
((lp3141
tp3142
Rp3143
ag14
((lp3144
tp3145
Rp3146
ag14
((lp3147
tp3148
Rp3149
ag14
((lp3150
tp3151
Rp3152
ag14
((lp3153
tp3154
Rp3155
ag14
((lp3156
tp3157
Rp3158
ag14
((lp3159
I1049
aI1050
aI1051
aI1052
atp3160
Rp3161
ag14
((lp3162
I1048
aI1050
aI1051
aI1052
atp3163
Rp3164
ag14
((lp3165
I1048
aI1049
aI1051
aI1052
atp3166
Rp3167
ag14
((lp3168
I1048
aI1049
aI1050
aI1052
atp3169
Rp3170
ag14
((lp3171
I1048
aI1049
aI1050
aI1051
atp3172
Rp3173
ag14
((lp3174
tp3175
Rp3176
ag14
((lp3177
I1056
aI-1048
aI1055
atp3178
Rp3179
ag14
((lp3180
I1056
aI-1048
aI1054
atp3181
Rp3182
ag14
((lp3183
I-1048
aI1054
aI1055
atp3184
Rp3185
ag14
((lp3186
tp3187
Rp3188
ag14
((lp3189
tp3190
Rp3191
ag14
((lp3192
tp3193
Rp3194
ag14
((lp3195
I1061
atp3196
Rp3197
ag14
((lp3198
I1060
atp3199
Rp3200
ag14
((lp3201
tp3202
Rp3203
ag14
((lp3204
I-1060
atp3205
Rp3206
ag14
((lp3207
I1065
atp3208
Rp3209
ag14
((lp3210
I1064
aI-1053
atp3211
Rp3212
ag14
((lp3213
tp3214
Rp3215
ag14
((lp3216
I-1066
atp3217
Rp3218
ag14
((lp3219
tp3220
Rp3221
ag14
((lp3222
tp3223
Rp3224
ag14
((lp3225
tp3226
Rp3227
ag14
((lp3228
tp3229
Rp3230
ag14
((lp3231
tp3232
Rp3233
ag14
((lp3234
tp3235
Rp3236
ag14
((lp3237
tp3238
Rp3239
ag14
((lp3240
I-1074
atp3241
Rp3242
ag14
((lp3243
tp3244
Rp3245
ag14
((lp3246
tp3247
Rp3248
ag14
((lp3249
tp3250
Rp3251
ag14
((lp3252
tp3253
Rp3254
ag14
((lp3255
tp3256
Rp3257
ag14
((lp3258
tp3259
Rp3260
ag14
((lp3261
tp3262
Rp3263
ag14
((lp3264
tp3265
Rp3266
ag14
((lp3267
tp3268
Rp3269
ag14
((lp3270
tp3271
Rp3272
ag14
((lp3273
tp3274
Rp3275
ag14
((lp3276
tp3277
Rp3278
ag14
((lp3279
tp3280
Rp3281
ag14
((lp3282
tp3283
Rp3284
ag14
((lp3285
tp3286
Rp3287
ag14
((lp3288
tp3289
Rp3290
ag14
((lp3291
tp3292
Rp3293
ag14
((lp3294
I-1087
atp3295
Rp3296
ag14
((lp3297
tp3298
Rp3299
ag14
((lp3300
I-1094
atp3301
Rp3302
ag14
((lp3303
tp3304
Rp3305
ag14
((lp3306
I1098
aI1099
atp3307
Rp3308
ag14
((lp3309
I1097
aI1099
atp3310
Rp3311
ag14
((lp3312
I1097
aI1098
atp3313
Rp3314
ag14
((lp3315
I1102
atp3316
Rp3317
ag14
((lp3318
I1102
atp3319
Rp3320
ag14
((lp3321
I1100
aI1101
atp3322
Rp3323
ag14
((lp3324
tp3325
Rp3326
ag14
((lp3327
tp3328
Rp3329
ag14
((lp3330
tp3331
Rp3332
ag14
((lp3333
tp3334
Rp3335
ag14
((lp3336
tp3337
Rp3338
ag14
((lp3339
tp3340
Rp3341
ag14
((lp3342
tp3343
Rp3344
ag14
((lp3345
tp3346
Rp3347
ag14
((lp3348
tp3349
Rp3350
ag14
((lp3351
tp3352
Rp3353
ag14
((lp3354
tp3355
Rp3356
ag14
((lp3357
I1115
atp3358
Rp3359
ag14
((lp3360
I1114
atp3361
Rp3362
ag14
((lp3363
tp3364
Rp3365
ag14
((lp3366
tp3367
Rp3368
ag14
((lp3369
tp3370
Rp3371
ag14
((lp3372
tp3373
Rp3374
ag14
((lp3375
I-1112
aI-1118
atp3376
Rp3377
ag14
((lp3378
tp3379
Rp3380
ag14
((lp3381
I1123
atp3382
Rp3383
ag14
((lp3384
I1122
atp3385
Rp3386
ag14
((lp3387
tp3388
Rp3389
ag14
((lp3390
tp3391
Rp3392
ag14
((lp3393
tp3394
Rp3395
ag14
((lp3396
tp3397
Rp3398
ag14
((lp3399
tp3400
Rp3401
ag14
((lp3402
I1130
atp3403
Rp3404
ag14
((lp3405
I1129
atp3406
Rp3407
ag14
((lp3408
tp3409
Rp3410
ag14
((lp3411
tp3412
Rp3413
ag14
((lp3414
tp3415
Rp3416
ag14
((lp3417
tp3418
Rp3419
ag14
((lp3420
tp3421
Rp3422
ag14
((lp3423
tp3424
Rp3425
ag14
((lp3426
tp3427
Rp3428
ag14
((lp3429
tp3430
Rp3431
ag14
((lp3432
tp3433
Rp3434
ag14
((lp3435
I1141
atp3436
Rp3437
ag14
((lp3438
I1140
atp3439
Rp3440
ag14
((lp3441
I1143
atp3442
Rp3443
ag14
((lp3444
I1142
atp3445
Rp3446
ag14
((lp3447
tp3448
Rp3449
ag14
((lp3450
tp3451
Rp3452
ag14
((lp3453
tp3454
Rp3455
ag14
((lp3456
tp3457
Rp3458
ag14
((lp3459
tp3460
Rp3461
ag14
((lp3462
tp3463
Rp3464
ag14
((lp3465
tp3466
Rp3467
ag14
((lp3468
tp3469
Rp3470
ag14
((lp3471
tp3472
Rp3473
ag14
((lp3474
tp3475
Rp3476
ag14
((lp3477
tp3478
Rp3479
ag14
((lp3480
I-1138
atp3481
Rp3482
ag14
((lp3483
tp3484
Rp3485
ag14
((lp3486
tp3487
Rp3488
ag14
((lp3489
tp3490
Rp3491
ag14
((lp3492
tp3493
Rp3494
ag14
((lp3495
tp3496
Rp3497
ag14
((lp3498
tp3499
Rp3500
ag14
((lp3501
tp3502
Rp3503
ag14
((lp3504
I-1159
aI-1161
atp3505
Rp3506
ag14
((lp3507
tp3508
Rp3509
ag14
((lp3510
tp3511
Rp3512
ag14
((lp3513
tp3514
Rp3515
ag14
((lp3516
I-1085
atp3517
Rp3518
ag14
((lp3519
tp3520
Rp3521
ag14
((lp3522
tp3523
Rp3524
ag14
((lp3525
tp3526
Rp3527
ag14
((lp3528
tp3529
Rp3530
ag14
((lp3531
tp3532
Rp3533
ag14
((lp3534
tp3535
Rp3536
ag14
((lp3537
tp3538
Rp3539
ag14
((lp3540
tp3541
Rp3542
ag14
((lp3543
tp3544
Rp3545
ag14
((lp3546
tp3547
Rp3548
ag14
((lp3549
I-1176
aI1179
atp3550
Rp3551
ag14
((lp3552
I-1176
aI1178
atp3553
Rp3554
ag14
((lp3555
I1184
aI1185
aI1186
aI1181
aI1182
aI1183
atp3556
Rp3557
ag14
((lp3558
I1184
aI1185
aI1186
aI1180
aI1182
aI1183
atp3559
Rp3560
ag14
((lp3561
I1184
aI1185
aI1186
aI1180
aI1181
aI1183
atp3562
Rp3563
ag14
((lp3564
I1184
aI1185
aI1186
aI1180
aI1181
aI1182
atp3565
Rp3566
ag14
((lp3567
I1185
aI1186
aI1180
aI1181
aI1182
aI1183
atp3568
Rp3569
ag14
((lp3570
I1184
aI1186
aI1180
aI1181
aI1182
aI1183
atp3571
Rp3572
ag14
((lp3573
I1184
aI1185
aI1180
aI1181
aI1182
aI1183
atp3574
Rp3575
ag14
((lp3576
tp3577
Rp3578
ag14
((lp3579
I-1181
aI-1178
atp3580
Rp3581
ag14
((lp3582
tp3583
Rp3584
ag14
((lp3585
tp3586
Rp3587
ag14
((lp3588
tp3589
Rp3590
ag14
((lp3591
tp3592
Rp3593
ag14
((lp3594
tp3595
Rp3596
ag14
((lp3597
tp3598
Rp3599
ag14
((lp3600
I-1185
atp3601
Rp3602
ag14
((lp3603
tp3604
Rp3605
ag14
((lp3606
tp3607
Rp3608
ag14
((lp3609
tp3610
Rp3611
ag14
((lp3612
tp3613
Rp3614
ag14
((lp3615
tp3616
Rp3617
ag14
((lp3618
tp3619
Rp3620
ag14
((lp3621
tp3622
Rp3623
ag14
((lp3624
tp3625
Rp3626
ag14
((lp3627
tp3628
Rp3629
ag14
((lp3630
tp3631
Rp3632
ag14
((lp3633
tp3634
Rp3635
ag14
((lp3636
tp3637
Rp3638
ag14
((lp3639
tp3640
Rp3641
ag14
((lp3642
tp3643
Rp3644
ag14
((lp3645
tp3646
Rp3647
ag14
((lp3648
tp3649
Rp3650
ag14
((lp3651
tp3652
Rp3653
ag14
((lp3654
tp3655
Rp3656
ag14
((lp3657
tp3658
Rp3659
ag14
((lp3660
tp3661
Rp3662
ag14
((lp3663
tp3664
Rp3665
ag14
((lp3666
tp3667
Rp3668
ag14
((lp3669
tp3670
Rp3671
ag14
((lp3672
tp3673
Rp3674
ag14
((lp3675
tp3676
Rp3677
ag14
((lp3678
tp3679
Rp3680
ag14
((lp3681
tp3682
Rp3683
ag14
((lp3684
tp3685
Rp3686
ag14
((lp3687
tp3688
Rp3689
ag14
((lp3690
tp3691
Rp3692
ag14
((lp3693
tp3694
Rp3695
ag14
((lp3696
tp3697
Rp3698
ag14
((lp3699
tp3700
Rp3701
ag14
((lp3702
tp3703
Rp3704
ag14
((lp3705
tp3706
Rp3707
ag14
((lp3708
tp3709
Rp3710
ag14
((lp3711
tp3712
Rp3713
ag14
((lp3714
tp3715
Rp3716
ag14
((lp3717
tp3718
Rp3719
ag14
((lp3720
tp3721
Rp3722
ag14
((lp3723
tp3724
Rp3725
ag14
((lp3726
I-1233
atp3727
Rp3728
ag14
((lp3729
tp3730
Rp3731
ag14
((lp3732
tp3733
Rp3734
ag14
((lp3735
tp3736
Rp3737
ag14
((lp3738
tp3739
Rp3740
ag14
((lp3741
tp3742
Rp3743
ag14
((lp3744
tp3745
Rp3746
ag14
((lp3747
tp3748
Rp3749
ag14
((lp3750
tp3751
Rp3752
ag14
((lp3753
tp3754
Rp3755
ag14
((lp3756
tp3757
Rp3758
ag14
((lp3759
tp3760
Rp3761
ag14
((lp3762
tp3763
Rp3764
ag14
((lp3765
tp3766
Rp3767
ag14
((lp3768
tp3769
Rp3770
ag14
((lp3771
tp3772
Rp3773
ag14
((lp3774
tp3775
Rp3776
ag14
((lp3777
I-1251
atp3778
Rp3779
ag14
((lp3780
tp3781
Rp3782
ag14
((lp3783
tp3784
Rp3785
ag14
((lp3786
tp3787
Rp3788
ag14
((lp3789
tp3790
Rp3791
ag14
((lp3792
tp3793
Rp3794
ag14
((lp3795
tp3796
Rp3797
ag14
((lp3798
tp3799
Rp3800
ag14
((lp3801
tp3802
Rp3803
ag14
((lp3804
tp3805
Rp3806
ag14
((lp3807
tp3808
Rp3809
ag14
((lp3810
tp3811
Rp3812
ag14
((lp3813
tp3814
Rp3815
ag14
((lp3816
tp3817
Rp3818
ag14
((lp3819
tp3820
Rp3821
ag14
((lp3822
tp3823
Rp3824
ag14
((lp3825
tp3826
Rp3827
ag14
((lp3828
tp3829
Rp3830
ag14
((lp3831
tp3832
Rp3833
ag14
((lp3834
tp3835
Rp3836
ag14
((lp3837
tp3838
Rp3839
ag14
((lp3840
I1276
atp3841
Rp3842
ag14
((lp3843
I1275
atp3844
Rp3845
ag14
((lp3846
tp3847
Rp3848
ag14
((lp3849
tp3850
Rp3851
ag14
((lp3852
tp3853
Rp3854
ag14
((lp3855
I-1279
atp3856
Rp3857
ag14
((lp3858
tp3859
Rp3860
ag14
((lp3861
tp3862
Rp3863
ag14
((lp3864
tp3865
Rp3866
ag14
((lp3867
tp3868
Rp3869
ag14
((lp3870
tp3871
Rp3872
ag14
((lp3873
tp3874
Rp3875
ag14
((lp3876
tp3877
Rp3878
ag14
((lp3879
tp3880
Rp3881
ag14
((lp3882
tp3883
Rp3884
ag14
((lp3885
tp3886
Rp3887
ag14
((lp3888
tp3889
Rp3890
ag14
((lp3891
tp3892
Rp3893
ag14
((lp3894
tp3895
Rp3896
ag14
((lp3897
tp3898
Rp3899
ag14
((lp3900
tp3901
Rp3902
ag14
((lp3903
tp3904
Rp3905
ag14
((lp3906
tp3907
Rp3908
ag14
((lp3909
tp3910
Rp3911
ag14
((lp3912
tp3913
Rp3914
ag14
((lp3915
tp3916
Rp3917
ag14
((lp3918
tp3919
Rp3920
ag14
((lp3921
tp3922
Rp3923
ag14
((lp3924
tp3925
Rp3926
ag14
((lp3927
tp3928
Rp3929
ag14
((lp3930
tp3931
Rp3932
ag14
((lp3933
tp3934
Rp3935
ag14
((lp3936
tp3937
Rp3938
ag14
((lp3939
tp3940
Rp3941
ag14
((lp3942
tp3943
Rp3944
ag14
((lp3945
tp3946
Rp3947
ag14
((lp3948
tp3949
Rp3950
ag14
((lp3951
tp3952
Rp3953
ag14
((lp3954
tp3955
Rp3956
ag14
((lp3957
tp3958
Rp3959
ag14
((lp3960
tp3961
Rp3962
ag14
((lp3963
tp3964
Rp3965
ag14
((lp3966
tp3967
Rp3968
ag14
((lp3969
tp3970
Rp3971
ag14
((lp3972
tp3973
Rp3974
ag14
((lp3975
tp3976
Rp3977
ag14
((lp3978
tp3979
Rp3980
ag14
((lp3981
tp3982
Rp3983
ag14
((lp3984
tp3985
Rp3986
ag14
((lp3987
tp3988
Rp3989
ag14
((lp3990
tp3991
Rp3992
ag14
((lp3993
tp3994
Rp3995
ag14
((lp3996
tp3997
Rp3998
ag14
((lp3999
tp4000
Rp4001
ag14
((lp4002
tp4003
Rp4004
ag14
((lp4005
tp4006
Rp4007
ag14
((lp4008
tp4009
Rp4010
ag14
((lp4011
tp4012
Rp4013
ag14
((lp4014
tp4015
Rp4016
ag14
((lp4017
I1336
atp4018
Rp4019
ag14
((lp4020
tp4021
Rp4022
ag14
((lp4023
I1334
atp4024
Rp4025
ag14
((lp4026
I1338
aI1339
atp4027
Rp4028
ag14
((lp4029
I1337
aI1339
atp4030
Rp4031
ag14
((lp4032
I1337
aI1338
atp4033
Rp4034
ag14
((lp4035
tp4036
Rp4037
ag14
((lp4038
tp4039
Rp4040
ag14
((lp4041
tp4042
Rp4043
ag14
((lp4044
tp4045
Rp4046
ag14
((lp4047
tp4048
Rp4049
ag14
((lp4050
tp4051
Rp4052
ag14
((lp4053
tp4054
Rp4055
ag14
((lp4056
tp4057
Rp4058
ag14
((lp4059
tp4060
Rp4061
ag14
((lp4062
tp4063
Rp4064
ag14
((lp4065
tp4066
Rp4067
ag14
((lp4068
tp4069
Rp4070
ag14
((lp4071
I1353
aI1354
atp4072
Rp4073
ag14
((lp4074
I1352
aI1354
atp4075
Rp4076
ag14
((lp4077
I1352
aI1353
atp4078
Rp4079
ag14
((lp4080
tp4081
Rp4082
ag14
((lp4083
tp4084
Rp4085
ag14
((lp4086
tp4087
Rp4088
ag14
((lp4089
tp4090
Rp4091
ag14
((lp4092
I-1354
atp4093
Rp4094
ag14
((lp4095
tp4096
Rp4097
ag14
((lp4098
tp4099
Rp4100
ag14
((lp4101
tp4102
Rp4103
ag14
((lp4104
tp4105
Rp4106
ag14
((lp4107
tp4108
Rp4109
ag14
((lp4110
tp4111
Rp4112
ag14
((lp4113
tp4114
Rp4115
ag14
((lp4116
tp4117
Rp4118
ag14
((lp4119
tp4120
Rp4121
ag14
((lp4122
tp4123
Rp4124
ag14
((lp4125
I1371
aI1373
aI1374
atp4126
Rp4127
ag14
((lp4128
I1370
aI1372
aI1373
aI1374
atp4129
Rp4130
ag14
((lp4131
I1371
atp4132
Rp4133
ag14
((lp4134
I1370
aI1371
aI1374
atp4135
Rp4136
ag14
((lp4137
I1370
aI1371
aI1373
atp4138
Rp4139
ag14
((lp4140
tp4141
Rp4142
ag14
((lp4143
tp4144
Rp4145
ag14
((lp4146
tp4147
Rp4148
ag14
((lp4149
tp4150
Rp4151
ag14
((lp4152
tp4153
Rp4154
ag14
((lp4155
tp4156
Rp4157
ag14
((lp4158
tp4159
Rp4160
ag14
((lp4161
I-1376
aI-1371
aI-1369
atp4162
Rp4163
ag14
((lp4164
tp4165
Rp4166
ag14
((lp4167
I-1372
atp4168
Rp4169
ag14
((lp4170
I1386
atp4171
Rp4172
ag14
((lp4173
I1385
atp4174
Rp4175
ag14
((lp4176
tp4177
Rp4178
ag14
((lp4179
tp4180
Rp4181
ag14
((lp4182
tp4183
Rp4184
ag14
((lp4185
tp4186
Rp4187
ag14
((lp4188
tp4189
Rp4190
ag14
((lp4191
tp4192
Rp4193
ag14
((lp4194
tp4195
Rp4196
ag14
((lp4197
I1395
atp4198
Rp4199
ag14
((lp4200
I1394
atp4201
Rp4202
ag14
((lp4203
tp4204
Rp4205
ag14
((lp4206
tp4207
Rp4208
ag14
((lp4209
tp4210
Rp4211
ag14
((lp4212
I1400
aI-1393
atp4213
Rp4214
ag14
((lp4215
I-1393
aI1399
atp4216
Rp4217
ag14
((lp4218
tp4219
Rp4220
ag14
((lp4221
tp4222
Rp4223
ag14
((lp4224
tp4225
Rp4226
ag14
((lp4227
tp4228
Rp4229
ag14
((lp4230
tp4231
Rp4232
ag14
((lp4233
I-1400
atp4234
Rp4235
ag14
((lp4236
tp4237
Rp4238
ag14
((lp4239
I-1405
atp4240
Rp4241
ag14
((lp4242
tp4243
Rp4244
ag14
((lp4245
tp4246
Rp4247
ag14
((lp4248
tp4249
Rp4250
ag14
((lp4251
tp4252
Rp4253
ag14
((lp4254
tp4255
Rp4256
ag14
((lp4257
tp4258
Rp4259
ag14
((lp4260
tp4261
Rp4262
ag14
((lp4263
tp4264
Rp4265
ag14
((lp4266
tp4267
Rp4268
ag14
((lp4269
tp4270
Rp4271
ag14
((lp4272
tp4273
Rp4274
ag14
((lp4275
tp4276
Rp4277
ag14
((lp4278
tp4279
Rp4280
ag14
((lp4281
tp4282
Rp4283
ag14
((lp4284
tp4285
Rp4286
ag14
((lp4287
tp4288
Rp4289
ag14
((lp4290
tp4291
Rp4292
ag14
((lp4293
tp4294
Rp4295
ag14
((lp4296
tp4297
Rp4298
ag14
((lp4299
tp4300
Rp4301
ag14
((lp4302
tp4303
Rp4304
ag14
((lp4305
tp4306
Rp4307
ag14
((lp4308
tp4309
Rp4310
ag14
((lp4311
tp4312
Rp4313
ag14
((lp4314
tp4315
Rp4316
ag14
((lp4317
tp4318
Rp4319
ag14
((lp4320
tp4321
Rp4322
ag14
((lp4323
tp4324
Rp4325
ag14
((lp4326
tp4327
Rp4328
ag14
((lp4329
tp4330
Rp4331
ag14
((lp4332
tp4333
Rp4334
ag14
((lp4335
I-1423
atp4336
Rp4337
ag14
((lp4338
I-1439
atp4339
Rp4340
ag14
((lp4341
tp4342
Rp4343
ag14
((lp4344
tp4345
Rp4346
ag14
((lp4347
tp4348
Rp4349
ag14
((lp4350
tp4351
Rp4352
ag14
((lp4353
tp4354
Rp4355
ag14
((lp4356
tp4357
Rp4358
ag14
((lp4359
tp4360
Rp4361
ag14
((lp4362
tp4363
Rp4364
ag14
((lp4365
tp4366
Rp4367
ag14
((lp4368
tp4369
Rp4370
ag14
((lp4371
tp4372
Rp4373
ag14
((lp4374
tp4375
Rp4376
ag14
((lp4377
I1457
aI1459
atp4378
Rp4379
ag14
((lp4380
I1458
aI1460
atp4381
Rp4382
ag14
((lp4383
tp4384
Rp4385
ag14
((lp4386
I1459
aI1454
atp4387
Rp4388
ag14
((lp4389
I1460
aI1455
atp4390
Rp4391
ag14
((lp4392
I1457
aI1454
atp4393
Rp4394
ag14
((lp4395
I1458
aI1455
atp4396
Rp4397
ag14
((lp4398
I1464
aI1462
aI1463
atp4399
Rp4400
ag14
((lp4401
I1464
aI1466
aI1461
aI1463
atp4402
Rp4403
ag14
((lp4404
I1464
aI1466
aI1461
aI1462
atp4405
Rp4406
ag14
((lp4407
I1461
aI1462
aI1463
atp4408
Rp4409
ag14
((lp4410
tp4411
Rp4412
ag14
((lp4413
I1462
aI1463
atp4414
Rp4415
ag14
((lp4416
tp4417
Rp4418
ag14
((lp4419
tp4420
Rp4421
ag14
((lp4422
tp4423
Rp4424
ag14
((lp4425
tp4426
Rp4427
ag14
((lp4428
I-1470
atp4429
Rp4430
ag14
((lp4431
tp4432
Rp4433
ag14
((lp4434
tp4435
Rp4436
ag14
((lp4437
tp4438
Rp4439
ag14
((lp4440
tp4441
Rp4442
ag14
((lp4443
tp4444
Rp4445
ag14
((lp4446
tp4447
Rp4448
ag14
((lp4449
tp4450
Rp4451
ag14
((lp4452
tp4453
Rp4454
ag14
((lp4455
tp4456
Rp4457
ag14
((lp4458
tp4459
Rp4460
ag14
((lp4461
tp4462
Rp4463
ag14
((lp4464
tp4465
Rp4466
ag14
((lp4467
tp4468
Rp4469
ag14
((lp4470
tp4471
Rp4472
ag14
((lp4473
tp4474
Rp4475
ag14
((lp4476
I1488
atp4477
Rp4478
ag14
((lp4479
I1487
atp4480
Rp4481
ag14
((lp4482
tp4483
Rp4484
ag14
((lp4485
I-1489
aI-1487
aI1491
aI1492
aI1493
aI1494
aI1495
aI1497
atp4486
Rp4487
ag14
((lp4488
I-1487
aI1490
aI1492
aI1493
aI1494
aI1495
atp4489
Rp4490
ag14
((lp4491
I-1489
aI-1487
aI1490
aI1491
aI1493
aI1494
aI1495
aI1496
aI1497
aI1498
aI1499
atp4492
Rp4493
ag14
((lp4494
I-1489
aI-1487
aI1490
aI1491
aI1492
aI1494
aI1495
aI1497
atp4495
Rp4496
ag14
((lp4497
I-1489
aI-1487
aI1490
aI1491
aI1492
aI1493
aI1495
aI1497
aI1498
aI1499
atp4498
Rp4499
ag14
((lp4500
I-1487
aI1490
aI1491
aI1492
aI1493
aI1494
atp4501
Rp4502
ag14
((lp4503
I1498
aI1499
aI1492
atp4504
Rp4505
ag14
((lp4506
I-1489
aI-1487
aI1490
aI1492
aI1493
aI1494
aI1498
atp4507
Rp4508
ag14
((lp4509
I-1489
aI-1487
aI1492
aI1494
aI1496
aI1497
aI1499
atp4510
Rp4511
ag14
((lp4512
I1496
aI1498
aI1492
aI1494
atp4513
Rp4514
ag14
((lp4515
tp4516
Rp4517
ag14
((lp4518
I-1488
aI-1492
atp4519
Rp4520
ag14
((lp4521
I1504
aI1503
atp4522
Rp4523
ag14
((lp4524
I1504
aI1502
atp4525
Rp4526
ag14
((lp4527
I1502
aI1503
atp4528
Rp4529
ag14
((lp4530
tp4531
Rp4532
ag14
((lp4533
tp4534
Rp4535
ag14
((lp4536
tp4537
Rp4538
ag14
((lp4539
tp4540
Rp4541
ag14
((lp4542
tp4543
Rp4544
ag14
((lp4545
tp4546
Rp4547
ag14
((lp4548
tp4549
Rp4550
ag14
((lp4551
tp4552
Rp4553
ag14
((lp4554
tp4555
Rp4556
ag14
((lp4557
tp4558
Rp4559
ag14
((lp4560
tp4561
Rp4562
ag14
((lp4563
I-1515
atp4564
Rp4565
ag14
((lp4566
I-1508
atp4567
Rp4568
ag14
((lp4569
I1520
aI1524
aI1525
aI1528
aI1519
atp4570
Rp4571
ag14
((lp4572
I1520
aI1524
aI1525
aI1528
aI1518
atp4573
Rp4574
ag14
((lp4575
I1524
aI1525
aI1527
aI1528
aI1518
aI1519
atp4576
Rp4577
ag14
((lp4578
I1527
atp4579
Rp4580
ag14
((lp4581
I1529
aI1523
aI1526
atp4582
Rp4583
ag14
((lp4584
I1529
aI1522
aI1526
atp4585
Rp4586
ag14
((lp4587
I1520
aI1525
aI1528
aI1518
aI1519
atp4588
Rp4589
ag14
((lp4590
I1520
aI1524
aI1528
aI1518
aI1519
atp4591
Rp4592
ag14
((lp4593
I1529
aI1522
aI1523
atp4594
Rp4595
ag14
((lp4596
I1520
aI1521
atp4597
Rp4598
ag14
((lp4599
I1520
aI1524
aI1525
aI1518
aI1519
atp4600
Rp4601
ag14
((lp4602
I1522
aI1523
aI1526
atp4603
Rp4604
ag14
((lp4605
tp4606
Rp4607
ag14
((lp4608
tp4609
Rp4610
ag14
((lp4611
tp4612
Rp4613
ag14
((lp4614
tp4615
Rp4616
ag14
((lp4617
tp4618
Rp4619
ag14
((lp4620
I-1525
aI-1524
aI-1522
atp4621
Rp4622
ag14
((lp4623
I1537
atp4624
Rp4625
ag14
((lp4626
I1536
atp4627
Rp4628
ag14
((lp4629
tp4630
Rp4631
ag14
((lp4632
tp4633
Rp4634
ag14
((lp4635
tp4636
Rp4637
ag14
((lp4638
tp4639
Rp4640
ag14
((lp4641
tp4642
Rp4643
ag14
((lp4644
tp4645
Rp4646
ag14
((lp4647
tp4648
Rp4649
ag14
((lp4650
tp4651
Rp4652
ag14
((lp4653
tp4654
Rp4655
ag14
((lp4656
tp4657
Rp4658
ag14
((lp4659
tp4660
Rp4661
ag14
((lp4662
tp4663
Rp4664
ag14
((lp4665
tp4666
Rp4667
ag14
((lp4668
tp4669
Rp4670
ag14
((lp4671
tp4672
Rp4673
ag14
((lp4674
tp4675
Rp4676
ag14
((lp4677
tp4678
Rp4679
ag14
((lp4680
tp4681
Rp4682
ag14
((lp4683
tp4684
Rp4685
ag14
((lp4686
tp4687
Rp4688
ag14
((lp4689
tp4690
Rp4691
ag14
((lp4692
tp4693
Rp4694
ag14
((lp4695
tp4696
Rp4697
ag14
((lp4698
tp4699
Rp4700
ag14
((lp4701
tp4702
Rp4703
ag14
((lp4704
tp4705
Rp4706
ag14
((lp4707
tp4708
Rp4709
ag14
((lp4710
I-1564
atp4711
Rp4712
ag14
((lp4713
tp4714
Rp4715
ag14
((lp4716
tp4717
Rp4718
ag14
((lp4719
tp4720
Rp4721
ag14
((lp4722
tp4723
Rp4724
ag14
((lp4725
tp4726
Rp4727
ag14
((lp4728
tp4729
Rp4730
ag14
((lp4731
I-1256
atp4732
Rp4733
ag14
((lp4734
I1574
aI1575
atp4735
Rp4736
ag14
((lp4737
I1573
aI1575
atp4738
Rp4739
ag14
((lp4740
I1573
aI1574
atp4741
Rp4742
ag14
((lp4743
tp4744
Rp4745
ag14
((lp4746
tp4747
Rp4748
ag14
((lp4749
I-1575
atp4750
Rp4751
ag14
((lp4752
tp4753
Rp4754
ag14
((lp4755
tp4756
Rp4757
ag14
((lp4758
I-1579
aI1582
atp4759
Rp4760
ag14
((lp4761
I-1579
aI1581
atp4762
Rp4763
ag14
((lp4764
tp4765
Rp4766
ag14
((lp4767
tp4768
Rp4769
ag14
((lp4770
tp4771
Rp4772
ag14
((lp4773
tp4774
Rp4775
ag14
((lp4776
tp4777
Rp4778
ag14
((lp4779
tp4780
Rp4781
ag14
((lp4782
tp4783
Rp4784
ag14
((lp4785
tp4786
Rp4787
ag14
((lp4788
tp4789
Rp4790
ag14
((lp4791
tp4792
Rp4793
ag14
((lp4794
tp4795
Rp4796
ag14
((lp4797
tp4798
Rp4799
ag14
((lp4800
tp4801
Rp4802
ag14
((lp4803
tp4804
Rp4805
ag14
((lp4806
tp4807
Rp4808
ag14
((lp4809
tp4810
Rp4811
ag14
((lp4812
tp4813
Rp4814
ag14
((lp4815
tp4816
Rp4817
ag14
((lp4818
tp4819
Rp4820
ag14
((lp4821
tp4822
Rp4823
ag14
((lp4824
tp4825
Rp4826
ag14
((lp4827
tp4828
Rp4829
ag14
((lp4830
I-1602
atp4831
Rp4832
ag14
((lp4833
I-1604
aI-1602
atp4834
Rp4835
ag14
((lp4836
tp4837
Rp4838
ag14
((lp4839
I1609
atp4840
Rp4841
ag14
((lp4842
I1608
atp4843
Rp4844
ag14
((lp4845
tp4846
Rp4847
ag14
((lp4848
tp4849
Rp4850
ag14
((lp4851
tp4852
Rp4853
ag14
((lp4854
tp4855
Rp4856
ag14
((lp4857
I-1104
atp4858
Rp4859
ag14
((lp4860
I-1608
aI-1614
aI-1605
atp4861
Rp4862
ag14
((lp4863
tp4864
Rp4865
ag14
((lp4866
I-1600
aI1618
aI1619
aI1620
atp4867
Rp4868
ag14
((lp4869
I-1600
aI1617
aI1619
aI1620
atp4870
Rp4871
ag14
((lp4872
I-1600
aI1617
aI1618
aI1620
atp4873
Rp4874
ag14
((lp4875
I-1600
aI1617
aI1618
aI1619
atp4876
Rp4877
ag14
((lp4878
tp4879
Rp4880
ag14
((lp4881
tp4882
Rp4883
ag14
((lp4884
I1624
atp4885
Rp4886
ag14
((lp4887
I1623
atp4888
Rp4889
ag14
((lp4890
I-1618
atp4891
Rp4892
ag14
((lp4893
tp4894
Rp4895
ag14
((lp4896
tp4897
Rp4898
ag14
((lp4899
tp4900
Rp4901
ag14
((lp4902
tp4903
Rp4904
ag14
((lp4905
tp4906
Rp4907
ag14
((lp4908
tp4909
Rp4910
ag14
((lp4911
tp4912
Rp4913
ag14
((lp4914
tp4915
Rp4916
ag14
((lp4917
tp4918
Rp4919
ag14
((lp4920
tp4921
Rp4922
ag14
((lp4923
tp4924
Rp4925
ag14
((lp4926
tp4927
Rp4928
ag14
((lp4929
I1639
atp4930
Rp4931
ag14
((lp4932
I1638
atp4933
Rp4934
ag14
((lp4935
tp4936
Rp4937
ag14
((lp4938
tp4939
Rp4940
ag14
((lp4941
I-1641
atp4942
Rp4943
ag14
((lp4944
I-1641
atp4945
Rp4946
ag14
((lp4947
I1645
aI1646
aI1647
atp4948
Rp4949
ag14
((lp4950
I1648
aI1644
aI1646
aI1647
atp4951
Rp4952
ag14
((lp4953
I1648
aI1644
aI1645
aI1647
atp4954
Rp4955
ag14
((lp4956
I1648
aI1644
aI1645
aI1646
atp4957
Rp4958
ag14
((lp4959
I1645
aI1646
aI1647
atp4960
Rp4961
ag14
((lp4962
tp4963
Rp4964
ag14
((lp4965
tp4966
Rp4967
ag14
((lp4968
tp4969
Rp4970
ag14
((lp4971
I1653
atp4972
Rp4973
ag14
((lp4974
I1652
atp4975
Rp4976
ag14
((lp4977
tp4978
Rp4979
ag14
((lp4980
tp4981
Rp4982
ag14
((lp4983
tp4984
Rp4985
ag14
((lp4986
tp4987
Rp4988
ag14
((lp4989
tp4990
Rp4991
ag14
((lp4992
I1660
aI-1356
atp4993
Rp4994
ag14
((lp4995
I-1356
aI1659
atp4996
Rp4997
ag14
((lp4998
tp4999
Rp5000
ag14
((lp5001
I1663
atp5002
Rp5003
ag14
((lp5004
I-1387
aI1662
atp5005
Rp5006
ag14
((lp5007
I-1662
atp5008
Rp5009
ag14
((lp5010
tp5011
Rp5012
ag14
((lp5013
tp5014
Rp5015
ag14
((lp5016
tp5017
Rp5018
ag14
((lp5019
tp5020
Rp5021
ag14
((lp5022
tp5023
Rp5024
ag14
((lp5025
tp5026
Rp5027
ag14
((lp5028
tp5029
Rp5030
ag14
((lp5031
tp5032
Rp5033
ag14
((lp5034
tp5035
Rp5036
ag14
((lp5037
tp5038
Rp5039
ag14
((lp5040
tp5041
Rp5042
ag14
((lp5043
tp5044
Rp5045
ag14
((lp5046
tp5047
Rp5048
ag14
((lp5049
tp5050
Rp5051
ag14
((lp5052
tp5053
Rp5054
ag14
((lp5055
tp5056
Rp5057
ag14
((lp5058
I-1666
aI-1674
atp5059
Rp5060
ag14
((lp5061
I-1681
atp5062
Rp5063
ag14
((lp5064
tp5065
Rp5066
ag14
((lp5067
I1685
aI1686
aI1687
atp5068
Rp5069
ag14
((lp5070
I1684
aI1686
aI1687
atp5071
Rp5072
ag14
((lp5073
I1684
aI1685
aI1687
atp5074
Rp5075
ag14
((lp5076
I1688
aI1684
aI1685
aI1686
atp5077
Rp5078
ag14
((lp5079
I1687
atp5080
Rp5081
ag14
((lp5082
I-1684
atp5083
Rp5084
ag14
((lp5085
I-1683
atp5086
Rp5087
ag14
((lp5088
I-1685
atp5089
Rp5090
ag14
((lp5091
tp5092
Rp5093
ag14
((lp5094
tp5095
Rp5096
ag14
((lp5097
tp5098
Rp5099
ag14
((lp5100
tp5101
Rp5102
ag14
((lp5103
tp5104
Rp5105
ag14
((lp5106
tp5107
Rp5108
ag14
((lp5109
tp5110
Rp5111
ag14
((lp5112
tp5113
Rp5114
ag14
((lp5115
tp5116
Rp5117
ag14
((lp5118
tp5119
Rp5120
ag14
((lp5121
tp5122
Rp5123
ag14
((lp5124
tp5125
Rp5126
ag14
((lp5127
tp5128
Rp5129
ag14
((lp5130
tp5131
Rp5132
ag14
((lp5133
tp5134
Rp5135
ag14
((lp5136
tp5137
Rp5138
ag14
((lp5139
tp5140
Rp5141
ag14
((lp5142
tp5143
Rp5144
ag14
((lp5145
I1711
atp5146
Rp5147
ag14
((lp5148
I1710
atp5149
Rp5150
ag14
((lp5151
tp5152
Rp5153
ag14
((lp5154
tp5155
Rp5156
ag14
((lp5157
tp5158
Rp5159
ag14
((lp5160
tp5161
Rp5162
ag14
((lp5163
tp5164
Rp5165
ag14
((lp5166
tp5167
Rp5168
ag14
((lp5169
I1720
aI1721
aI-278
aI1719
atp5170
Rp5171
ag14
((lp5172
I1720
aI1721
aI-278
aI1718
atp5173
Rp5174
ag14
((lp5175
I-278
aI1718
aI1719
atp5176
Rp5177
ag14
((lp5178
I-278
aI1718
aI1719
atp5179
Rp5180
ag14
((lp5181
tp5182
Rp5183
ag14
((lp5184
I-1719
atp5185
Rp5186
ag14
((lp5187
I1725
atp5188
Rp5189
ag14
((lp5190
I1724
atp5191
Rp5192
ag14
((lp5193
tp5194
Rp5195
ag14
((lp5196
tp5197
Rp5198
ag14
((lp5199
I-460
atp5200
Rp5201
ag14
((lp5202
tp5203
Rp5204
ag14
((lp5205
I1731
atp5206
Rp5207
ag14
((lp5208
I1730
atp5209
Rp5210
ag14
((lp5211
tp5212
Rp5213
ag14
((lp5214
tp5215
Rp5216
ag14
((lp5217
tp5218
Rp5219
ag14
((lp5220
tp5221
Rp5222
ag14
((lp5223
tp5224
Rp5225
ag14
((lp5226
tp5227
Rp5228
ag14
((lp5229
tp5230
Rp5231
ag14
((lp5232
tp5233
Rp5234
ag14
((lp5235
tp5236
Rp5237
ag14
((lp5238
tp5239
Rp5240
ag14
((lp5241
tp5242
Rp5243
ag14
((lp5244
tp5245
Rp5246
ag14
((lp5247
I-1712
atp5248
Rp5249
ag14
((lp5250
tp5251
Rp5252
ag14
((lp5253
tp5254
Rp5255
ag14
((lp5256
tp5257
Rp5258
ag14
((lp5259
tp5260
Rp5261
ag14
((lp5262
tp5263
Rp5264
ag14
((lp5265
tp5266
Rp5267
ag14
((lp5268
tp5269
Rp5270
ag14
((lp5271
tp5272
Rp5273
ag14
((lp5274
tp5275
Rp5276
ag14
((lp5277
tp5278
Rp5279
ag14
((lp5280
tp5281
Rp5282
ag14
((lp5283
tp5284
Rp5285
ag14
((lp5286
tp5287
Rp5288
ag14
((lp5289
tp5290
Rp5291
ag14
((lp5292
tp5293
Rp5294
ag14
((lp5295
tp5296
Rp5297
ag14
((lp5298
tp5299
Rp5300
ag14
((lp5301
tp5302
Rp5303
ag14
((lp5304
tp5305
Rp5306
ag14
((lp5307
tp5308
Rp5309
ag14
((lp5310
tp5311
Rp5312
ag14
((lp5313
tp5314
Rp5315
ag14
((lp5316
tp5317
Rp5318
ag14
((lp5319
tp5320
Rp5321
ag14
((lp5322
tp5323
Rp5324
ag14
((lp5325
tp5326
Rp5327
ag14
((lp5328
tp5329
Rp5330
ag14
((lp5331
tp5332
Rp5333
ag14
((lp5334
I-1756
atp5335
Rp5336
ag14
((lp5337
I1777
aI1778
aI1775
atp5338
Rp5339
ag14
((lp5340
I1777
aI1778
aI1774
atp5341
Rp5342
ag14
((lp5343
I1777
aI1779
aI1780
atp5344
Rp5345
ag14
((lp5346
I1776
aI1778
aI1779
aI1780
aI1774
aI1775
atp5347
Rp5348
ag14
((lp5349
I1777
aI1774
aI1775
atp5350
Rp5351
ag14
((lp5352
I1776
aI1777
atp5353
Rp5354
ag14
((lp5355
I1776
aI1777
atp5356
Rp5357
ag14
((lp5358
tp5359
Rp5360
ag14
((lp5361
I1784
aI1783
atp5362
Rp5363
ag14
((lp5364
I1784
aI1782
atp5365
Rp5366
ag14
((lp5367
I1782
aI1783
atp5368
Rp5369
ag14
((lp5370
tp5371
Rp5372
ag14
((lp5373
tp5374
Rp5375
ag14
((lp5376
tp5377
Rp5378
ag14
((lp5379
I1789
atp5380
Rp5381
ag14
((lp5382
I1788
atp5383
Rp5384
ag14
((lp5385
tp5386
Rp5387
ag14
((lp5388
tp5389
Rp5390
ag14
((lp5391
tp5392
Rp5393
ag14
((lp5394
tp5395
Rp5396
ag14
((lp5397
I1795
atp5398
Rp5399
ag14
((lp5400
I1794
atp5401
Rp5402
ag14
((lp5403
tp5404
Rp5405
ag14
((lp5406
tp5407
Rp5408
ag14
((lp5409
tp5410
Rp5411
ag14
((lp5412
tp5413
Rp5414
ag14
((lp5415
tp5416
Rp5417
ag14
((lp5418
tp5419
Rp5420
ag14
((lp5421
I1803
atp5422
Rp5423
ag14
((lp5424
I1802
atp5425
Rp5426
ag14
((lp5427
tp5428
Rp5429
ag14
((lp5430
tp5431
Rp5432
ag14
((lp5433
tp5434
Rp5435
ag14
((lp5436
tp5437
Rp5438
ag14
((lp5439
I1809
aI1810
aI1811
atp5440
Rp5441
ag14
((lp5442
I1808
aI1811
atp5443
Rp5444
ag14
((lp5445
I1808
atp5446
Rp5447
ag14
((lp5448
I1808
aI1809
atp5449
Rp5450
ag14
((lp5451
tp5452
Rp5453
ag14
((lp5454
tp5455
Rp5456
ag14
((lp5457
tp5458
Rp5459
ag14
((lp5460
tp5461
Rp5462
ag14
((lp5463
tp5464
Rp5465
ag14
((lp5466
tp5467
Rp5468
ag14
((lp5469
tp5470
Rp5471
ag14
((lp5472
tp5473
Rp5474
ag14
((lp5475
I1821
aI-1769
atp5476
Rp5477
ag14
((lp5478
I1820
aI-1769
atp5479
Rp5480
ag14
((lp5481
tp5482
Rp5483
ag14
((lp5484
tp5485
Rp5486
ag14
((lp5487
tp5488
Rp5489
ag14
((lp5490
tp5491
Rp5492
ag14
((lp5493
tp5494
Rp5495
ag14
((lp5496
tp5497
Rp5498
ag14
((lp5499
tp5500
Rp5501
ag14
((lp5502
tp5503
Rp5504
ag14
((lp5505
I1832
atp5506
Rp5507
ag14
((lp5508
tp5509
Rp5510
ag14
((lp5511
I1830
atp5512
Rp5513
ag14
((lp5514
I1834
aI1835
aI1836
aI1837
atp5515
Rp5516
ag14
((lp5517
I1833
aI1835
aI1836
aI1837
atp5518
Rp5519
ag14
((lp5520
I1833
aI1834
aI1836
aI1837
atp5521
Rp5522
ag14
((lp5523
I1833
aI1834
aI1835
aI1837
atp5524
Rp5525
ag14
((lp5526
I1833
aI1834
aI1835
aI1836
atp5527
Rp5528
ag14
((lp5529
tp5530
Rp5531
ag14
((lp5532
tp5533
Rp5534
ag14
((lp5535
tp5536
Rp5537
ag14
((lp5538
I-1831
atp5539
Rp5540
ag14
((lp5541
tp5542
Rp5543
ag14
((lp5544
I1844
atp5545
Rp5546
ag14
((lp5547
I1843
atp5548
Rp5549
ag14
((lp5550
tp5551
Rp5552
ag14
((lp5553
tp5554
Rp5555
ag14
((lp5556
tp5557
Rp5558
ag14
((lp5559
tp5560
Rp5561
ag14
((lp5562
tp5563
Rp5564
ag14
((lp5565
tp5566
Rp5567
ag14
((lp5568
tp5569
Rp5570
ag14
((lp5571
tp5572
Rp5573
ag14
((lp5574
tp5575
Rp5576
ag14
((lp5577
I1855
atp5578
Rp5579
ag14
((lp5580
I1854
atp5581
Rp5582
ag14
((lp5583
tp5584
Rp5585
ag14
((lp5586
tp5587
Rp5588
ag14
((lp5589
tp5590
Rp5591
ag14
((lp5592
tp5593
Rp5594
ag14
((lp5595
tp5596
Rp5597
ag14
((lp5598
I1864
aI-1860
aI1862
aI1863
atp5599
Rp5600
ag14
((lp5601
I1864
aI-1860
aI1861
aI1863
atp5602
Rp5603
ag14
((lp5604
I1864
aI-1860
aI1861
aI1862
atp5605
Rp5606
ag14
((lp5607
I-1860
aI1861
aI1862
aI1863
atp5608
Rp5609
ag14
((lp5610
tp5611
Rp5612
ag14
((lp5613
tp5614
Rp5615
ag14
((lp5616
tp5617
Rp5618
ag14
((lp5619
tp5620
Rp5621
ag14
((lp5622
tp5623
Rp5624
ag14
((lp5625
tp5626
Rp5627
ag14
((lp5628
I-1863
atp5629
Rp5630
ag14
((lp5631
tp5632
Rp5633
ag14
((lp5634
tp5635
Rp5636
ag14
((lp5637
I1875
aI1876
aI1877
atp5638
Rp5639
ag14
((lp5640
I1874
aI1876
aI1877
aI-962
atp5641
Rp5642
ag14
((lp5643
I1874
aI1875
aI1877
atp5644
Rp5645
ag14
((lp5646
I1874
aI1875
aI1876
aI-962
atp5647
Rp5648
ag14
((lp5649
tp5650
Rp5651
ag14
((lp5652
tp5653
Rp5654
ag14
((lp5655
I1881
aI1882
atp5656
Rp5657
ag14
((lp5658
I1880
aI1882
atp5659
Rp5660
ag14
((lp5661
I1880
aI1881
atp5662
Rp5663
ag14
((lp5664
tp5665
Rp5666
ag14
((lp5667
tp5668
Rp5669
ag14
((lp5670
tp5671
Rp5672
ag14
((lp5673
tp5674
Rp5675
ag14
((lp5676
tp5677
Rp5678
ag14
((lp5679
tp5680
Rp5681
ag14
((lp5682
tp5683
Rp5684
ag14
((lp5685
I-1878
atp5686
Rp5687
ag14
((lp5688
tp5689
Rp5690
ag14
((lp5691
I-1875
aI-1881
atp5692
Rp5693
ag14
((lp5694
tp5695
Rp5696
ag14
((lp5697
tp5698
Rp5699
ag14
((lp5700
I1896
aI1897
atp5701
Rp5702
ag14
((lp5703
I1897
aI1895
atp5704
Rp5705
ag14
((lp5706
I1896
aI1895
atp5707
Rp5708
ag14
((lp5709
tp5710
Rp5711
ag14
((lp5712
tp5713
Rp5714
ag14
((lp5715
tp5716
Rp5717
ag14
((lp5718
tp5719
Rp5720
ag14
((lp5721
tp5722
Rp5723
ag14
((lp5724
tp5725
Rp5726
ag14
((lp5727
tp5728
Rp5729
ag14
((lp5730
I1906
aI1907
atp5731
Rp5732
ag14
((lp5733
I1905
aI1907
atp5734
Rp5735
ag14
((lp5736
I1905
aI1906
atp5737
Rp5738
ag14
((lp5739
I-1905
atp5740
Rp5741
ag14
((lp5742
tp5743
Rp5744
ag14
((lp5745
tp5746
Rp5747
ag14
((lp5748
tp5749
Rp5750
ag14
((lp5751
I1913
atp5752
Rp5753
ag14
((lp5754
I1912
atp5755
Rp5756
ag14
((lp5757
tp5758
Rp5759
ag14
((lp5760
tp5761
Rp5762
ag14
((lp5763
tp5764
Rp5765
ag14
((lp5766
tp5767
Rp5768
ag14
((lp5769
tp5770
Rp5771
ag14
((lp5772
tp5773
Rp5774
ag14
((lp5775
tp5776
Rp5777
ag14
((lp5778
tp5779
Rp5780
ag14
((lp5781
tp5782
Rp5783
ag14
((lp5784
I1924
aI1925
aI1926
atp5785
Rp5786
ag14
((lp5787
I1923
aI1925
aI1926
atp5788
Rp5789
ag14
((lp5790
I1923
aI1924
aI1926
atp5791
Rp5792
ag14
((lp5793
I1923
aI1924
aI1925
atp5794
Rp5795
ag14
((lp5796
tp5797
Rp5798
ag14
((lp5799
tp5800
Rp5801
ag14
((lp5802
tp5803
Rp5804
ag14
((lp5805
tp5806
Rp5807
ag14
((lp5808
tp5809
Rp5810
ag14
((lp5811
tp5812
Rp5813
ag14
((lp5814
tp5815
Rp5816
ag14
((lp5817
tp5818
Rp5819
ag14
((lp5820
tp5821
Rp5822
ag14
((lp5823
tp5824
Rp5825
ag14
((lp5826
tp5827
Rp5828
ag14
((lp5829
tp5830
Rp5831
ag14
((lp5832
tp5833
Rp5834
ag14
((lp5835
I-1939
aI1945
aI1941
aI1942
aI1943
aI1944
aI-1927
aI1946
atp5836
Rp5837
ag14
((lp5838
I1940
aI1942
aI1943
aI1944
aI1945
aI1946
atp5839
Rp5840
ag14
((lp5841
I-1939
aI1940
aI1941
aI1943
aI1944
aI1945
aI1946
atp5842
Rp5843
ag14
((lp5844
I1940
aI1941
aI1942
aI1944
aI1945
aI1946
atp5845
Rp5846
ag14
((lp5847
I-1939
aI1940
aI1941
aI1942
aI1943
aI1945
aI1946
atp5848
Rp5849
ag14
((lp5850
I-1939
aI-1927
aI1940
aI1941
aI1942
aI1943
aI1944
aI1946
atp5851
Rp5852
ag14
((lp5853
I-1939
aI1940
aI1941
aI1942
aI1943
aI1944
aI1945
atp5854
Rp5855
ag14
((lp5856
tp5857
Rp5858
ag14
((lp5859
tp5860
Rp5861
ag14
((lp5862
tp5863
Rp5864
ag14
((lp5865
tp5866
Rp5867
ag14
((lp5868
tp5869
Rp5870
ag14
((lp5871
tp5872
Rp5873
ag14
((lp5874
tp5875
Rp5876
ag14
((lp5877
tp5878
Rp5879
ag14
((lp5880
tp5881
Rp5882
ag14
((lp5883
tp5884
Rp5885
ag14
((lp5886
tp5887
Rp5888
ag14
((lp5889
I-1955
atp5890
Rp5891
ag14
((lp5892
I1960
atp5893
Rp5894
ag14
((lp5895
I1959
atp5896
Rp5897
ag14
((lp5898
I1962
aI-1957
atp5899
Rp5900
ag14
((lp5901
I1961
aI-1957
atp5902
Rp5903
ag14
((lp5904
I1964
atp5905
Rp5906
ag14
((lp5907
I1963
atp5908
Rp5909
ag14
((lp5910
tp5911
Rp5912
ag14
((lp5913
tp5914
Rp5915
ag14
((lp5916
tp5917
Rp5918
ag14
((lp5919
I1969
atp5920
Rp5921
ag14
((lp5922
I1968
atp5923
Rp5924
ag14
((lp5925
tp5926
Rp5927
ag14
((lp5928
tp5929
Rp5930
ag14
((lp5931
tp5932
Rp5933
ag14
((lp5934
tp5935
Rp5936
ag14
((lp5937
tp5938
Rp5939
ag14
((lp5940
tp5941
Rp5942
ag14
((lp5943
tp5944
Rp5945
ag14
((lp5946
tp5947
Rp5948
ag14
((lp5949
tp5950
Rp5951
ag14
((lp5952
tp5953
Rp5954
ag14
((lp5955
tp5956
Rp5957
ag14
((lp5958
tp5959
Rp5960
ag14
((lp5961
tp5962
Rp5963
ag14
((lp5964
I-1982
atp5965
Rp5966
ag14
((lp5967
tp5968
Rp5969
ag14
((lp5970
tp5971
Rp5972
ag14
((lp5973
tp5974
Rp5975
ag14
((lp5976
tp5977
Rp5978
ag14
((lp5979
tp5980
Rp5981
ag14
((lp5982
tp5983
Rp5984
ag14
((lp5985
tp5986
Rp5987
ag14
((lp5988
tp5989
Rp5990
ag14
((lp5991
tp5992
Rp5993
ag14
((lp5994
tp5995
Rp5996
ag14
((lp5997
tp5998
Rp5999
ag14
((lp6000
tp6001
Rp6002
ag14
((lp6003
tp6004
Rp6005
ag14
((lp6006
tp6007
Rp6008
ag14
((lp6009
tp6010
Rp6011
ag14
((lp6012
tp6013
Rp6014
ag14
((lp6015
tp6016
Rp6017
ag14
((lp6018
tp6019
Rp6020
ag14
((lp6021
tp6022
Rp6023
ag14
((lp6024
tp6025
Rp6026
ag14
((lp6027
tp6028
Rp6029
ag14
((lp6030
tp6031
Rp6032
ag14
((lp6033
tp6034
Rp6035
ag14
((lp6036
tp6037
Rp6038
ag14
((lp6039
tp6040
Rp6041
ag14
((lp6042
tp6043
Rp6044
ag14
((lp6045
tp6046
Rp6047
ag14
((lp6048
tp6049
Rp6050
ag14
((lp6051
tp6052
Rp6053
ag14
((lp6054
tp6055
Rp6056
ag14
((lp6057
tp6058
Rp6059
ag14
((lp6060
tp6061
Rp6062
ag14
((lp6063
I-2015
atp6064
Rp6065
ag14
((lp6066
tp6067
Rp6068
ag14
((lp6069
tp6070
Rp6071
ag14
((lp6072
tp6073
Rp6074
ag14
((lp6075
I-2010
atp6076
Rp6077
ag14
((lp6078
tp6079
Rp6080
ag14
((lp6081
tp6082
Rp6083
ag14
((lp6084
tp6085
Rp6086
ag14
((lp6087
tp6088
Rp6089
ag14
((lp6090
tp6091
Rp6092
ag14
((lp6093
tp6094
Rp6095
ag14
((lp6096
tp6097
Rp6098
ag14
((lp6099
tp6100
Rp6101
ag14
((lp6102
tp6103
Rp6104
ag14
((lp6105
tp6106
Rp6107
ag14
((lp6108
tp6109
Rp6110
ag14
((lp6111
tp6112
Rp6113
ag14
((lp6114
tp6115
Rp6116
ag14
((lp6117
tp6118
Rp6119
ag14
((lp6120
tp6121
Rp6122
ag14
((lp6123
I2038
atp6124
Rp6125
ag14
((lp6126
I2038
aI2039
atp6127
Rp6128
ag14
((lp6129
I2036
aI2037
aI2039
atp6130
Rp6131
ag14
((lp6132
I2037
aI2038
atp6133
Rp6134
ag14
((lp6135
tp6136
Rp6137
ag14
((lp6138
tp6139
Rp6140
ag14
((lp6141
I2043
aI2044
atp6142
Rp6143
ag14
((lp6144
I2042
aI2044
atp6145
Rp6146
ag14
((lp6147
I2042
aI2043
atp6148
Rp6149
ag14
((lp6150
tp6151
Rp6152
ag14
((lp6153
I2047
atp6154
Rp6155
ag14
((lp6156
I2046
atp6157
Rp6158
ag14
((lp6159
I2049
aI2050
aI-2026
atp6160
Rp6161
ag14
((lp6162
I2048
aI2050
atp6163
Rp6164
ag14
((lp6165
I2048
aI2049
atp6166
Rp6167
ag14
((lp6168
tp6169
Rp6170
ag14
((lp6171
tp6172
Rp6173
ag14
((lp6174
tp6175
Rp6176
ag14
((lp6177
I2055
atp6178
Rp6179
ag14
((lp6180
I2058
aI2054
atp6181
Rp6182
ag14
((lp6183
I2057
aI2059
aI2060
atp6184
Rp6185
ag14
((lp6186
I2056
aI2059
aI2060
atp6187
Rp6188
ag14
((lp6189
I2055
atp6190
Rp6191
ag14
((lp6192
I2056
aI2057
aI2060
atp6193
Rp6194
ag14
((lp6195
I2056
aI2057
aI2059
atp6196
Rp6197
ag14
((lp6198
tp6199
Rp6200
ag14
((lp6201
tp6202
Rp6203
ag14
((lp6204
tp6205
Rp6206
ag14
((lp6207
tp6208
Rp6209
ag14
((lp6210
tp6211
Rp6212
ag14
((lp6213
tp6214
Rp6215
ag14
((lp6216
tp6217
Rp6218
ag14
((lp6219
I-379
atp6220
Rp6221
ag14
((lp6222
tp6223
Rp6224
ag14
((lp6225
tp6226
Rp6227
ag14
((lp6228
tp6229
Rp6230
ag14
((lp6231
tp6232
Rp6233
ag14
((lp6234
I-2056
atp6235
Rp6236
ag14
((lp6237
I-2064
atp6238
Rp6239
ag14
((lp6240
I2076
atp6241
Rp6242
ag14
((lp6243
I2075
atp6244
Rp6245
ag14
((lp6246
I2080
aI2082
aI2083
atp6247
Rp6248
ag14
((lp6249
I2080
aI2081
aI2083
atp6250
Rp6251
ag14
((lp6252
tp6253
Rp6254
ag14
((lp6255
I2082
aI2083
aI2077
aI2078
atp6256
Rp6257
ag14
((lp6258
I2078
atp6259
Rp6260
ag14
((lp6261
I2080
aI2083
aI2077
atp6262
Rp6263
ag14
((lp6264
I2080
aI2082
aI2077
aI2078
atp6265
Rp6266
ag14
((lp6267
tp6268
Rp6269
ag14
((lp6270
tp6271
Rp6272
ag14
((lp6273
I2088
aI-2077
aI2087
atp6274
Rp6275
ag14
((lp6276
I2089
aI-2077
aI2086
atp6277
Rp6278
ag14
((lp6279
I-2077
aI2086
atp6280
Rp6281
ag14
((lp6282
I2087
atp6283
Rp6284
ag14
((lp6285
tp6286
Rp6287
ag14
((lp6288
tp6289
Rp6290
ag14
((lp6291
tp6292
Rp6293
ag14
((lp6294
I-2087
atp6295
Rp6296
ag14
((lp6297
I-2073
aI2095
atp6298
Rp6299
ag14
((lp6300
I2094
atp6301
Rp6302
ag14
((lp6303
I2097
aI2098
aI2099
aI2100
aI2102
aI2103
atp6304
Rp6305
ag14
((lp6306
I2096
aI2098
aI2099
aI2100
aI2101
aI2102
aI2103
atp6307
Rp6308
ag14
((lp6309
I2096
aI2097
aI2099
aI2100
aI2101
aI2102
aI2103
atp6310
Rp6311
ag14
((lp6312
I2096
aI2097
aI2098
aI2100
aI2101
aI2102
aI2103
atp6313
Rp6314
ag14
((lp6315
I2096
aI2097
aI2098
aI2099
aI2101
aI2102
aI2103
atp6316
Rp6317
ag14
((lp6318
I2097
aI2098
aI2099
aI2100
aI2102
aI2103
atp6319
Rp6320
ag14
((lp6321
I2096
aI2097
aI2098
aI2099
aI2100
aI2101
aI2103
atp6322
Rp6323
ag14
((lp6324
I2096
aI2097
aI2098
aI2099
aI2100
aI2101
aI2102
atp6325
Rp6326
ag14
((lp6327
tp6328
Rp6329
ag14
((lp6330
I2106
aI2107
atp6331
Rp6332
ag14
((lp6333
I2105
atp6334
Rp6335
ag14
((lp6336
I2105
atp6337
Rp6338
ag14
((lp6339
tp6340
Rp6341
ag14
((lp6342
tp6343
Rp6344
ag14
((lp6345
tp6346
Rp6347
ag14
((lp6348
tp6349
Rp6350
ag14
((lp6351
tp6352
Rp6353
ag14
((lp6354
tp6355
Rp6356
ag14
((lp6357
I-2111
atp6358
Rp6359
ag14
((lp6360
I-2098
atp6361
Rp6362
ag14
((lp6363
tp6364
Rp6365
ag14
((lp6366
tp6367
Rp6368
ag14
((lp6369
tp6370
Rp6371
ag14
((lp6372
tp6373
Rp6374
ag14
((lp6375
I-2119
aI-2116
aI2121
atp6376
Rp6377
ag14
((lp6378
I2120
aI-2119
atp6379
Rp6380
ag14
((lp6381
tp6382
Rp6383
ag14
((lp6384
tp6385
Rp6386
ag14
((lp6387
I-2120
aI-2123
atp6388
Rp6389
ag14
((lp6390
tp6391
Rp6392
ag14
((lp6393
tp6394
Rp6395
ag14
((lp6396
tp6397
Rp6398
ag14
((lp6399
I2129
atp6400
Rp6401
ag14
((lp6402
I2128
aI2130
atp6403
Rp6404
ag14
((lp6405
I2129
atp6406
Rp6407
ag14
((lp6408
tp6409
Rp6410
ag14
((lp6411
I2133
atp6412
Rp6413
ag14
((lp6414
I2132
aI2134
atp6415
Rp6416
ag14
((lp6417
I2133
atp6418
Rp6419
ag14
((lp6420
tp6421
Rp6422
ag14
((lp6423
tp6424
Rp6425
ag14
((lp6426
I2138
atp6427
Rp6428
ag14
((lp6429
I2137
atp6430
Rp6431
ag14
((lp6432
I-2133
aI-2137
aI-2103
aI-2131
aI-2129
atp6433
Rp6434
ag14
((lp6435
tp6436
Rp6437
ag14
((lp6438
tp6439
Rp6440
ag14
((lp6441
tp6442
Rp6443
ag14
((lp6444
tp6445
Rp6446
ag14
((lp6447
tp6448
Rp6449
ag14
((lp6450
tp6451
Rp6452
ag14
((lp6453
tp6454
Rp6455
ag14
((lp6456
tp6457
Rp6458
ag14
((lp6459
tp6460
Rp6461
ag14
((lp6462
tp6463
Rp6464
ag14
((lp6465
tp6466
Rp6467
ag14
((lp6468
tp6469
Rp6470
ag14
((lp6471
I2153
atp6472
Rp6473
ag14
((lp6474
I2152
atp6475
Rp6476
ag14
((lp6477
tp6478
Rp6479
ag14
((lp6480
tp6481
Rp6482
ag14
((lp6483
tp6484
Rp6485
ag14
((lp6486
I-2152
aI-2154
atp6487
Rp6488
ag14
((lp6489
tp6490
Rp6491
ag14
((lp6492
tp6493
Rp6494
ag14
((lp6495
I-2140
aI-2153
atp6496
Rp6497
ag14
((lp6498
tp6499
Rp6500
ag14
((lp6501
tp6502
Rp6503
ag14
((lp6504
I-2152
aI2157
atp6505
Rp6506
ag14
((lp6507
I-2157
aI-2140
atp6508
Rp6509
ag14
((lp6510
I2157
aI-2154
atp6511
Rp6512
ag14
((lp6513
tp6514
Rp6515
ag14
((lp6516
tp6517
Rp6518
ag14
((lp6519
tp6520
Rp6521
ag14
((lp6522
tp6523
Rp6524
ag14
((lp6525
I-2134
aI-2006
atp6526
Rp6527
ag14
((lp6528
tp6529
Rp6530
ag14
((lp6531
tp6532
Rp6533
ag14
((lp6534
tp6535
Rp6536
ag14
((lp6537
tp6538
Rp6539
ag14
((lp6540
tp6541
Rp6542
ag14
((lp6543
tp6544
Rp6545
ag14
((lp6546
I-2157
aI-2153
atp6547
Rp6548
ag14
((lp6549
tp6550
Rp6551
ag14
((lp6552
tp6553
Rp6554
ag14
((lp6555
I-2127
aI-2133
aI-2103
aI2139
aI-2131
aI-2129
atp6556
Rp6557
ag14
((lp6558
tp6559
Rp6560
ag14
((lp6561
tp6562
Rp6563
ag14
((lp6564
I-2006
aI-2147
atp6565
Rp6566
ag14
((lp6567
I-2137
aI-2103
aI-2131
aI-2129
aI-2127
aI-2124
aI2139
atp6568
Rp6569
ag14
((lp6570
tp6571
Rp6572
ag14
((lp6573
I-2137
aI-2103
aI-2133
aI-2129
aI-2127
aI-2124
aI2139
atp6574
Rp6575
ag14
((lp6576
tp6577
Rp6578
ag14
((lp6579
I-2137
aI-2103
aI-2133
aI-2131
aI-2127
aI-2124
aI2139
atp6580
Rp6581
ag14
((lp6582
tp6583
Rp6584
ag14
((lp6585
I-2124
aI-2137
aI-2103
aI-2133
aI-2131
aI-2129
atp6586
Rp6587
ag14
((lp6588
tp6589
Rp6590
ag14
((lp6591
tp6592
Rp6593
ag14
((lp6594
I-2127
aI-2103
aI-2133
aI-2131
aI-2129
atp6595
Rp6596
ag14
((lp6597
I-2120
aI2124
aI-2122
atp6598
Rp6599
ag14
((lp6600
I-2120
aI-2123
atp6601
Rp6602
ag14
((lp6603
I-2102
aI-2107
atp6604
Rp6605
ag14
((lp6606
I2124
aI-2123
aI-2122
atp6607
Rp6608
ag14
((lp6609
I2120
aI2121
aI-2116
atp6610
Rp6611
ag14
((lp6612
tp6613
Rp6614
ag14
((lp6615
tp6616
Rp6617
ag14
((lp6618
I2120
aI-2119
atp6619
Rp6620
ag14
((lp6621
tp6622
Rp6623
ag14
((lp6624
I-2102
aI-2107
atp6625
Rp6626
ag14
((lp6627
tp6628
Rp6629
ag14
((lp6630
I-2111
aI-2097
atp6631
Rp6632
ag14
((lp6633
I-2112
aI2114
aI-2098
aI-2097
atp6634
Rp6635
ag14
((lp6636
tp6637
Rp6638
ag14
((lp6639
tp6640
Rp6641
ag14
((lp6642
tp6643
Rp6644
ag14
((lp6645
I-2102
aI-2114
aI-2121
atp6646
Rp6647
ag14
((lp6648
I-2104
aI-2083
aI-2099
atp6649
Rp6650
ag14
((lp6651
tp6652
Rp6653
ag14
((lp6654
I-2083
aI-2106
aI-2099
atp6655
Rp6656
ag14
((lp6657
I-2137
aI-2133
aI-2131
aI-2129
aI-2127
aI-2124
aI2139
atp6658
Rp6659
ag14
((lp6660
I-2107
aI-2114
aI-2121
atp6661
Rp6662
ag14
((lp6663
tp6664
Rp6665
ag14
((lp6666
tp6667
Rp6668
ag14
((lp6669
I-2104
aI-2083
aI-2106
atp6670
Rp6671
ag14
((lp6672
I-2111
aI2115
atp6673
Rp6674
ag14
((lp6675
I-2112
aI-2111
atp6676
Rp6677
ag14
((lp6678
tp6679
Rp6680
ag14
((lp6681
I-2080
aI-2088
atp6682
Rp6683
ag14
((lp6684
tp6685
Rp6686
ag14
((lp6687
tp6688
Rp6689
ag14
((lp6690
tp6691
Rp6692
ag14
((lp6693
tp6694
Rp6695
ag14
((lp6696
tp6697
Rp6698
ag14
((lp6699
I-2081
atp6700
Rp6701
ag14
((lp6702
I-2080
aI-2095
atp6703
Rp6704
ag14
((lp6705
I2093
atp6706
Rp6707
ag14
((lp6708
tp6709
Rp6710
ag14
((lp6711
tp6712
Rp6713
ag14
((lp6714
tp6715
Rp6716
ag14
((lp6717
I-2104
aI-2099
aI-2106
atp6718
Rp6719
ag14
((lp6720
tp6721
Rp6722
ag14
((lp6723
I-2089
atp6724
Rp6725
ag14
((lp6726
I-2095
aI-2088
atp6727
Rp6728
ag14
((lp6729
tp6730
Rp6731
ag14
((lp6732
tp6733
Rp6734
ag14
((lp6735
I2088
aI2086
aI2087
atp6736
Rp6737
ag14
((lp6738
I-2060
atp6739
Rp6740
ag14
((lp6741
I-2074
aI-2059
aI-2058
atp6742
Rp6743
ag14
((lp6744
I-2075
aI-2058
aI-2059
atp6745
Rp6746
ag14
((lp6747
I2094
atp6748
Rp6749
ag14
((lp6750
tp6751
Rp6752
ag14
((lp6753
tp6754
Rp6755
ag14
((lp6756
I-2068
aI-2067
aI-2066
aI-2065
atp6757
Rp6758
ag14
((lp6759
tp6760
Rp6761
ag14
((lp6762
I-2070
aI-2067
aI-2066
aI-2065
atp6763
Rp6764
ag14
((lp6765
I-2070
aI-2068
aI-2066
aI-2065
atp6766
Rp6767
ag14
((lp6768
I-2070
aI-2068
aI-2067
aI-2065
atp6769
Rp6770
ag14
((lp6771
I-2070
aI-2068
aI-2067
aI-2066
atp6772
Rp6773
ag14
((lp6774
I-2055
aI2074
aI-2057
atp6775
Rp6776
ag14
((lp6777
tp6778
Rp6779
ag14
((lp6780
tp6781
Rp6782
ag14
((lp6783
tp6784
Rp6785
ag14
((lp6786
I-2076
atp6787
Rp6788
ag14
((lp6789
I-2058
aI-2075
aI-2074
atp6790
Rp6791
ag14
((lp6792
I-2074
aI-2059
aI-2075
atp6793
Rp6794
ag14
((lp6795
I-2064
aI-2055
atp6796
Rp6797
ag14
((lp6798
I2073
atp6799
Rp6800
ag14
((lp6801
I-2064
aI-2057
atp6802
Rp6803
ag14
((lp6804
tp6805
Rp6806
ag14
((lp6807
I-2044
atp6808
Rp6809
ag14
((lp6810
tp6811
Rp6812
ag14
((lp6813
tp6814
Rp6815
ag14
((lp6816
tp6817
Rp6818
ag14
((lp6819
I-2039
aI-2042
atp6820
Rp6821
ag14
((lp6822
I-2039
aI-2042
atp6823
Rp6824
ag14
((lp6825
tp6826
Rp6827
ag14
((lp6828
tp6829
Rp6830
ag14
((lp6831
tp6832
Rp6833
ag14
((lp6834
I-2053
atp6835
Rp6836
ag14
((lp6837
tp6838
Rp6839
ag14
((lp6840
I-2048
aI-2039
aI-2049
atp6841
Rp6842
ag14
((lp6843
tp6844
Rp6845
ag14
((lp6846
I-2038
atp6847
Rp6848
ag14
((lp6849
I-2048
aI-2042
aI-2049
atp6850
Rp6851
ag14
((lp6852
I-2040
atp6853
Rp6854
ag14
((lp6855
I-1248
atp6856
Rp6857
ag14
((lp6858
tp6859
Rp6860
ag14
((lp6861
tp6862
Rp6863
ag14
((lp6864
tp6865
Rp6866
ag14
((lp6867
tp6868
Rp6869
ag14
((lp6870
tp6871
Rp6872
ag14
((lp6873
tp6874
Rp6875
ag14
((lp6876
tp6877
Rp6878
ag14
((lp6879
tp6880
Rp6881
ag14
((lp6882
tp6883
Rp6884
ag14
((lp6885
tp6886
Rp6887
ag14
((lp6888
I2048
atp6889
Rp6890
ag14
((lp6891
tp6892
Rp6893
ag14
((lp6894
tp6895
Rp6896
ag14
((lp6897
tp6898
Rp6899
ag14
((lp6900
tp6901
Rp6902
ag14
((lp6903
tp6904
Rp6905
ag14
((lp6906
tp6907
Rp6908
ag14
((lp6909
tp6910
Rp6911
ag14
((lp6912
tp6913
Rp6914
ag14
((lp6915
tp6916
Rp6917
ag14
((lp6918
tp6919
Rp6920
ag14
((lp6921
I2016
atp6922
Rp6923
ag14
((lp6924
tp6925
Rp6926
ag14
((lp6927
tp6928
Rp6929
ag14
((lp6930
tp6931
Rp6932
ag14
((lp6933
tp6934
Rp6935
ag14
((lp6936
I2020
atp6937
Rp6938
ag14
((lp6939
tp6940
Rp6941
ag14
((lp6942
tp6943
Rp6944
ag14
((lp6945
tp6946
Rp6947
ag14
((lp6948
I-2134
aI-2147
atp6949
Rp6950
ag14
((lp6951
tp6952
Rp6953
ag14
((lp6954
tp6955
Rp6956
ag14
((lp6957
tp6958
Rp6959
ag14
((lp6960
tp6961
Rp6962
ag14
((lp6963
tp6964
Rp6965
ag14
((lp6966
tp6967
Rp6968
ag14
((lp6969
tp6970
Rp6971
ag14
((lp6972
tp6973
Rp6974
ag14
((lp6975
tp6976
Rp6977
ag14
((lp6978
tp6979
Rp6980
ag14
((lp6981
tp6982
Rp6983
ag14
((lp6984
tp6985
Rp6986
ag14
((lp6987
tp6988
Rp6989
ag14
((lp6990
tp6991
Rp6992
ag14
((lp6993
tp6994
Rp6995
ag14
((lp6996
tp6997
Rp6998
ag14
((lp6999
tp7000
Rp7001
ag14
((lp7002
tp7003
Rp7004
ag14
((lp7005
tp7006
Rp7007
ag14
((lp7008
tp7009
Rp7010
ag14
((lp7011
tp7012
Rp7013
ag14
((lp7014
tp7015
Rp7016
ag14
((lp7017
tp7018
Rp7019
ag14
((lp7020
I1983
atp7021
Rp7022
ag14
((lp7023
tp7024
Rp7025
ag14
((lp7026
tp7027
Rp7028
ag14
((lp7029
tp7030
Rp7031
ag14
((lp7032
tp7033
Rp7034
ag14
((lp7035
tp7036
Rp7037
ag14
((lp7038
tp7039
Rp7040
ag14
((lp7041
tp7042
Rp7043
ag14
((lp7044
tp7045
Rp7046
ag14
((lp7047
tp7048
Rp7049
ag14
((lp7050
tp7051
Rp7052
ag14
((lp7053
tp7054
Rp7055
ag14
((lp7056
tp7057
Rp7058
ag14
((lp7059
I-1966
aI-1963
atp7060
Rp7061
ag14
((lp7062
tp7063
Rp7064
ag14
((lp7065
tp7066
Rp7067
ag14
((lp7068
I-1963
aI-1969
atp7069
Rp7070
ag14
((lp7071
tp7072
Rp7073
ag14
((lp7074
I-1958
aI-1961
atp7075
Rp7076
ag14
((lp7077
I-1966
aI-1969
atp7078
Rp7079
ag14
((lp7080
tp7081
Rp7082
ag14
((lp7083
I-1958
aI-1964
atp7084
Rp7085
ag14
((lp7086
tp7087
Rp7088
ag14
((lp7089
tp7090
Rp7091
ag14
((lp7092
I-1964
aI-1961
atp7093
Rp7094
ag14
((lp7095
I1961
aI1962
atp7096
Rp7097
ag14
((lp7098
tp7099
Rp7100
ag14
((lp7101
I1958
atp7102
Rp7103
ag14
((lp7104
tp7105
Rp7106
ag14
((lp7107
tp7108
Rp7109
ag14
((lp7110
tp7111
Rp7112
ag14
((lp7113
tp7114
Rp7115
ag14
((lp7116
tp7117
Rp7118
ag14
((lp7119
tp7120
Rp7121
ag14
((lp7122
tp7123
Rp7124
ag14
((lp7125
tp7126
Rp7127
ag14
((lp7128
tp7129
Rp7130
ag14
((lp7131
tp7132
Rp7133
ag14
((lp7134
tp7135
Rp7136
ag14
((lp7137
tp7138
Rp7139
ag14
((lp7140
tp7141
Rp7142
ag14
((lp7143
tp7144
Rp7145
ag14
((lp7146
tp7147
Rp7148
ag14
((lp7149
I1940
aI1942
aI1945
aI1944
aI-1927
aI1946
atp7150
Rp7151
ag14
((lp7152
tp7153
Rp7154
ag14
((lp7155
tp7156
Rp7157
ag14
((lp7158
I-1871
aI-1931
atp7159
Rp7160
ag14
((lp7161
tp7162
Rp7163
ag14
((lp7164
tp7165
Rp7166
ag14
((lp7167
tp7168
Rp7169
ag14
((lp7170
tp7171
Rp7172
ag14
((lp7173
I-1936
aI-1871
atp7174
Rp7175
ag14
((lp7176
I-1918
atp7177
Rp7178
ag14
((lp7179
I-1925
aI-1475
atp7180
Rp7181
ag14
((lp7182
tp7183
Rp7184
ag14
((lp7185
I1945
aI1940
aI-1939
atp7186
Rp7187
ag14
((lp7188
tp7189
Rp7190
ag14
((lp7191
I-1475
aI-1929
atp7192
Rp7193
ag14
((lp7194
tp7195
Rp7196
ag14
((lp7197
tp7198
Rp7199
ag14
((lp7200
tp7201
Rp7202
ag14
((lp7203
tp7204
Rp7205
ag14
((lp7206
tp7207
Rp7208
ag14
((lp7209
tp7210
Rp7211
ag14
((lp7212
I-1930
atp7213
Rp7214
ag14
((lp7215
tp7216
Rp7217
ag14
((lp7218
tp7219
Rp7220
ag14
((lp7221
I-1912
aI-1914
atp7222
Rp7223
ag14
((lp7224
I-1912
aI-1915
atp7225
Rp7226
ag14
((lp7227
tp7228
Rp7229
ag14
((lp7230
I-1915
aI-1914
atp7231
Rp7232
ag14
((lp7233
tp7234
Rp7235
ag14
((lp7236
tp7237
Rp7238
ag14
((lp7239
tp7240
Rp7241
ag14
((lp7242
I-1904
aI-1906
atp7243
Rp7244
ag14
((lp7245
tp7246
Rp7247
ag14
((lp7248
I-1904
aI-1908
atp7249
Rp7250
ag14
((lp7251
I1908
atp7252
Rp7253
ag14
((lp7254
I-1908
aI-1906
atp7255
Rp7256
ag14
((lp7257
tp7258
Rp7259
ag14
((lp7260
tp7261
Rp7262
ag14
((lp7263
tp7264
Rp7265
ag14
((lp7266
tp7267
Rp7268
ag14
((lp7269
tp7270
Rp7271
ag14
((lp7272
tp7273
Rp7274
ag14
((lp7275
tp7276
Rp7277
ag14
((lp7278
tp7279
Rp7280
ag14
((lp7281
tp7282
Rp7283
ag14
((lp7284
I-1877
atp7285
Rp7286
ag14
((lp7287
tp7288
Rp7289
ag14
((lp7290
tp7291
Rp7292
ag14
((lp7293
I-1880
aI-1884
aI-1890
atp7294
Rp7295
ag14
((lp7296
I-1884
aI-1891
atp7297
Rp7298
ag14
((lp7299
tp7300
Rp7301
ag14
((lp7302
tp7303
Rp7304
ag14
((lp7305
tp7306
Rp7307
ag14
((lp7308
tp7309
Rp7310
ag14
((lp7311
tp7312
Rp7313
ag14
((lp7314
I-1880
aI-1891
aI-1890
atp7315
Rp7316
ag14
((lp7317
tp7318
Rp7319
ag14
((lp7320
I-1877
atp7321
Rp7322
ag14
((lp7323
I1892
aI-1875
atp7324
Rp7325
ag14
((lp7326
I-1884
aI-1891
atp7327
Rp7328
ag14
((lp7329
tp7330
Rp7331
ag14
((lp7332
I1890
atp7333
Rp7334
ag14
((lp7335
I-1894
aI-1882
atp7336
Rp7337
ag14
((lp7338
tp7339
Rp7340
ag14
((lp7341
I1892
aI-1881
atp7342
Rp7343
ag14
((lp7344
tp7345
Rp7346
ag14
((lp7347
tp7348
Rp7349
ag14
((lp7350
tp7351
Rp7352
ag14
((lp7353
I-1936
aI-1931
atp7354
Rp7355
ag14
((lp7356
tp7357
Rp7358
ag14
((lp7359
tp7360
Rp7361
ag14
((lp7362
tp7363
Rp7364
ag14
((lp7365
tp7366
Rp7367
ag14
((lp7368
tp7369
Rp7370
ag14
((lp7371
tp7372
Rp7373
ag14
((lp7374
tp7375
Rp7376
ag14
((lp7377
I1871
atp7378
Rp7379
ag14
((lp7380
tp7381
Rp7382
ag14
((lp7383
tp7384
Rp7385
ag14
((lp7386
I1864
aI1861
aI1862
aI1863
atp7387
Rp7388
ag14
((lp7389
tp7390
Rp7391
ag14
((lp7392
tp7393
Rp7394
ag14
((lp7395
I-1850
atp7396
Rp7397
ag14
((lp7398
tp7399
Rp7400
ag14
((lp7401
tp7402
Rp7403
ag14
((lp7404
tp7405
Rp7406
ag14
((lp7407
tp7408
Rp7409
ag14
((lp7410
tp7411
Rp7412
ag14
((lp7413
tp7414
Rp7415
ag14
((lp7416
I-1857
atp7417
Rp7418
ag14
((lp7419
tp7420
Rp7421
ag14
((lp7422
tp7423
Rp7424
ag14
((lp7425
tp7426
Rp7427
ag14
((lp7428
I-1832
aI-1837
atp7429
Rp7430
ag14
((lp7431
tp7432
Rp7433
ag14
((lp7434
tp7435
Rp7436
ag14
((lp7437
tp7438
Rp7439
ag14
((lp7440
I-1800
aI-1829
atp7441
Rp7442
ag14
((lp7443
I-1835
atp7444
Rp7445
ag14
((lp7446
tp7447
Rp7448
ag14
((lp7449
tp7450
Rp7451
ag14
((lp7452
tp7453
Rp7454
ag14
((lp7455
I-1832
aI-1846
atp7456
Rp7457
ag14
((lp7458
tp7459
Rp7460
ag14
((lp7461
I-1841
atp7462
Rp7463
ag14
((lp7464
tp7465
Rp7466
ag14
((lp7467
tp7468
Rp7469
ag14
((lp7470
I-1846
aI-1837
atp7471
Rp7472
ag14
((lp7473
I1841
atp7474
Rp7475
ag14
((lp7476
tp7477
Rp7478
ag14
((lp7479
I-1842
atp7480
Rp7481
ag14
((lp7482
tp7483
Rp7484
ag14
((lp7485
tp7486
Rp7487
ag14
((lp7488
tp7489
Rp7490
ag14
((lp7491
tp7492
Rp7493
ag14
((lp7494
I-1820
atp7495
Rp7496
ag14
((lp7497
tp7498
Rp7499
ag14
((lp7500
tp7501
Rp7502
ag14
((lp7503
tp7504
Rp7505
ag14
((lp7506
I-1824
atp7507
Rp7508
ag14
((lp7509
tp7510
Rp7511
ag14
((lp7512
I-1807
aI-1803
aI-1815
atp7513
Rp7514
ag14
((lp7515
tp7516
Rp7517
ag14
((lp7518
tp7519
Rp7520
ag14
((lp7521
I-1807
aI-1803
aI-1818
atp7522
Rp7523
ag14
((lp7524
tp7525
Rp7526
ag14
((lp7527
tp7528
Rp7529
ag14
((lp7530
I-1808
aI-1805
aI-1802
atp7531
Rp7532
ag14
((lp7533
tp7534
Rp7535
ag14
((lp7536
I-1790
aI-1809
atp7537
Rp7538
ag14
((lp7539
I-1790
aI-1810
atp7540
Rp7541
ag14
((lp7542
I-1806
aI-1805
aI-1812
aI-1802
atp7543
Rp7544
ag14
((lp7545
I-1815
aI-1803
aI-1818
atp7546
Rp7547
ag14
((lp7548
I-1808
aI-1805
aI-1802
atp7549
Rp7550
ag14
((lp7551
I-1808
aI-1806
aI-1812
aI-1802
atp7552
Rp7553
ag14
((lp7554
tp7555
Rp7556
ag14
((lp7557
I-1815
aI-1818
aI-1807
atp7558
Rp7559
ag14
((lp7560
I-1808
aI-1806
aI-1805
aI-1812
atp7561
Rp7562
ag14
((lp7563
tp7564
Rp7565
ag14
((lp7566
I-1842
atp7567
Rp7568
ag14
((lp7569
tp7570
Rp7571
ag14
((lp7572
tp7573
Rp7574
ag14
((lp7575
tp7576
Rp7577
ag14
((lp7578
tp7579
Rp7580
ag14
((lp7581
tp7582
Rp7583
ag14
((lp7584
tp7585
Rp7586
ag14
((lp7587
tp7588
Rp7589
ag14
((lp7590
tp7591
Rp7592
ag14
((lp7593
I-1788
atp7594
Rp7595
ag14
((lp7596
I-1810
aI-1809
atp7597
Rp7598
ag14
((lp7599
I-1781
aI-1780
aI-1779
atp7600
Rp7601
ag14
((lp7602
I-1791
atp7603
Rp7604
ag14
((lp7605
tp7606
Rp7607
ag14
((lp7608
tp7609
Rp7610
ag14
((lp7611
tp7612
Rp7613
ag14
((lp7614
tp7615
Rp7616
ag14
((lp7617
I-1776
aI-1775
atp7618
Rp7619
ag14
((lp7620
I-1776
atp7621
Rp7622
ag14
((lp7623
I-1789
aI-1780
aI-1779
atp7624
Rp7625
ag14
((lp7626
I-1789
aI-1781
aI-1779
atp7627
Rp7628
ag14
((lp7629
I-1781
aI-1789
aI-1780
atp7630
Rp7631
ag14
((lp7632
tp7633
Rp7634
ag14
((lp7635
tp7636
Rp7637
ag14
((lp7638
I-1783
aI-1782
aI-1775
atp7639
Rp7640
ag14
((lp7641
I-1776
aI-1783
atp7642
Rp7643
ag14
((lp7644
tp7645
Rp7646
ag14
((lp7647
tp7648
Rp7649
ag14
((lp7650
tp7651
Rp7652
ag14
((lp7653
tp7654
Rp7655
ag14
((lp7656
tp7657
Rp7658
ag14
((lp7659
I1820
aI1821
atp7660
Rp7661
ag14
((lp7662
tp7663
Rp7664
ag14
((lp7665
tp7666
Rp7667
ag14
((lp7668
tp7669
Rp7670
ag14
((lp7671
tp7672
Rp7673
ag14
((lp7674
tp7675
Rp7676
ag14
((lp7677
tp7678
Rp7679
ag14
((lp7680
tp7681
Rp7682
ag14
((lp7683
tp7684
Rp7685
ag14
((lp7686
tp7687
Rp7688
ag14
((lp7689
tp7690
Rp7691
ag14
((lp7692
tp7693
Rp7694
ag14
((lp7695
tp7696
Rp7697
ag14
((lp7698
I1773
atp7699
Rp7700
ag14
((lp7701
tp7702
Rp7703
ag14
((lp7704
tp7705
Rp7706
ag14
((lp7707
tp7708
Rp7709
ag14
((lp7710
tp7711
Rp7712
ag14
((lp7713
tp7714
Rp7715
ag14
((lp7716
tp7717
Rp7718
ag14
((lp7719
tp7720
Rp7721
ag14
((lp7722
tp7723
Rp7724
ag14
((lp7725
tp7726
Rp7727
ag14
((lp7728
tp7729
Rp7730
ag14
((lp7731
tp7732
Rp7733
ag14
((lp7734
tp7735
Rp7736
ag14
((lp7737
tp7738
Rp7739
ag14
((lp7740
tp7741
Rp7742
ag14
((lp7743
tp7744
Rp7745
ag14
((lp7746
tp7747
Rp7748
ag14
((lp7749
tp7750
Rp7751
ag14
((lp7752
tp7753
Rp7754
ag14
((lp7755
tp7756
Rp7757
ag14
((lp7758
I-1730
atp7759
Rp7760
ag14
((lp7761
tp7762
Rp7763
ag14
((lp7764
tp7765
Rp7766
ag14
((lp7767
tp7768
Rp7769
ag14
((lp7770
tp7771
Rp7772
ag14
((lp7773
tp7774
Rp7775
ag14
((lp7776
I-1736
atp7777
Rp7778
ag14
((lp7779
tp7780
Rp7781
ag14
((lp7782
tp7783
Rp7784
ag14
((lp7785
tp7786
Rp7787
ag14
((lp7788
tp7789
Rp7790
ag14
((lp7791
I-1721
atp7792
Rp7793
ag14
((lp7794
I-1720
atp7795
Rp7796
ag14
((lp7797
tp7798
Rp7799
ag14
((lp7800
tp7801
Rp7802
ag14
((lp7803
I-1725
atp7804
Rp7805
ag14
((lp7806
I-1660
aI-1724
atp7807
Rp7808
ag14
((lp7809
I1723
atp7810
Rp7811
ag14
((lp7812
tp7813
Rp7814
ag14
((lp7815
tp7816
Rp7817
ag14
((lp7818
tp7819
Rp7820
ag14
((lp7821
tp7822
Rp7823
ag14
((lp7824
tp7825
Rp7826
ag14
((lp7827
tp7828
Rp7829
ag14
((lp7830
I1744
atp7831
Rp7832
ag14
((lp7833
tp7834
Rp7835
ag14
((lp7836
tp7837
Rp7838
ag14
((lp7839
tp7840
Rp7841
ag14
((lp7842
tp7843
Rp7844
ag14
((lp7845
tp7846
Rp7847
ag14
((lp7848
tp7849
Rp7850
ag14
((lp7851
tp7852
Rp7853
ag14
((lp7854
tp7855
Rp7856
ag14
((lp7857
tp7858
Rp7859
ag14
((lp7860
tp7861
Rp7862
ag14
((lp7863
tp7864
Rp7865
ag14
((lp7866
tp7867
Rp7868
ag14
((lp7869
tp7870
Rp7871
ag14
((lp7872
tp7873
Rp7874
ag14
((lp7875
tp7876
Rp7877
ag14
((lp7878
tp7879
Rp7880
ag14
((lp7881
tp7882
Rp7883
ag14
((lp7884
tp7885
Rp7886
ag14
((lp7887
tp7888
Rp7889
ag14
((lp7890
tp7891
Rp7892
ag14
((lp7893
tp7894
Rp7895
ag14
((lp7896
tp7897
Rp7898
ag14
((lp7899
I-1687
aI-1675
aI-1682
atp7900
Rp7901
ag14
((lp7902
I-1677
aI-1676
atp7903
Rp7904
ag14
((lp7905
I-1675
aI-1682
aI-1689
atp7906
Rp7907
ag14
((lp7908
tp7909
Rp7910
ag14
((lp7911
I1691
atp7912
Rp7913
ag14
((lp7914
I1689
atp7915
Rp7916
ag14
((lp7917
I1690
atp7918
Rp7919
ag14
((lp7920
I-1687
aI-1675
aI-1689
atp7921
Rp7922
ag14
((lp7923
I1682
atp7924
Rp7925
ag14
((lp7926
tp7927
Rp7928
ag14
((lp7929
tp7930
Rp7931
ag14
((lp7932
tp7933
Rp7934
ag14
((lp7935
I-1688
aI-1676
atp7936
Rp7937
ag14
((lp7938
I-1688
aI-1677
atp7939
Rp7940
ag14
((lp7941
I-1687
aI-1682
aI-1689
atp7942
Rp7943
ag14
((lp7944
I1681
aI-1666
atp7945
Rp7946
ag14
((lp7947
tp7948
Rp7949
ag14
((lp7950
tp7951
Rp7952
ag14
((lp7953
tp7954
Rp7955
ag14
((lp7956
tp7957
Rp7958
ag14
((lp7959
tp7960
Rp7961
ag14
((lp7962
I-1648
atp7963
Rp7964
ag14
((lp7965
tp7966
Rp7967
ag14
((lp7968
I1681
aI-1674
atp7969
Rp7970
ag14
((lp7971
tp7972
Rp7973
ag14
((lp7974
tp7975
Rp7976
ag14
((lp7977
I-1654
atp7978
Rp7979
ag14
((lp7980
I1664
atp7981
Rp7982
ag14
((lp7983
tp7984
Rp7985
ag14
((lp7986
I-1720
atp7987
Rp7988
ag14
((lp7989
I-1645
aI-1652
atp7990
Rp7991
ag14
((lp7992
tp7993
Rp7994
ag14
((lp7995
tp7996
Rp7997
ag14
((lp7998
tp7999
Rp8000
ag14
((lp8001
tp8002
Rp8003
ag14
((lp8004
I-1663
atp8005
Rp8006
ag14
((lp8007
I-1647
atp8008
Rp8009
ag14
((lp8010
I-1645
aI-1659
atp8011
Rp8012
ag14
((lp8013
tp8014
Rp8015
ag14
((lp8016
tp8017
Rp8018
ag14
((lp8019
tp8020
Rp8021
ag14
((lp8022
I-1668
atp8023
Rp8024
ag14
((lp8025
I-1653
atp8026
Rp8027
ag14
((lp8028
tp8029
Rp8030
ag14
((lp8031
I-1652
aI-1659
atp8032
Rp8033
ag14
((lp8034
tp8035
Rp8036
ag14
((lp8037
I-1640
aI-1639
aI-1637
aI-1642
atp8038
Rp8039
ag14
((lp8040
I-1640
aI-1639
aI-1637
aI-1643
atp8041
Rp8042
ag14
((lp8043
I1642
aI1643
atp8044
Rp8045
ag14
((lp8046
I-1639
aI-1637
aI-1643
aI-1642
atp8047
Rp8048
ag14
((lp8049
I-1640
aI-1637
aI-1643
aI-1642
atp8050
Rp8051
ag14
((lp8052
tp8053
Rp8054
ag14
((lp8055
I-1640
aI-1639
aI-1643
aI-1642
atp8056
Rp8057
ag14
((lp8058
tp8059
Rp8060
ag14
((lp8061
tp8062
Rp8063
ag14
((lp8064
tp8065
Rp8066
ag14
((lp8067
tp8068
Rp8069
ag14
((lp8070
I-1629
atp8071
Rp8072
ag14
((lp8073
I-1375
aI-1630
aI-1628
atp8074
Rp8075
ag14
((lp8076
I-1631
aI-1628
aI-1375
atp8077
Rp8078
ag14
((lp8079
I-1632
atp8080
Rp8081
ag14
((lp8082
I-1631
aI-1630
aI-1610
aI-1375
atp8083
Rp8084
ag14
((lp8085
tp8086
Rp8087
ag14
((lp8088
tp8089
Rp8090
ag14
((lp8091
I-1624
aI-1623
aI-1622
aI-1621
aI-1619
atp8092
Rp8093
ag14
((lp8094
I-1622
aI-1621
aI-1619
aI-1625
atp8095
Rp8096
ag14
((lp8097
I-1621
aI-1619
aI-1625
atp8098
Rp8099
ag14
((lp8100
I-1624
aI-1621
aI-1619
aI-1625
atp8101
Rp8102
ag14
((lp8103
I-1625
aI-1624
aI-1623
aI-1622
aI-1619
atp8104
Rp8105
ag14
((lp8106
tp8107
Rp8108
ag14
((lp8109
I-1625
aI-1624
aI-1623
aI-1622
aI-1621
atp8110
Rp8111
ag14
((lp8112
I1625
atp8113
Rp8114
ag14
((lp8115
tp8116
Rp8117
ag14
((lp8118
tp8119
Rp8120
ag14
((lp8121
tp8122
Rp8123
ag14
((lp8124
I-1608
aI-1605
aI1615
atp8125
Rp8126
ag14
((lp8127
tp8128
Rp8129
ag14
((lp8130
tp8131
Rp8132
ag14
((lp8133
tp8134
Rp8135
ag14
((lp8136
I-1628
atp8137
Rp8138
ag14
((lp8139
tp8140
Rp8141
ag14
((lp8142
I-1614
aI-1605
aI1615
atp8143
Rp8144
ag14
((lp8145
tp8146
Rp8147
ag14
((lp8148
tp8149
Rp8150
ag14
((lp8151
I-1608
aI-1614
aI1615
atp8152
Rp8153
ag14
((lp8154
I1606
aI-1602
atp8155
Rp8156
ag14
((lp8157
tp8158
Rp8159
ag14
((lp8160
I-1604
aI1605
aI1606
atp8161
Rp8162
ag14
((lp8163
tp8164
Rp8165
ag14
((lp8166
I1617
aI1618
aI1619
aI1620
atp8167
Rp8168
ag14
((lp8169
tp8170
Rp8171
ag14
((lp8172
tp8173
Rp8174
ag14
((lp8175
tp8176
Rp8177
ag14
((lp8178
tp8179
Rp8180
ag14
((lp8181
tp8182
Rp8183
ag14
((lp8184
I-1582
atp8185
Rp8186
ag14
((lp8187
tp8188
Rp8189
ag14
((lp8190
tp8191
Rp8192
ag14
((lp8193
tp8194
Rp8195
ag14
((lp8196
tp8197
Rp8198
ag14
((lp8199
tp8200
Rp8201
ag14
((lp8202
tp8203
Rp8204
ag14
((lp8205
tp8206
Rp8207
ag14
((lp8208
tp8209
Rp8210
ag14
((lp8211
tp8212
Rp8213
ag14
((lp8214
tp8215
Rp8216
ag14
((lp8217
tp8218
Rp8219
ag14
((lp8220
I-1594
atp8221
Rp8222
ag14
((lp8223
tp8224
Rp8225
ag14
((lp8226
tp8227
Rp8228
ag14
((lp8229
I1582
aI1581
atp8230
Rp8231
ag14
((lp8232
tp8233
Rp8234
ag14
((lp8235
tp8236
Rp8237
ag14
((lp8238
tp8239
Rp8240
ag14
((lp8241
I1578
atp8242
Rp8243
ag14
((lp8244
tp8245
Rp8246
ag14
((lp8247
I-1572
atp8248
Rp8249
ag14
((lp8250
I-1573
atp8251
Rp8252
ag14
((lp8253
tp8254
Rp8255
ag14
((lp8256
tp8257
Rp8258
ag14
((lp8259
tp8260
Rp8261
ag14
((lp8262
tp8263
Rp8264
ag14
((lp8265
tp8266
Rp8267
ag14
((lp8268
tp8269
Rp8270
ag14
((lp8271
tp8272
Rp8273
ag14
((lp8274
I-1559
aI1565
atp8275
Rp8276
ag14
((lp8277
I-1561
atp8278
Rp8279
ag14
((lp8280
tp8281
Rp8282
ag14
((lp8283
I-1563
atp8284
Rp8285
ag14
((lp8286
tp8287
Rp8288
ag14
((lp8289
I-1564
atp8290
Rp8291
ag14
((lp8292
tp8293
Rp8294
ag14
((lp8295
tp8296
Rp8297
ag14
((lp8298
tp8299
Rp8300
ag14
((lp8301
tp8302
Rp8303
ag14
((lp8304
tp8305
Rp8306
ag14
((lp8307
tp8308
Rp8309
ag14
((lp8310
tp8311
Rp8312
ag14
((lp8313
tp8314
Rp8315
ag14
((lp8316
tp8317
Rp8318
ag14
((lp8319
tp8320
Rp8321
ag14
((lp8322
tp8323
Rp8324
ag14
((lp8325
tp8326
Rp8327
ag14
((lp8328
tp8329
Rp8330
ag14
((lp8331
tp8332
Rp8333
ag14
((lp8334
tp8335
Rp8336
ag14
((lp8337
tp8338
Rp8339
ag14
((lp8340
tp8341
Rp8342
ag14
((lp8343
tp8344
Rp8345
ag14
((lp8346
tp8347
Rp8348
ag14
((lp8349
I-1536
atp8350
Rp8351
ag14
((lp8352
tp8353
Rp8354
ag14
((lp8355
I-1526
atp8356
Rp8357
ag14
((lp8358
I-1539
atp8359
Rp8360
ag14
((lp8361
tp8362
Rp8363
ag14
((lp8364
tp8365
Rp8366
ag14
((lp8367
I-1525
aI-1522
atp8368
Rp8369
ag14
((lp8370
tp8371
Rp8372
ag14
((lp8373
tp8374
Rp8375
ag14
((lp8376
I-1520
aI-1517
aI-1516
aI-1521
atp8377
Rp8378
ag14
((lp8379
tp8380
Rp8381
ag14
((lp8382
tp8383
Rp8384
ag14
((lp8385
tp8386
Rp8387
ag14
((lp8388
I-1537
atp8389
Rp8390
ag14
((lp8391
I-1533
aI-1522
aI1535
atp8392
Rp8393
ag14
((lp8394
I-1522
aI1535
atp8395
Rp8396
ag14
((lp8397
tp8398
Rp8399
ag14
((lp8400
I-1525
aI-1533
aI-1524
aI1535
atp8401
Rp8402
ag14
((lp8403
I-1520
aI-1517
aI-1516
aI-1530
atp8404
Rp8405
ag14
((lp8406
I-1517
aI-1516
aI-1530
aI-1521
atp8407
Rp8408
ag14
((lp8409
tp8410
Rp8411
ag14
((lp8412
tp8413
Rp8414
ag14
((lp8415
I-1520
aI-1516
aI-1530
aI-1521
atp8416
Rp8417
ag14
((lp8418
I-1520
aI-1517
aI-1530
aI-1521
atp8419
Rp8420
ag14
((lp8421
I1516
atp8422
Rp8423
ag14
((lp8424
tp8425
Rp8426
ag14
((lp8427
I-1510
atp8428
Rp8429
ag14
((lp8430
tp8431
Rp8432
ag14
((lp8433
tp8434
Rp8435
ag14
((lp8436
I-1513
atp8437
Rp8438
ag14
((lp8439
tp8440
Rp8441
ag14
((lp8442
I1517
atp8443
Rp8444
ag14
((lp8445
tp8446
Rp8447
ag14
((lp8448
tp8449
Rp8450
ag14
((lp8451
tp8452
Rp8453
ag14
((lp8454
I-1495
aI-1484
aI-1499
aI-1497
atp8455
Rp8456
ag14
((lp8457
I-1496
atp8458
Rp8459
ag14
((lp8460
I-1494
atp8461
Rp8462
ag14
((lp8463
tp8464
Rp8465
ag14
((lp8466
tp8467
Rp8468
ag14
((lp8469
I-1504
aI-1495
atp8470
Rp8471
ag14
((lp8472
tp8473
Rp8474
ag14
((lp8475
I-1504
aI-1484
atp8476
Rp8477
ag14
((lp8478
I-1503
atp8479
Rp8480
ag14
((lp8481
I-1504
aI-1499
atp8482
Rp8483
ag14
((lp8484
I-1502
atp8485
Rp8486
ag14
((lp8487
tp8488
Rp8489
ag14
((lp8490
I-1488
aI1501
atp8491
Rp8492
ag14
((lp8493
tp8494
Rp8495
ag14
((lp8496
tp8497
Rp8498
ag14
((lp8499
I-1487
aI1490
aI1492
aI1493
aI1494
aI1497
aI1498
atp8500
Rp8501
ag14
((lp8502
I-1492
aI1501
atp8503
Rp8504
ag14
((lp8505
I-1489
aI1490
aI1491
aI1492
aI1493
aI1494
aI1495
aI1497
aI1498
atp8506
Rp8507
ag14
((lp8508
tp8509
Rp8510
ag14
((lp8511
tp8512
Rp8513
ag14
((lp8514
I-1504
aI-1497
atp8515
Rp8516
ag14
((lp8517
tp8518
Rp8519
ag14
((lp8520
tp8521
Rp8522
ag14
((lp8523
tp8524
Rp8525
ag14
((lp8526
tp8527
Rp8528
ag14
((lp8529
tp8530
Rp8531
ag14
((lp8532
tp8533
Rp8534
ag14
((lp8535
tp8536
Rp8537
ag14
((lp8538
tp8539
Rp8540
ag14
((lp8541
I-1925
aI-1929
atp8542
Rp8543
ag14
((lp8544
tp8545
Rp8546
ag14
((lp8547
tp8548
Rp8549
ag14
((lp8550
tp8551
Rp8552
ag14
((lp8553
tp8554
Rp8555
ag14
((lp8556
I-1459
aI1471
atp8557
Rp8558
ag14
((lp8559
I-1449
aI-1398
aI-1441
atp8560
Rp8561
ag14
((lp8562
tp8563
Rp8564
ag14
((lp8565
I-1465
aI-1463
aI-1457
aI-1456
aI-1455
aI-1452
aI-1450
atp8566
Rp8567
ag14
((lp8568
tp8569
Rp8570
ag14
((lp8571
I-1452
aI-1467
aI-1450
aI-1463
aI-1457
atp8572
Rp8573
ag14
((lp8574
I-1427
aI-1457
atp8575
Rp8576
ag14
((lp8577
I-1467
aI-1465
aI-1457
aI-1456
aI-1455
aI-1452
aI-1450
atp8578
Rp8579
ag14
((lp8580
I-1454
atp8581
Rp8582
ag14
((lp8583
tp8584
Rp8585
ag14
((lp8586
tp8587
Rp8588
ag14
((lp8589
I-1470
atp8590
Rp8591
ag14
((lp8592
I-1398
aI-1441
aI-1449
atp8593
Rp8594
ag14
((lp8595
I-1467
aI-1465
aI-1464
aI-1463
aI-1427
aI-1456
aI-1455
aI-1452
aI-1450
atp8596
Rp8597
ag14
((lp8598
I-1455
aI-1452
aI-1467
aI-1450
aI-1463
aI-1457
atp8599
Rp8600
ag14
((lp8601
I-1467
aI-1463
aI-1427
aI-1457
aI-1456
aI-1452
aI-1450
atp8602
Rp8603
ag14
((lp8604
I-1462
atp8605
Rp8606
ag14
((lp8607
tp8608
Rp8609
ag14
((lp8610
I-1467
aI-1465
aI-1463
aI-1457
aI-1456
aI-1455
aI-1450
atp8611
Rp8612
ag14
((lp8613
tp8614
Rp8615
ag14
((lp8616
I-1467
aI-1465
aI-1463
aI-1457
aI-1456
aI-1455
aI-1452
atp8617
Rp8618
ag14
((lp8619
I-1398
aI-1469
aI-1458
aI-1441
atp8620
Rp8621
ag14
((lp8622
tp8623
Rp8624
ag14
((lp8625
tp8626
Rp8627
ag14
((lp8628
tp8629
Rp8630
ag14
((lp8631
tp8632
Rp8633
ag14
((lp8634
tp8635
Rp8636
ag14
((lp8637
tp8638
Rp8639
ag14
((lp8640
tp8641
Rp8642
ag14
((lp8643
I-1449
aI-1398
aI-1469
aI-1458
atp8644
Rp8645
ag14
((lp8646
I-1420
atp8647
Rp8648
ag14
((lp8649
I1441
atp8650
Rp8651
ag14
((lp8652
tp8653
Rp8654
ag14
((lp8655
tp8656
Rp8657
ag14
((lp8658
tp8659
Rp8660
ag14
((lp8661
tp8662
Rp8663
ag14
((lp8664
tp8665
Rp8666
ag14
((lp8667
tp8668
Rp8669
ag14
((lp8670
tp8671
Rp8672
ag14
((lp8673
tp8674
Rp8675
ag14
((lp8676
tp8677
Rp8678
ag14
((lp8679
tp8680
Rp8681
ag14
((lp8682
tp8683
Rp8684
ag14
((lp8685
I-1464
aI-1455
aI-1457
atp8686
Rp8687
ag14
((lp8688
tp8689
Rp8690
ag14
((lp8691
tp8692
Rp8693
ag14
((lp8694
tp8695
Rp8696
ag14
((lp8697
I1440
atp8698
Rp8699
ag14
((lp8700
tp8701
Rp8702
ag14
((lp8703
I-1418
atp8704
Rp8705
ag14
((lp8706
I-1440
atp8707
Rp8708
ag14
((lp8709
tp8710
Rp8711
ag14
((lp8712
I-1421
atp8713
Rp8714
ag14
((lp8715
tp8716
Rp8717
ag14
((lp8718
tp8719
Rp8720
ag14
((lp8721
tp8722
Rp8723
ag14
((lp8724
tp8725
Rp8726
ag14
((lp8727
tp8728
Rp8729
ag14
((lp8730
tp8731
Rp8732
ag14
((lp8733
tp8734
Rp8735
ag14
((lp8736
I-1395
aI-1403
atp8737
Rp8738
ag14
((lp8739
tp8740
Rp8741
ag14
((lp8742
tp8743
Rp8744
ag14
((lp8745
tp8746
Rp8747
ag14
((lp8748
tp8749
Rp8750
ag14
((lp8751
I1408
atp8752
Rp8753
ag14
((lp8754
I-1401
atp8755
Rp8756
ag14
((lp8757
I-1395
aI-1410
atp8758
Rp8759
ag14
((lp8760
tp8761
Rp8762
ag14
((lp8763
I-1404
atp8764
Rp8765
ag14
((lp8766
I1406
atp8767
Rp8768
ag14
((lp8769
tp8770
Rp8771
ag14
((lp8772
I-1449
aI-1469
aI-1458
aI-1441
atp8773
Rp8774
ag14
((lp8775
tp8776
Rp8777
ag14
((lp8778
tp8779
Rp8780
ag14
((lp8781
I-1403
aI-1410
atp8782
Rp8783
ag14
((lp8784
I-1390
atp8785
Rp8786
ag14
((lp8787
I1400
aI1399
atp8788
Rp8789
ag14
((lp8790
tp8791
Rp8792
ag14
((lp8793
tp8794
Rp8795
ag14
((lp8796
I-1394
atp8797
Rp8798
ag14
((lp8799
I-1373
aI-1386
atp8800
Rp8801
ag14
((lp8802
tp8803
Rp8804
ag14
((lp8805
I1663
atp8806
Rp8807
ag14
((lp8808
I-1389
aI-1373
atp8809
Rp8810
ag14
((lp8811
tp8812
Rp8813
ag14
((lp8814
tp8815
Rp8816
ag14
((lp8817
tp8818
Rp8819
ag14
((lp8820
I-1372
aI-1379
atp8821
Rp8822
ag14
((lp8823
tp8824
Rp8825
ag14
((lp8826
tp8827
Rp8828
ag14
((lp8829
I-1382
atp8830
Rp8831
ag14
((lp8832
tp8833
Rp8834
ag14
((lp8835
tp8836
Rp8837
ag14
((lp8838
I-1371
aI1382
aI-1369
atp8839
Rp8840
ag14
((lp8841
I-1630
aI-1628
aI-1631
atp8842
Rp8843
ag14
((lp8844
I-3
atp8845
Rp8846
ag14
((lp8847
I-1389
aI-1386
atp8848
Rp8849
ag14
((lp8850
I1384
aI-1382
atp8851
Rp8852
ag14
((lp8853
I-1376
aI1382
aI-1369
atp8854
Rp8855
ag14
((lp8856
tp8857
Rp8858
ag14
((lp8859
I-1376
aI-1371
aI1382
atp8860
Rp8861
ag14
((lp8862
tp8863
Rp8864
ag14
((lp8865
tp8866
Rp8867
ag14
((lp8868
tp8869
Rp8870
ag14
((lp8871
tp8872
Rp8873
ag14
((lp8874
tp8875
Rp8876
ag14
((lp8877
tp8878
Rp8879
ag14
((lp8880
tp8881
Rp8882
ag14
((lp8883
tp8884
Rp8885
ag14
((lp8886
tp8887
Rp8888
ag14
((lp8889
I-1339
atp8890
Rp8891
ag14
((lp8892
tp8893
Rp8894
ag14
((lp8895
tp8896
Rp8897
ag14
((lp8898
I1660
aI1659
atp8899
Rp8900
ag14
((lp8901
I-1353
atp8902
Rp8903
ag14
((lp8904
I1359
atp8905
Rp8906
ag14
((lp8907
I-1355
atp8908
Rp8909
ag14
((lp8910
tp8911
Rp8912
ag14
((lp8913
tp8914
Rp8915
ag14
((lp8916
I-1335
atp8917
Rp8918
ag14
((lp8919
tp8920
Rp8921
ag14
((lp8922
tp8923
Rp8924
ag14
((lp8925
tp8926
Rp8927
ag14
((lp8928
tp8929
Rp8930
ag14
((lp8931
tp8932
Rp8933
ag14
((lp8934
tp8935
Rp8936
ag14
((lp8937
I-1338
atp8938
Rp8939
ag14
((lp8940
tp8941
Rp8942
ag14
((lp8943
tp8944
Rp8945
ag14
((lp8946
I-1327
aI-1334
aI-1331
aI-1337
atp8947
Rp8948
ag14
((lp8949
I-1359
atp8950
Rp8951
ag14
((lp8952
I-1343
atp8953
Rp8954
ag14
((lp8955
I-1327
aI-1334
aI-1340
aI-1331
atp8956
Rp8957
ag14
((lp8958
tp8959
Rp8960
ag14
((lp8961
I-1350
atp8962
Rp8963
ag14
((lp8964
I-1327
aI-1340
aI-1331
aI-1337
atp8965
Rp8966
ag14
((lp8967
tp8968
Rp8969
ag14
((lp8970
tp8971
Rp8972
ag14
((lp8973
I-1327
aI-1334
aI-1340
aI-1337
atp8974
Rp8975
ag14
((lp8976
tp8977
Rp8978
ag14
((lp8979
I-931
atp8980
Rp8981
ag14
((lp8982
tp8983
Rp8984
ag14
((lp8985
I-1334
aI-1340
aI-1331
aI-1337
atp8986
Rp8987
ag14
((lp8988
tp8989
Rp8990
ag14
((lp8991
tp8992
Rp8993
ag14
((lp8994
tp8995
Rp8996
ag14
((lp8997
tp8998
Rp8999
ag14
((lp9000
tp9001
Rp9002
ag14
((lp9003
tp9004
Rp9005
ag14
((lp9006
tp9007
Rp9008
ag14
((lp9009
tp9010
Rp9011
ag14
((lp9012
tp9013
Rp9014
ag14
((lp9015
tp9016
Rp9017
ag14
((lp9018
tp9019
Rp9020
ag14
((lp9021
tp9022
Rp9023
ag14
((lp9024
tp9025
Rp9026
ag14
((lp9027
tp9028
Rp9029
ag14
((lp9030
tp9031
Rp9032
ag14
((lp9033
tp9034
Rp9035
ag14
((lp9036
tp9037
Rp9038
ag14
((lp9039
tp9040
Rp9041
ag14
((lp9042
tp9043
Rp9044
ag14
((lp9045
tp9046
Rp9047
ag14
((lp9048
tp9049
Rp9050
ag14
((lp9051
tp9052
Rp9053
ag14
((lp9054
tp9055
Rp9056
ag14
((lp9057
tp9058
Rp9059
ag14
((lp9060
tp9061
Rp9062
ag14
((lp9063
tp9064
Rp9065
ag14
((lp9066
tp9067
Rp9068
ag14
((lp9069
tp9070
Rp9071
ag14
((lp9072
tp9073
Rp9074
ag14
((lp9075
tp9076
Rp9077
ag14
((lp9078
tp9079
Rp9080
ag14
((lp9081
tp9082
Rp9083
ag14
((lp9084
tp9085
Rp9086
ag14
((lp9087
tp9088
Rp9089
ag14
((lp9090
tp9091
Rp9092
ag14
((lp9093
tp9094
Rp9095
ag14
((lp9096
tp9097
Rp9098
ag14
((lp9099
tp9100
Rp9101
ag14
((lp9102
tp9103
Rp9104
ag14
((lp9105
tp9106
Rp9107
ag14
((lp9108
tp9109
Rp9110
ag14
((lp9111
tp9112
Rp9113
ag14
((lp9114
tp9115
Rp9116
ag14
((lp9117
tp9118
Rp9119
ag14
((lp9120
tp9121
Rp9122
ag14
((lp9123
tp9124
Rp9125
ag14
((lp9126
tp9127
Rp9128
ag14
((lp9129
I1280
atp9130
Rp9131
ag14
((lp9132
tp9133
Rp9134
ag14
((lp9135
I-1275
atp9136
Rp9137
ag14
((lp9138
tp9139
Rp9140
ag14
((lp9141
I-1277
atp9142
Rp9143
ag14
((lp9144
tp9145
Rp9146
ag14
((lp9147
tp9148
Rp9149
ag14
((lp9150
tp9151
Rp9152
ag14
((lp9153
tp9154
Rp9155
ag14
((lp9156
tp9157
Rp9158
ag14
((lp9159
tp9160
Rp9161
ag14
((lp9162
tp9163
Rp9164
ag14
((lp9165
tp9166
Rp9167
ag14
((lp9168
tp9169
Rp9170
ag14
((lp9171
tp9172
Rp9173
ag14
((lp9174
tp9175
Rp9176
ag14
((lp9177
tp9178
Rp9179
ag14
((lp9180
tp9181
Rp9182
ag14
((lp9183
tp9184
Rp9185
ag14
((lp9186
tp9187
Rp9188
ag14
((lp9189
tp9190
Rp9191
ag14
((lp9192
tp9193
Rp9194
ag14
((lp9195
tp9196
Rp9197
ag14
((lp9198
I1572
atp9199
Rp9200
ag14
((lp9201
tp9202
Rp9203
ag14
((lp9204
tp9205
Rp9206
ag14
((lp9207
tp9208
Rp9209
ag14
((lp9210
tp9211
Rp9212
ag14
((lp9213
I1254
atp9214
Rp9215
ag14
((lp9216
tp9217
Rp9218
ag14
((lp9219
tp9220
Rp9221
ag14
((lp9222
I-2037
atp9223
Rp9224
ag14
((lp9225
tp9226
Rp9227
ag14
((lp9228
I-1222
atp9229
Rp9230
ag14
((lp9231
tp9232
Rp9233
ag14
((lp9234
tp9235
Rp9236
ag14
((lp9237
tp9238
Rp9239
ag14
((lp9240
tp9241
Rp9242
ag14
((lp9243
tp9244
Rp9245
ag14
((lp9246
tp9247
Rp9248
ag14
((lp9249
tp9250
Rp9251
ag14
((lp9252
tp9253
Rp9254
ag14
((lp9255
tp9256
Rp9257
ag14
((lp9258
tp9259
Rp9260
ag14
((lp9261
tp9262
Rp9263
ag14
((lp9264
tp9265
Rp9266
ag14
((lp9267
I1237
atp9268
Rp9269
ag14
((lp9270
tp9271
Rp9272
ag14
((lp9273
tp9274
Rp9275
ag14
((lp9276
tp9277
Rp9278
ag14
((lp9279
tp9280
Rp9281
ag14
((lp9282
tp9283
Rp9284
ag14
((lp9285
tp9286
Rp9287
ag14
((lp9288
tp9289
Rp9290
ag14
((lp9291
tp9292
Rp9293
ag14
((lp9294
tp9295
Rp9296
ag14
((lp9297
tp9298
Rp9299
ag14
((lp9300
I-1246
atp9301
Rp9302
ag14
((lp9303
tp9304
Rp9305
ag14
((lp9306
tp9307
Rp9308
ag14
((lp9309
tp9310
Rp9311
ag14
((lp9312
I-807
atp9313
Rp9314
ag14
((lp9315
I-1163
atp9316
Rp9317
ag14
((lp9318
tp9319
Rp9320
ag14
((lp9321
tp9322
Rp9323
ag14
((lp9324
tp9325
Rp9326
ag14
((lp9327
tp9328
Rp9329
ag14
((lp9330
tp9331
Rp9332
ag14
((lp9333
tp9334
Rp9335
ag14
((lp9336
tp9337
Rp9338
ag14
((lp9339
tp9340
Rp9341
ag14
((lp9342
tp9343
Rp9344
ag14
((lp9345
tp9346
Rp9347
ag14
((lp9348
tp9349
Rp9350
ag14
((lp9351
tp9352
Rp9353
ag14
((lp9354
tp9355
Rp9356
ag14
((lp9357
tp9358
Rp9359
ag14
((lp9360
tp9361
Rp9362
ag14
((lp9363
tp9364
Rp9365
ag14
((lp9366
tp9367
Rp9368
ag14
((lp9369
tp9370
Rp9371
ag14
((lp9372
tp9373
Rp9374
ag14
((lp9375
tp9376
Rp9377
ag14
((lp9378
tp9379
Rp9380
ag14
((lp9381
tp9382
Rp9383
ag14
((lp9384
tp9385
Rp9386
ag14
((lp9387
tp9388
Rp9389
ag14
((lp9390
tp9391
Rp9392
ag14
((lp9393
tp9394
Rp9395
ag14
((lp9396
tp9397
Rp9398
ag14
((lp9399
tp9400
Rp9401
ag14
((lp9402
tp9403
Rp9404
ag14
((lp9405
tp9406
Rp9407
ag14
((lp9408
tp9409
Rp9410
ag14
((lp9411
I1195
atp9412
Rp9413
ag14
((lp9414
tp9415
Rp9416
ag14
((lp9417
tp9418
Rp9419
ag14
((lp9420
tp9421
Rp9422
ag14
((lp9423
I1188
aI-1178
atp9424
Rp9425
ag14
((lp9426
tp9427
Rp9428
ag14
((lp9429
tp9430
Rp9431
ag14
((lp9432
I-1181
aI1188
atp9433
Rp9434
ag14
((lp9435
tp9436
Rp9437
ag14
((lp9438
I1178
aI1179
atp9439
Rp9440
ag14
((lp9441
tp9442
Rp9443
ag14
((lp9444
tp9445
Rp9446
ag14
((lp9447
tp9448
Rp9449
ag14
((lp9450
tp9451
Rp9452
ag14
((lp9453
tp9454
Rp9455
ag14
((lp9456
tp9457
Rp9458
ag14
((lp9459
tp9460
Rp9461
ag14
((lp9462
I-1165
atp9463
Rp9464
ag14
((lp9465
tp9466
Rp9467
ag14
((lp9468
tp9469
Rp9470
ag14
((lp9471
I-1168
atp9472
Rp9473
ag14
((lp9474
tp9475
Rp9476
ag14
((lp9477
I-1217
atp9478
Rp9479
ag14
((lp9480
tp9481
Rp9482
ag14
((lp9483
I-1159
aI1163
atp9484
Rp9485
ag14
((lp9486
tp9487
Rp9488
ag14
((lp9489
I1163
aI-1161
atp9490
Rp9491
ag14
((lp9492
tp9493
Rp9494
ag14
((lp9495
tp9496
Rp9497
ag14
((lp9498
tp9499
Rp9500
ag14
((lp9501
tp9502
Rp9503
ag14
((lp9504
tp9505
Rp9506
ag14
((lp9507
tp9508
Rp9509
ag14
((lp9510
tp9511
Rp9512
ag14
((lp9513
tp9514
Rp9515
ag14
((lp9516
tp9517
Rp9518
ag14
((lp9519
tp9520
Rp9521
ag14
((lp9522
tp9523
Rp9524
ag14
((lp9525
tp9526
Rp9527
ag14
((lp9528
tp9529
Rp9530
ag14
((lp9531
tp9532
Rp9533
ag14
((lp9534
tp9535
Rp9536
ag14
((lp9537
tp9538
Rp9539
ag14
((lp9540
I-1140
atp9541
Rp9542
ag14
((lp9543
tp9544
Rp9545
ag14
((lp9546
I-1142
atp9547
Rp9548
ag14
((lp9549
tp9550
Rp9551
ag14
((lp9552
I1155
atp9553
Rp9554
ag14
((lp9555
tp9556
Rp9557
ag14
((lp9558
tp9559
Rp9560
ag14
((lp9561
tp9562
Rp9563
ag14
((lp9564
tp9565
Rp9566
ag14
((lp9567
tp9568
Rp9569
ag14
((lp9570
tp9571
Rp9572
ag14
((lp9573
tp9574
Rp9575
ag14
((lp9576
tp9577
Rp9578
ag14
((lp9579
tp9580
Rp9581
ag14
((lp9582
I-1127
aI-1126
atp9583
Rp9584
ag14
((lp9585
I-1128
aI-1126
atp9586
Rp9587
ag14
((lp9588
I-1128
aI-1127
atp9589
Rp9590
ag14
((lp9591
tp9592
Rp9593
ag14
((lp9594
tp9595
Rp9596
ag14
((lp9597
tp9598
Rp9599
ag14
((lp9600
tp9601
Rp9602
ag14
((lp9603
tp9604
Rp9605
ag14
((lp9606
tp9607
Rp9608
ag14
((lp9609
tp9610
Rp9611
ag14
((lp9612
I-1112
aI1120
atp9613
Rp9614
ag14
((lp9615
tp9616
Rp9617
ag14
((lp9618
tp9619
Rp9620
ag14
((lp9621
I-1052
atp9622
Rp9623
ag14
((lp9624
tp9625
Rp9626
ag14
((lp9627
tp9628
Rp9629
ag14
((lp9630
I1120
aI-1118
atp9631
Rp9632
ag14
((lp9633
tp9634
Rp9635
ag14
((lp9636
tp9637
Rp9638
ag14
((lp9639
I-1102
aI-1098
aI-1106
atp9640
Rp9641
ag14
((lp9642
tp9643
Rp9644
ag14
((lp9645
I-1102
atp9646
Rp9647
ag14
((lp9648
I-1102
aI-1109
aI-1098
atp9649
Rp9650
ag14
((lp9651
tp9652
Rp9653
ag14
((lp9654
I1614
atp9655
Rp9656
ag14
((lp9657
tp9658
Rp9659
ag14
((lp9660
I-1109
aI-1098
aI-1106
aI-1107
atp9661
Rp9662
ag14
((lp9663
tp9664
Rp9665
ag14
((lp9666
tp9667
Rp9668
ag14
((lp9669
tp9670
Rp9671
ag14
((lp9672
I-1102
aI-1109
aI-1106
atp9673
Rp9674
ag14
((lp9675
tp9676
Rp9677
ag14
((lp9678
tp9679
Rp9680
ag14
((lp9681
tp9682
Rp9683
ag14
((lp9684
I1095
atp9685
Rp9686
ag14
((lp9687
tp9688
Rp9689
ag14
((lp9690
tp9691
Rp9692
ag14
((lp9693
I-1084
atp9694
Rp9695
ag14
((lp9696
tp9697
Rp9698
ag14
((lp9699
tp9700
Rp9701
ag14
((lp9702
tp9703
Rp9704
ag14
((lp9705
I1093
atp9706
Rp9707
ag14
((lp9708
tp9709
Rp9710
ag14
((lp9711
I1167
atp9712
Rp9713
ag14
((lp9714
I-1091
atp9715
Rp9716
ag14
((lp9717
tp9718
Rp9719
ag14
((lp9720
tp9721
Rp9722
ag14
((lp9723
tp9724
Rp9725
ag14
((lp9726
tp9727
Rp9728
ag14
((lp9729
tp9730
Rp9731
ag14
((lp9732
tp9733
Rp9734
ag14
((lp9735
tp9736
Rp9737
ag14
((lp9738
tp9739
Rp9740
ag14
((lp9741
tp9742
Rp9743
ag14
((lp9744
I1075
atp9745
Rp9746
ag14
((lp9747
tp9748
Rp9749
ag14
((lp9750
tp9751
Rp9752
ag14
((lp9753
I-1061
aI-1051
atp9754
Rp9755
ag14
((lp9756
tp9757
Rp9758
ag14
((lp9759
tp9760
Rp9761
ag14
((lp9762
tp9763
Rp9764
ag14
((lp9765
tp9766
Rp9767
ag14
((lp9768
I1067
atp9769
Rp9770
ag14
((lp9771
tp9772
Rp9773
ag14
((lp9774
tp9775
Rp9776
ag14
((lp9777
tp9778
Rp9779
ag14
((lp9780
tp9781
Rp9782
ag14
((lp9783
I-1071
aI-1051
aI-1050
atp9784
Rp9785
ag14
((lp9786
I1063
atp9787
Rp9788
ag14
((lp9789
tp9790
Rp9791
ag14
((lp9792
tp9793
Rp9794
ag14
((lp9795
tp9796
Rp9797
ag14
((lp9798
tp9799
Rp9800
ag14
((lp9801
tp9802
Rp9803
ag14
((lp9804
tp9805
Rp9806
ag14
((lp9807
I1065
atp9808
Rp9809
ag14
((lp9810
I-1115
atp9811
Rp9812
ag14
((lp9813
I-1071
aI-1061
atp9814
Rp9815
ag14
((lp9816
I-1061
atp9817
Rp9818
ag14
((lp9819
tp9820
Rp9821
ag14
((lp9822
I1056
aI1054
aI1055
atp9823
Rp9824
ag14
((lp9825
tp9826
Rp9827
ag14
((lp9828
tp9829
Rp9830
ag14
((lp9831
tp9832
Rp9833
ag14
((lp9834
tp9835
Rp9836
ag14
((lp9837
tp9838
Rp9839
ag14
((lp9840
tp9841
Rp9842
ag14
((lp9843
I-819
atp9844
Rp9845
ag14
((lp9846
tp9847
Rp9848
ag14
((lp9849
tp9850
Rp9851
ag14
((lp9852
tp9853
Rp9854
ag14
((lp9855
tp9856
Rp9857
ag14
((lp9858
tp9859
Rp9860
ag14
((lp9861
tp9862
Rp9863
ag14
((lp9864
tp9865
Rp9866
ag14
((lp9867
tp9868
Rp9869
ag14
((lp9870
tp9871
Rp9872
ag14
((lp9873
tp9874
Rp9875
ag14
((lp9876
tp9877
Rp9878
ag14
((lp9879
tp9880
Rp9881
ag14
((lp9882
tp9883
Rp9884
ag14
((lp9885
tp9886
Rp9887
ag14
((lp9888
tp9889
Rp9890
ag14
((lp9891
tp9892
Rp9893
ag14
((lp9894
tp9895
Rp9896
ag14
((lp9897
tp9898
Rp9899
ag14
((lp9900
tp9901
Rp9902
ag14
((lp9903
tp9904
Rp9905
ag14
((lp9906
tp9907
Rp9908
ag14
((lp9909
tp9910
Rp9911
ag14
((lp9912
tp9913
Rp9914
ag14
((lp9915
tp9916
Rp9917
ag14
((lp9918
tp9919
Rp9920
ag14
((lp9921
tp9922
Rp9923
ag14
((lp9924
tp9925
Rp9926
ag14
((lp9927
tp9928
Rp9929
ag14
((lp9930
tp9931
Rp9932
ag14
((lp9933
tp9934
Rp9935
ag14
((lp9936
tp9937
Rp9938
ag14
((lp9939
tp9940
Rp9941
ag14
((lp9942
tp9943
Rp9944
ag14
((lp9945
tp9946
Rp9947
ag14
((lp9948
tp9949
Rp9950
ag14
((lp9951
tp9952
Rp9953
ag14
((lp9954
tp9955
Rp9956
ag14
((lp9957
tp9958
Rp9959
ag14
((lp9960
tp9961
Rp9962
ag14
((lp9963
tp9964
Rp9965
ag14
((lp9966
tp9967
Rp9968
ag14
((lp9969
tp9970
Rp9971
ag14
((lp9972
tp9973
Rp9974
ag14
((lp9975
tp9976
Rp9977
ag14
((lp9978
tp9979
Rp9980
ag14
((lp9981
tp9982
Rp9983
ag14
((lp9984
tp9985
Rp9986
ag14
((lp9987
tp9988
Rp9989
ag14
((lp9990
tp9991
Rp9992
ag14
((lp9993
tp9994
Rp9995
ag14
((lp9996
tp9997
Rp9998
ag14
((lp9999
tp10000
Rp10001
ag14
((lp10002
tp10003
Rp10004
ag14
((lp10005
tp10006
Rp10007
ag14
((lp10008
tp10009
Rp10010
ag14
((lp10011
I-984
aI-975
atp10012
Rp10013
ag14
((lp10014
I-975
aI-985
atp10015
Rp10016
ag14
((lp10017
I-981
atp10018
Rp10019
ag14
((lp10020
I-981
aI-974
atp10021
Rp10022
ag14
((lp10023
I-983
aI-974
aI-982
atp10024
Rp10025
ag14
((lp10026
tp10027
Rp10028
ag14
((lp10029
tp10030
Rp10031
ag14
((lp10032
tp10033
Rp10034
ag14
((lp10035
tp10036
Rp10037
ag14
((lp10038
tp10039
Rp10040
ag14
((lp10041
I-984
aI-985
atp10042
Rp10043
ag14
((lp10044
I-982
aI-981
atp10045
Rp10046
ag14
((lp10047
I-969
atp10048
Rp10049
ag14
((lp10050
tp10051
Rp10052
ag14
((lp10053
tp10054
Rp10055
ag14
((lp10056
tp10057
Rp10058
ag14
((lp10059
I-973
atp10060
Rp10061
ag14
((lp10062
I970
aI971
atp10063
Rp10064
ag14
((lp10065
tp10066
Rp10067
ag14
((lp10068
I968
aI969
aI-957
aI-946
atp10069
Rp10070
ag14
((lp10071
tp10072
Rp10073
ag14
((lp10074
tp10075
Rp10076
ag14
((lp10077
tp10078
Rp10079
ag14
((lp10080
I1875
aI1877
atp10081
Rp10082
ag14
((lp10083
tp10084
Rp10085
ag14
((lp10086
tp10087
Rp10088
ag14
((lp10089
tp10090
Rp10091
ag14
((lp10092
I-956
atp10093
Rp10094
ag14
((lp10095
I968
aI-966
aI-946
atp10096
Rp10097
ag14
((lp10098
I-958
atp10099
Rp10100
ag14
((lp10101
tp10102
Rp10103
ag14
((lp10104
tp10105
Rp10106
ag14
((lp10107
tp10108
Rp10109
ag14
((lp10110
tp10111
Rp10112
ag14
((lp10113
tp10114
Rp10115
ag14
((lp10116
tp10117
Rp10118
ag14
((lp10119
tp10120
Rp10121
ag14
((lp10122
tp10123
Rp10124
ag14
((lp10125
tp10126
Rp10127
ag14
((lp10128
I968
aI969
aI-966
aI-957
atp10129
Rp10130
ag14
((lp10131
tp10132
Rp10133
ag14
((lp10134
tp10135
Rp10136
ag14
((lp10137
tp10138
Rp10139
ag14
((lp10140
tp10141
Rp10142
ag14
((lp10143
tp10144
Rp10145
ag14
((lp10146
tp10147
Rp10148
ag14
((lp10149
I-928
aI-924
aI940
aI-916
aI-912
aI-938
aI-934
aI-901
aI-930
atp10150
Rp10151
ag14
((lp10152
I-928
aI-924
aI-916
aI940
aI-912
aI-939
aI-934
aI-901
aI-930
atp10153
Rp10154
ag14
((lp10155
I938
atp10156
Rp10157
ag14
((lp10158
tp10159
Rp10160
ag14
((lp10161
I-929
atp10162
Rp10163
ag14
((lp10164
I-928
aI-924
aI-916
aI940
aI-912
aI-939
aI-938
aI-901
aI-930
atp10165
Rp10166
ag14
((lp10167
I-927
aI934
aI935
atp10168
Rp10169
ag14
((lp10170
tp10171
Rp10172
ag14
((lp10173
I-1329
atp10174
Rp10175
ag14
((lp10176
I-928
aI-924
aI940
aI-916
aI-912
aI-939
aI-938
aI-934
aI-901
atp10177
Rp10178
ag14
((lp10179
I-935
atp10180
Rp10181
ag14
((lp10182
I-924
aI940
aI-916
aI-912
aI-939
aI-938
aI-934
aI-901
aI-930
atp10183
Rp10184
ag14
((lp10185
I-933
aI934
aI935
atp10186
Rp10187
ag14
((lp10188
tp10189
Rp10190
ag14
((lp10191
tp10192
Rp10193
ag14
((lp10194
I-928
aI-916
aI-912
aI-939
aI-938
aI-934
aI-901
aI-930
atp10195
Rp10196
ag14
((lp10197
I928
aI929
aI-922
aI926
aI927
atp10198
Rp10199
ag14
((lp10200
I928
aI929
aI-923
aI926
aI927
atp10201
Rp10202
ag14
((lp10203
tp10204
Rp10205
ag14
((lp10206
I-915
aI-914
atp10207
Rp10208
ag14
((lp10209
tp10210
Rp10211
ag14
((lp10212
I-917
atp10213
Rp10214
ag14
((lp10215
I-918
atp10216
Rp10217
ag14
((lp10218
I-928
aI-924
aI940
aI-912
aI-939
aI-938
aI-934
aI-901
aI-930
atp10219
Rp10220
ag14
((lp10221
I-920
aI-914
atp10222
Rp10223
ag14
((lp10224
I-920
aI-915
atp10225
Rp10226
ag14
((lp10227
I919
atp10228
Rp10229
ag14
((lp10230
I-928
aI-924
aI-916
aI940
aI-939
aI-938
aI-934
aI-901
aI-930
atp10231
Rp10232
ag14
((lp10233
tp10234
Rp10235
ag14
((lp10236
tp10237
Rp10238
ag14
((lp10239
I-905
atp10240
Rp10241
ag14
((lp10242
tp10243
Rp10244
ag14
((lp10245
tp10246
Rp10247
ag14
((lp10248
tp10249
Rp10250
ag14
((lp10251
I-909
atp10252
Rp10253
ag14
((lp10254
tp10255
Rp10256
ag14
((lp10257
tp10258
Rp10259
ag14
((lp10260
tp10261
Rp10262
ag14
((lp10263
I-928
aI-924
aI-916
aI940
aI-912
aI-939
aI-938
aI-934
aI-930
atp10264
Rp10265
ag14
((lp10266
tp10267
Rp10268
ag14
((lp10269
tp10270
Rp10271
ag14
((lp10272
tp10273
Rp10274
ag14
((lp10275
tp10276
Rp10277
ag14
((lp10278
tp10279
Rp10280
ag14
((lp10281
I899
atp10282
Rp10283
ag14
((lp10284
tp10285
Rp10286
ag14
((lp10287
I-884
aI-891
atp10288
Rp10289
ag14
((lp10290
I900
atp10291
Rp10292
ag14
((lp10293
I-893
aI-884
atp10294
Rp10295
ag14
((lp10296
tp10297
Rp10298
ag14
((lp10299
tp10300
Rp10301
ag14
((lp10302
tp10303
Rp10304
ag14
((lp10305
tp10306
Rp10307
ag14
((lp10308
tp10309
Rp10310
ag14
((lp10311
tp10312
Rp10313
ag14
((lp10314
I-893
aI-891
atp10315
Rp10316
ag14
((lp10317
I-870
aI895
aI-876
aI893
atp10318
Rp10319
ag14
((lp10320
I904
atp10321
Rp10322
ag14
((lp10323
tp10324
Rp10325
ag14
((lp10326
tp10327
Rp10328
ag14
((lp10329
tp10330
Rp10331
ag14
((lp10332
tp10333
Rp10334
ag14
((lp10335
tp10336
Rp10337
ag14
((lp10338
I-870
aI893
aI-883
atp10339
Rp10340
ag14
((lp10341
tp10342
Rp10343
ag14
((lp10344
tp10345
Rp10346
ag14
((lp10347
I902
atp10348
Rp10349
ag14
((lp10350
I874
atp10351
Rp10352
ag14
((lp10353
tp10354
Rp10355
ag14
((lp10356
I895
aI-876
aI-883
aI893
atp10357
Rp10358
ag14
((lp10359
tp10360
Rp10361
ag14
((lp10362
tp10363
Rp10364
ag14
((lp10365
I-864
aI-863
aI-860
aI-859
aI-858
aI-855
aI-850
aI-843
aI-866
aI-865
atp10366
Rp10367
ag14
((lp10368
I-864
aI-863
aI-860
aI-859
aI-858
aI-855
aI-850
aI-843
aI-867
aI-865
atp10369
Rp10370
ag14
((lp10371
I-864
aI-863
aI-860
aI-858
aI-855
aI-850
aI-843
aI-867
aI-866
atp10372
Rp10373
ag14
((lp10374
I-863
aI-860
aI-859
aI-858
aI-855
aI-850
aI-843
aI-867
aI-866
aI-865
atp10375
Rp10376
ag14
((lp10377
I-864
aI-860
aI-858
aI-855
aI-850
aI-843
aI-867
aI-866
aI-865
atp10378
Rp10379
ag14
((lp10380
tp10381
Rp10382
ag14
((lp10383
tp10384
Rp10385
ag14
((lp10386
I-864
aI-863
aI-858
aI-855
aI-850
aI-843
aI-867
aI-866
aI-865
atp10387
Rp10388
ag14
((lp10389
I-864
aI-843
aI-855
aI-867
aI-866
aI-850
atp10390
Rp10391
ag14
((lp10392
I-864
aI-863
aI-860
aI-855
aI-850
aI-843
aI-867
aI-866
aI-865
atp10393
Rp10394
ag14
((lp10395
I-854
atp10396
Rp10397
ag14
((lp10398
tp10399
Rp10400
ag14
((lp10401
I-864
aI-863
aI-860
aI-859
aI-858
aI-850
aI-843
aI-867
aI-866
aI-865
atp10402
Rp10403
ag14
((lp10404
I-857
atp10405
Rp10406
ag14
((lp10407
tp10408
Rp10409
ag14
((lp10410
tp10411
Rp10412
ag14
((lp10413
tp10414
Rp10415
ag14
((lp10416
I-864
aI-863
aI-860
aI-859
aI-858
aI-855
aI-843
aI-867
aI-866
aI-865
atp10417
Rp10418
ag14
((lp10419
tp10420
Rp10421
ag14
((lp10422
tp10423
Rp10424
ag14
((lp10425
tp10426
Rp10427
ag14
((lp10428
tp10429
Rp10430
ag14
((lp10431
tp10432
Rp10433
ag14
((lp10434
tp10435
Rp10436
ag14
((lp10437
I-864
aI-863
aI-860
aI-859
aI-858
aI-855
aI-850
aI-867
aI-866
aI-865
atp10438
Rp10439
ag14
((lp10440
tp10441
Rp10442
ag14
((lp10443
I852
atp10444
Rp10445
ag14
((lp10446
tp10447
Rp10448
ag14
((lp10449
tp10450
Rp10451
ag14
((lp10452
tp10453
Rp10454
ag14
((lp10455
tp10456
Rp10457
ag14
((lp10458
tp10459
Rp10460
ag14
((lp10461
I-830
atp10462
Rp10463
ag14
((lp10464
I-829
atp10465
Rp10466
ag14
((lp10467
tp10468
Rp10469
ag14
((lp10470
tp10471
Rp10472
ag14
((lp10473
tp10474
Rp10475
ag14
((lp10476
I-835
atp10477
Rp10478
ag14
((lp10479
I-834
aI-825
atp10480
Rp10481
ag14
((lp10482
I833
aI834
aI835
atp10483
Rp10484
ag14
((lp10485
tp10486
Rp10487
ag14
((lp10488
tp10489
Rp10490
ag14
((lp10491
I-829
atp10492
Rp10493
ag14
((lp10494
tp10495
Rp10496
ag14
((lp10497
tp10498
Rp10499
ag14
((lp10500
tp10501
Rp10502
ag14
((lp10503
tp10504
Rp10505
ag14
((lp10506
tp10507
Rp10508
ag14
((lp10509
I-1041
atp10510
Rp10511
ag14
((lp10512
tp10513
Rp10514
ag14
((lp10515
tp10516
Rp10517
ag14
((lp10518
I-798
aI822
atp10519
Rp10520
ag14
((lp10521
tp10522
Rp10523
ag14
((lp10524
tp10525
Rp10526
ag14
((lp10527
tp10528
Rp10529
ag14
((lp10530
tp10531
Rp10532
ag14
((lp10533
tp10534
Rp10535
ag14
((lp10536
tp10537
Rp10538
ag14
((lp10539
tp10540
Rp10541
ag14
((lp10542
tp10543
Rp10544
ag14
((lp10545
I-1218
atp10546
Rp10547
ag14
((lp10548
tp10549
Rp10550
ag14
((lp10551
tp10552
Rp10553
ag14
((lp10554
tp10555
Rp10556
ag14
((lp10557
tp10558
Rp10559
ag14
((lp10560
tp10561
Rp10562
ag14
((lp10563
tp10564
Rp10565
ag14
((lp10566
tp10567
Rp10568
ag14
((lp10569
tp10570
Rp10571
ag14
((lp10572
I-816
aI822
atp10573
Rp10574
ag14
((lp10575
tp10576
Rp10577
ag14
((lp10578
I800
atp10579
Rp10580
ag14
((lp10581
tp10582
Rp10583
ag14
((lp10584
tp10585
Rp10586
ag14
((lp10587
I797
atp10588
Rp10589
ag14
((lp10590
I-791
atp10591
Rp10592
ag14
((lp10593
I-792
atp10594
Rp10595
ag14
((lp10596
tp10597
Rp10598
ag14
((lp10599
tp10600
Rp10601
ag14
((lp10602
tp10603
Rp10604
ag14
((lp10605
tp10606
Rp10607
ag14
((lp10608
I790
aI-779
aI791
atp10609
Rp10610
ag14
((lp10611
tp10612
Rp10613
ag14
((lp10614
tp10615
Rp10616
ag14
((lp10617
tp10618
Rp10619
ag14
((lp10620
tp10621
Rp10622
ag14
((lp10623
tp10624
Rp10625
ag14
((lp10626
tp10627
Rp10628
ag14
((lp10629
I790
aI-777
aI-786
aI791
atp10630
Rp10631
ag14
((lp10632
tp10633
Rp10634
ag14
((lp10635
I791
aI-779
aI790
atp10636
Rp10637
ag14
((lp10638
tp10639
Rp10640
ag14
((lp10641
tp10642
Rp10643
ag14
((lp10644
I776
aI777
aI-765
atp10645
Rp10646
ag14
((lp10647
tp10648
Rp10649
ag14
((lp10650
tp10651
Rp10652
ag14
((lp10653
tp10654
Rp10655
ag14
((lp10656
tp10657
Rp10658
ag14
((lp10659
I-762
atp10660
Rp10661
ag14
((lp10662
I994
atp10663
Rp10664
ag14
((lp10665
tp10666
Rp10667
ag14
((lp10668
tp10669
Rp10670
ag14
((lp10671
I776
aI777
aI-774
atp10672
Rp10673
ag14
((lp10674
I-760
aI-737
aI-753
atp10675
Rp10676
ag14
((lp10677
tp10678
Rp10679
ag14
((lp10680
I-769
atp10681
Rp10682
ag14
((lp10683
tp10684
Rp10685
ag14
((lp10686
I-753
aI-764
aI-737
atp10687
Rp10688
ag14
((lp10689
tp10690
Rp10691
ag14
((lp10692
tp10693
Rp10694
ag14
((lp10695
tp10696
Rp10697
ag14
((lp10698
tp10699
Rp10700
ag14
((lp10701
tp10702
Rp10703
ag14
((lp10704
tp10705
Rp10706
ag14
((lp10707
I-760
aI-737
aI-764
atp10708
Rp10709
ag14
((lp10710
tp10711
Rp10712
ag14
((lp10713
tp10714
Rp10715
ag14
((lp10716
tp10717
Rp10718
ag14
((lp10719
tp10720
Rp10721
ag14
((lp10722
tp10723
Rp10724
ag14
((lp10725
tp10726
Rp10727
ag14
((lp10728
tp10729
Rp10730
ag14
((lp10731
tp10732
Rp10733
ag14
((lp10734
tp10735
Rp10736
ag14
((lp10737
tp10738
Rp10739
ag14
((lp10740
tp10741
Rp10742
ag14
((lp10743
tp10744
Rp10745
ag14
((lp10746
tp10747
Rp10748
ag14
((lp10749
I-735
aI-733
aI740
atp10750
Rp10751
ag14
((lp10752
tp10753
Rp10754
ag14
((lp10755
I-760
aI-764
aI-753
atp10756
Rp10757
ag14
((lp10758
tp10759
Rp10760
ag14
((lp10761
I-733
aI740
aI-739
atp10762
Rp10763
ag14
((lp10764
tp10765
Rp10766
ag14
((lp10767
I-735
aI-739
atp10768
Rp10769
ag14
((lp10770
tp10771
Rp10772
ag14
((lp10773
tp10774
Rp10775
ag14
((lp10776
tp10777
Rp10778
ag14
((lp10779
tp10780
Rp10781
ag14
((lp10782
tp10783
Rp10784
ag14
((lp10785
tp10786
Rp10787
ag14
((lp10788
tp10789
Rp10790
ag14
((lp10791
tp10792
Rp10793
ag14
((lp10794
tp10795
Rp10796
ag14
((lp10797
tp10798
Rp10799
ag14
((lp10800
I-711
atp10801
Rp10802
ag14
((lp10803
tp10804
Rp10805
ag14
((lp10806
tp10807
Rp10808
ag14
((lp10809
tp10810
Rp10811
ag14
((lp10812
tp10813
Rp10814
ag14
((lp10815
tp10816
Rp10817
ag14
((lp10818
tp10819
Rp10820
ag14
((lp10821
tp10822
Rp10823
ag14
((lp10824
tp10825
Rp10826
ag14
((lp10827
tp10828
Rp10829
ag14
((lp10830
tp10831
Rp10832
ag14
((lp10833
I-722
atp10834
Rp10835
ag14
((lp10836
tp10837
Rp10838
ag14
((lp10839
tp10840
Rp10841
ag14
((lp10842
I744
atp10843
Rp10844
ag14
((lp10845
tp10846
Rp10847
ag14
((lp10848
tp10849
Rp10850
ag14
((lp10851
tp10852
Rp10853
ag14
((lp10854
tp10855
Rp10856
ag14
((lp10857
tp10858
Rp10859
ag14
((lp10860
tp10861
Rp10862
ag14
((lp10863
tp10864
Rp10865
ag14
((lp10866
I-694
atp10867
Rp10868
ag14
((lp10869
tp10870
Rp10871
ag14
((lp10872
tp10873
Rp10874
ag14
((lp10875
tp10876
Rp10877
ag14
((lp10878
tp10879
Rp10880
ag14
((lp10881
tp10882
Rp10883
ag14
((lp10884
I-700
atp10885
Rp10886
ag14
((lp10887
tp10888
Rp10889
ag14
((lp10890
tp10891
Rp10892
ag14
((lp10893
tp10894
Rp10895
ag14
((lp10896
tp10897
Rp10898
ag14
((lp10899
tp10900
Rp10901
ag14
((lp10902
I707
atp10903
Rp10904
ag14
((lp10905
tp10906
Rp10907
ag14
((lp10908
tp10909
Rp10910
ag14
((lp10911
tp10912
Rp10913
ag14
((lp10914
tp10915
Rp10916
ag14
((lp10917
I-680
aI-682
atp10918
Rp10919
ag14
((lp10920
I-680
aI-683
atp10921
Rp10922
ag14
((lp10923
tp10924
Rp10925
ag14
((lp10926
I-683
aI-682
atp10927
Rp10928
ag14
((lp10929
I-676
aI-674
aI-673
atp10930
Rp10931
ag14
((lp10932
tp10933
Rp10934
ag14
((lp10935
tp10936
Rp10937
ag14
((lp10938
I-679
aI-674
aI-673
atp10939
Rp10940
ag14
((lp10941
tp10942
Rp10943
ag14
((lp10944
I-679
aI-676
aI-673
atp10945
Rp10946
ag14
((lp10947
I-679
aI-676
aI-674
atp10948
Rp10949
ag14
((lp10950
I680
aI679
atp10951
Rp10952
ag14
((lp10953
tp10954
Rp10955
ag14
((lp10956
tp10957
Rp10958
ag14
((lp10959
tp10960
Rp10961
ag14
((lp10962
tp10963
Rp10964
ag14
((lp10965
tp10966
Rp10967
ag14
((lp10968
tp10969
Rp10970
ag14
((lp10971
tp10972
Rp10973
ag14
((lp10974
tp10975
Rp10976
ag14
((lp10977
tp10978
Rp10979
ag14
((lp10980
tp10981
Rp10982
ag14
((lp10983
tp10984
Rp10985
ag14
((lp10986
tp10987
Rp10988
ag14
((lp10989
tp10990
Rp10991
ag14
((lp10992
tp10993
Rp10994
ag14
((lp10995
tp10996
Rp10997
ag14
((lp10998
tp10999
Rp11000
ag14
((lp11001
tp11002
Rp11003
ag14
((lp11004
tp11005
Rp11006
ag14
((lp11007
tp11008
Rp11009
ag14
((lp11010
tp11011
Rp11012
ag14
((lp11013
tp11014
Rp11015
ag14
((lp11016
tp11017
Rp11018
ag14
((lp11019
tp11020
Rp11021
ag14
((lp11022
tp11023
Rp11024
ag14
((lp11025
tp11026
Rp11027
ag14
((lp11028
tp11029
Rp11030
ag14
((lp11031
tp11032
Rp11033
ag14
((lp11034
tp11035
Rp11036
ag14
((lp11037
tp11038
Rp11039
ag14
((lp11040
tp11041
Rp11042
ag14
((lp11043
tp11044
Rp11045
ag14
((lp11046
tp11047
Rp11048
ag14
((lp11049
tp11050
Rp11051
ag14
((lp11052
tp11053
Rp11054
ag14
((lp11055
tp11056
Rp11057
ag14
((lp11058
tp11059
Rp11060
ag14
((lp11061
tp11062
Rp11063
ag14
((lp11064
tp11065
Rp11066
ag14
((lp11067
tp11068
Rp11069
ag14
((lp11070
tp11071
Rp11072
ag14
((lp11073
I-456
aI-621
aI-627
atp11074
Rp11075
ag14
((lp11076
tp11077
Rp11078
ag14
((lp11079
tp11080
Rp11081
ag14
((lp11082
tp11083
Rp11084
ag14
((lp11085
I-456
aI-631
aI-621
atp11086
Rp11087
ag14
((lp11088
tp11089
Rp11090
ag14
((lp11091
tp11092
Rp11093
ag14
((lp11094
tp11095
Rp11096
ag14
((lp11097
tp11098
Rp11099
ag14
((lp11100
tp11101
Rp11102
ag14
((lp11103
I-456
aI-631
aI-627
atp11104
Rp11105
ag14
((lp11106
tp11107
Rp11108
ag14
((lp11109
tp11110
Rp11111
ag14
((lp11112
tp11113
Rp11114
ag14
((lp11115
I-609
atp11116
Rp11117
ag14
((lp11118
tp11119
Rp11120
ag14
((lp11121
tp11122
Rp11123
ag14
((lp11124
tp11125
Rp11126
ag14
((lp11127
I-608
aI-603
atp11128
Rp11129
ag14
((lp11130
tp11131
Rp11132
ag14
((lp11133
I748
atp11134
Rp11135
ag14
((lp11136
tp11137
Rp11138
ag14
((lp11139
I-617
atp11140
Rp11141
ag14
((lp11142
I-613
aI-603
atp11143
Rp11144
ag14
((lp11145
tp11146
Rp11147
ag14
((lp11148
tp11149
Rp11150
ag14
((lp11151
tp11152
Rp11153
ag14
((lp11154
tp11155
Rp11156
ag14
((lp11157
I-608
aI-613
atp11158
Rp11159
ag14
((lp11160
I-600
aI603
aI-593
atp11161
Rp11162
ag14
((lp11163
tp11164
Rp11165
ag14
((lp11166
I603
aI-602
aI-593
atp11167
Rp11168
ag14
((lp11169
I602
atp11170
Rp11171
ag14
((lp11172
tp11173
Rp11174
ag14
((lp11175
tp11176
Rp11177
ag14
((lp11178
tp11179
Rp11180
ag14
((lp11181
tp11182
Rp11183
ag14
((lp11184
tp11185
Rp11186
ag14
((lp11187
I-600
aI603
aI-602
atp11188
Rp11189
ag14
((lp11190
tp11191
Rp11192
ag14
((lp11193
tp11194
Rp11195
ag14
((lp11196
tp11197
Rp11198
ag14
((lp11199
tp11200
Rp11201
ag14
((lp11202
tp11203
Rp11204
ag14
((lp11205
tp11206
Rp11207
ag14
((lp11208
tp11209
Rp11210
ag14
((lp11211
tp11212
Rp11213
ag14
((lp11214
tp11215
Rp11216
ag14
((lp11217
tp11218
Rp11219
ag14
((lp11220
tp11221
Rp11222
ag14
((lp11223
tp11224
Rp11225
ag14
((lp11226
tp11227
Rp11228
ag14
((lp11229
tp11230
Rp11231
ag14
((lp11232
tp11233
Rp11234
ag14
((lp11235
tp11236
Rp11237
ag14
((lp11238
tp11239
Rp11240
ag14
((lp11241
tp11242
Rp11243
ag14
((lp11244
tp11245
Rp11246
ag14
((lp11247
tp11248
Rp11249
ag14
((lp11250
tp11251
Rp11252
ag14
((lp11253
tp11254
Rp11255
ag14
((lp11256
tp11257
Rp11258
ag14
((lp11259
tp11260
Rp11261
ag14
((lp11262
I910
atp11263
Rp11264
ag14
((lp11265
tp11266
Rp11267
ag14
((lp11268
tp11269
Rp11270
ag14
((lp11271
tp11272
Rp11273
ag14
((lp11274
tp11275
Rp11276
ag14
((lp11277
tp11278
Rp11279
ag14
((lp11280
tp11281
Rp11282
ag14
((lp11283
tp11284
Rp11285
ag14
((lp11286
tp11287
Rp11288
ag14
((lp11289
tp11290
Rp11291
ag14
((lp11292
tp11293
Rp11294
ag14
((lp11295
tp11296
Rp11297
ag14
((lp11298
tp11299
Rp11300
ag14
((lp11301
tp11302
Rp11303
ag14
((lp11304
tp11305
Rp11306
ag14
((lp11307
I-552
aI-545
aI-547
atp11308
Rp11309
ag14
((lp11310
I-545
aI-547
aI-553
atp11311
Rp11312
ag14
((lp11313
tp11314
Rp11315
ag14
((lp11316
tp11317
Rp11318
ag14
((lp11319
tp11320
Rp11321
ag14
((lp11322
I-501
atp11323
Rp11324
ag14
((lp11325
I-552
aI-545
aI-553
atp11326
Rp11327
ag14
((lp11328
tp11329
Rp11330
ag14
((lp11331
I-552
aI-553
aI-547
atp11332
Rp11333
ag14
((lp11334
tp11335
Rp11336
ag14
((lp11337
I546
aI547
atp11338
Rp11339
ag14
((lp11340
tp11341
Rp11342
ag14
((lp11343
tp11344
Rp11345
ag14
((lp11346
tp11347
Rp11348
ag14
((lp11349
I540
atp11350
Rp11351
ag14
((lp11352
tp11353
Rp11354
ag14
((lp11355
tp11356
Rp11357
ag14
((lp11358
I539
atp11359
Rp11360
ag14
((lp11361
tp11362
Rp11363
ag14
((lp11364
tp11365
Rp11366
ag14
((lp11367
tp11368
Rp11369
ag14
((lp11370
tp11371
Rp11372
ag14
((lp11373
tp11374
Rp11375
ag14
((lp11376
I-516
atp11377
Rp11378
ag14
((lp11379
I-528
aI-527
aI531
aI532
atp11380
Rp11381
ag14
((lp11382
I532
aI-529
atp11383
Rp11384
ag14
((lp11385
I531
aI532
aI-529
atp11386
Rp11387
ag14
((lp11388
tp11389
Rp11390
ag14
((lp11391
I528
aI529
aI-518
aI527
atp11392
Rp11393
ag14
((lp11394
tp11395
Rp11396
ag14
((lp11397
tp11398
Rp11399
ag14
((lp11400
tp11401
Rp11402
ag14
((lp11403
tp11404
Rp11405
ag14
((lp11406
tp11407
Rp11408
ag14
((lp11409
tp11410
Rp11411
ag14
((lp11412
I528
aI529
aI-525
aI527
atp11413
Rp11414
ag14
((lp11415
I525
atp11416
Rp11417
ag14
((lp11418
I-530
atp11419
Rp11420
ag14
((lp11421
I-511
atp11422
Rp11423
ag14
((lp11424
I-504
aI-509
aI516
aI-507
aI-472
aI-513
atp11425
Rp11426
ag14
((lp11427
I-504
aI-509
aI516
aI-507
aI-472
aI-514
atp11428
Rp11429
ag14
((lp11430
tp11431
Rp11432
ag14
((lp11433
I-515
atp11434
Rp11435
ag14
((lp11436
I-450
aI518
aI517
atp11437
Rp11438
ag14
((lp11439
I-504
aI516
aI-507
aI-472
aI-514
aI-513
atp11440
Rp11441
ag14
((lp11442
tp11443
Rp11444
ag14
((lp11445
I-504
aI-509
aI516
aI-472
aI-514
aI-513
atp11446
Rp11447
ag14
((lp11448
I507
atp11449
Rp11450
ag14
((lp11451
tp11452
Rp11453
ag14
((lp11454
I-509
aI516
aI-507
aI-469
aI-472
aI-514
aI-513
atp11455
Rp11456
ag14
((lp11457
tp11458
Rp11459
ag14
((lp11460
tp11461
Rp11462
ag14
((lp11463
I-548
atp11464
Rp11465
ag14
((lp11466
tp11467
Rp11468
ag14
((lp11469
tp11470
Rp11471
ag14
((lp11472
tp11473
Rp11474
ag14
((lp11475
I546
aI547
aI548
atp11476
Rp11477
ag14
((lp11478
I544
atp11479
Rp11480
ag14
((lp11481
tp11482
Rp11483
ag14
((lp11484
tp11485
Rp11486
ag14
((lp11487
tp11488
Rp11489
ag14
((lp11490
tp11491
Rp11492
ag14
((lp11493
tp11494
Rp11495
ag14
((lp11496
tp11497
Rp11498
ag14
((lp11499
tp11500
Rp11501
ag14
((lp11502
tp11503
Rp11504
ag14
((lp11505
tp11506
Rp11507
ag14
((lp11508
tp11509
Rp11510
ag14
((lp11511
tp11512
Rp11513
ag14
((lp11514
tp11515
Rp11516
ag14
((lp11517
tp11518
Rp11519
ag14
((lp11520
tp11521
Rp11522
ag14
((lp11523
tp11524
Rp11525
ag14
((lp11526
I-476
atp11527
Rp11528
ag14
((lp11529
tp11530
Rp11531
ag14
((lp11532
tp11533
Rp11534
ag14
((lp11535
I480
aI481
aI482
aI483
atp11536
Rp11537
ag14
((lp11538
I-480
atp11539
Rp11540
ag14
((lp11541
tp11542
Rp11543
ag14
((lp11544
tp11545
Rp11546
ag14
((lp11547
tp11548
Rp11549
ag14
((lp11550
I-504
aI-509
aI516
aI-507
aI-514
aI-513
atp11551
Rp11552
ag14
((lp11553
tp11554
Rp11555
ag14
((lp11556
tp11557
Rp11558
ag14
((lp11559
I-504
atp11560
Rp11561
ag14
((lp11562
tp11563
Rp11564
ag14
((lp11565
tp11566
Rp11567
ag14
((lp11568
tp11569
Rp11570
ag14
((lp11571
tp11572
Rp11573
ag14
((lp11574
tp11575
Rp11576
ag14
((lp11577
tp11578
Rp11579
ag14
((lp11580
tp11581
Rp11582
ag14
((lp11583
tp11584
Rp11585
ag14
((lp11586
I1728
atp11587
Rp11588
ag14
((lp11589
tp11590
Rp11591
ag14
((lp11592
tp11593
Rp11594
ag14
((lp11595
tp11596
Rp11597
ag14
((lp11598
I-631
aI-621
aI-627
atp11599
Rp11600
ag14
((lp11601
tp11602
Rp11603
ag14
((lp11604
tp11605
Rp11606
ag14
((lp11607
I472
aI470
atp11608
Rp11609
ag14
((lp11610
I-443
atp11611
Rp11612
ag14
((lp11613
tp11614
Rp11615
ag14
((lp11616
I-510
aI517
aI518
atp11617
Rp11618
ag14
((lp11619
tp11620
Rp11621
ag14
((lp11622
tp11623
Rp11624
ag14
((lp11625
tp11626
Rp11627
ag14
((lp11628
tp11629
Rp11630
ag14
((lp11631
tp11632
Rp11633
ag14
((lp11634
tp11635
Rp11636
ag14
((lp11637
I-452
atp11638
Rp11639
ag14
((lp11640
tp11641
Rp11642
ag14
((lp11643
tp11644
Rp11645
ag14
((lp11646
tp11647
Rp11648
ag14
((lp11649
I441
atp11650
Rp11651
ag14
((lp11652
tp11653
Rp11654
ag14
((lp11655
tp11656
Rp11657
ag14
((lp11658
tp11659
Rp11660
ag14
((lp11661
tp11662
Rp11663
ag14
((lp11664
tp11665
Rp11666
ag14
((lp11667
tp11668
Rp11669
ag14
((lp11670
tp11671
Rp11672
ag14
((lp11673
tp11674
Rp11675
ag14
((lp11676
tp11677
Rp11678
ag14
((lp11679
tp11680
Rp11681
ag14
((lp11682
tp11683
Rp11684
ag14
((lp11685
tp11686
Rp11687
ag14
((lp11688
tp11689
Rp11690
ag14
((lp11691
tp11692
Rp11693
ag14
((lp11694
I-423
aI-422
aI-393
atp11695
Rp11696
ag14
((lp11697
I-424
aI-422
aI-393
atp11698
Rp11699
ag14
((lp11700
I-424
aI-423
aI-393
atp11701
Rp11702
ag14
((lp11703
tp11704
Rp11705
ag14
((lp11706
tp11707
Rp11708
ag14
((lp11709
I-415
aI-413
aI-410
aI-409
aI-407
aI-365
aI-396
aI-390
atp11710
Rp11711
ag14
((lp11712
tp11713
Rp11714
ag14
((lp11715
I-416
aI-383
aI-413
aI-410
aI-415
aI-407
aI-409
aI-365
aI-396
aI-390
atp11716
Rp11717
ag14
((lp11718
I-383
aI-413
aI-410
aI-409
aI-407
aI-365
aI-396
aI-415
aI-390
aI-417
atp11719
Rp11720
ag14
((lp11721
I-416
aI-383
aI-413
aI-410
aI-409
aI-407
aI-365
aI-396
aI-390
aI-419
aI-417
atp11722
Rp11723
ag14
((lp11724
I-79
aI-391
atp11725
Rp11726
ag14
((lp11727
I-416
aI-415
aI-410
aI-409
aI-407
aI-365
aI-396
aI-383
aI-390
aI-419
aI-417
atp11728
Rp11729
ag14
((lp11730
tp11731
Rp11732
ag14
((lp11733
tp11734
Rp11735
ag14
((lp11736
I-416
aI-383
aI-413
aI-409
aI-407
aI-365
aI-396
aI-415
aI-390
aI-419
aI-417
atp11737
Rp11738
ag14
((lp11739
I-416
aI-383
aI-413
aI-410
aI-415
aI-407
aI-365
aI-396
aI-390
aI-419
aI-417
atp11740
Rp11741
ag14
((lp11742
tp11743
Rp11744
ag14
((lp11745
I-416
aI-415
aI-413
aI-410
aI-383
aI-409
aI-365
aI-396
aI-390
aI-419
aI-417
atp11746
Rp11747
ag14
((lp11748
tp11749
Rp11750
ag14
((lp11751
tp11752
Rp11753
ag14
((lp11754
tp11755
Rp11756
ag14
((lp11757
tp11758
Rp11759
ag14
((lp11760
tp11761
Rp11762
ag14
((lp11763
tp11764
Rp11765
ag14
((lp11766
tp11767
Rp11768
ag14
((lp11769
tp11770
Rp11771
ag14
((lp11772
tp11773
Rp11774
ag14
((lp11775
tp11776
Rp11777
ag14
((lp11778
I-416
aI-383
aI-413
aI-410
aI-409
aI-407
aI-365
aI-415
aI-390
aI-419
aI-417
atp11779
Rp11780
ag14
((lp11781
tp11782
Rp11783
ag14
((lp11784
tp11785
Rp11786
ag14
((lp11787
I-424
aI-423
aI-422
atp11788
Rp11789
ag14
((lp11790
tp11791
Rp11792
ag14
((lp11793
I-79
aI-414
atp11794
Rp11795
ag14
((lp11796
I-416
aI-415
aI-413
aI-410
aI-409
aI-216
aI-407
aI-365
aI-396
aI-383
aI-419
aI-417
atp11797
Rp11798
ag14
((lp11799
I417
atp11800
Rp11801
ag14
((lp11802
tp11803
Rp11804
ag14
((lp11805
tp11806
Rp11807
ag14
((lp11808
tp11809
Rp11810
ag14
((lp11811
tp11812
Rp11813
ag14
((lp11814
tp11815
Rp11816
ag14
((lp11817
I-416
aI-415
aI-413
aI-410
aI-409
aI-407
aI-365
aI-396
aI-390
aI-417
atp11818
Rp11819
ag14
((lp11820
tp11821
Rp11822
ag14
((lp11823
I398
atp11824
Rp11825
ag14
((lp11826
tp11827
Rp11828
ag14
((lp11829
I2068
atp11830
Rp11831
ag14
((lp11832
tp11833
Rp11834
ag14
((lp11835
tp11836
Rp11837
ag14
((lp11838
tp11839
Rp11840
ag14
((lp11841
tp11842
Rp11843
ag14
((lp11844
I377
aI378
aI-366
atp11845
Rp11846
ag14
((lp11847
tp11848
Rp11849
ag14
((lp11850
tp11851
Rp11852
ag14
((lp11853
tp11854
Rp11855
ag14
((lp11856
tp11857
Rp11858
ag14
((lp11859
tp11860
Rp11861
ag14
((lp11862
tp11863
Rp11864
ag14
((lp11865
tp11866
Rp11867
ag14
((lp11868
I377
aI378
aI-374
atp11869
Rp11870
ag14
((lp11871
I-416
aI-383
aI-413
aI-410
aI-409
aI-407
aI-396
aI-415
aI-390
aI-419
aI-417
atp11872
Rp11873
ag14
((lp11874
I-359
aI-348
atp11875
Rp11876
ag14
((lp11877
tp11878
Rp11879
ag14
((lp11880
tp11881
Rp11882
ag14
((lp11883
tp11884
Rp11885
ag14
((lp11886
I364
atp11887
Rp11888
ag14
((lp11889
I-364
aI-348
atp11890
Rp11891
ag14
((lp11892
tp11893
Rp11894
ag14
((lp11895
tp11896
Rp11897
ag14
((lp11898
tp11899
Rp11900
ag14
((lp11901
tp11902
Rp11903
ag14
((lp11904
tp11905
Rp11906
ag14
((lp11907
tp11908
Rp11909
ag14
((lp11910
tp11911
Rp11912
ag14
((lp11913
I-347
atp11914
Rp11915
ag14
((lp11916
I-347
atp11917
Rp11918
ag14
((lp11919
I415
atp11920
Rp11921
ag14
((lp11922
I-359
aI-364
atp11923
Rp11924
ag14
((lp11925
I-351
aI-350
atp11926
Rp11927
ag14
((lp11928
tp11929
Rp11930
ag14
((lp11931
tp11932
Rp11933
ag14
((lp11934
tp11935
Rp11936
ag14
((lp11937
tp11938
Rp11939
ag14
((lp11940
I343
atp11941
Rp11942
ag14
((lp11943
tp11944
Rp11945
ag14
((lp11946
tp11947
Rp11948
ag14
((lp11949
I-316
atp11950
Rp11951
ag14
((lp11952
tp11953
Rp11954
ag14
((lp11955
tp11956
Rp11957
ag14
((lp11958
tp11959
Rp11960
ag14
((lp11961
tp11962
Rp11963
ag14
((lp11964
tp11965
Rp11966
ag14
((lp11967
tp11968
Rp11969
ag14
((lp11970
tp11971
Rp11972
ag14
((lp11973
tp11974
Rp11975
ag14
((lp11976
tp11977
Rp11978
ag14
((lp11979
tp11980
Rp11981
ag14
((lp11982
tp11983
Rp11984
ag14
((lp11985
tp11986
Rp11987
ag14
((lp11988
I-325
aI-324
aI-313
aI-321
atp11989
Rp11990
ag14
((lp11991
I-326
aI-324
aI-313
aI-321
atp11992
Rp11993
ag14
((lp11994
I327
aI-326
aI-325
aI-313
aI-321
atp11995
Rp11996
ag14
((lp11997
tp11998
Rp11999
ag14
((lp12000
tp12001
Rp12002
ag14
((lp12003
I327
aI-313
aI-326
aI-325
aI-324
atp12004
Rp12005
ag14
((lp12006
tp12007
Rp12008
ag14
((lp12009
tp12010
Rp12011
ag14
((lp12012
I-312
aI-310
aI-300
atp12013
Rp12014
ag14
((lp12015
I-312
aI321
aI-307
atp12016
Rp12017
ag14
((lp12018
I-339
atp12019
Rp12020
ag14
((lp12021
tp12022
Rp12023
ag14
((lp12024
tp12025
Rp12026
ag14
((lp12027
I-326
aI-325
aI-324
aI-321
atp12028
Rp12029
ag14
((lp12030
I321
aI-318
aI-317
aI-300
aI-307
atp12031
Rp12032
ag14
((lp12033
I321
atp12034
Rp12035
ag14
((lp12036
I-318
atp12037
Rp12038
ag14
((lp12039
tp12040
Rp12041
ag14
((lp12042
tp12043
Rp12044
ag14
((lp12045
I-312
aI321
aI-317
atp12046
Rp12047
ag14
((lp12048
tp12049
Rp12050
ag14
((lp12051
I310
aI311
aI312
aI313
aI314
aI316
atp12052
Rp12053
ag14
((lp12054
tp12055
Rp12056
ag14
((lp12057
tp12058
Rp12059
ag14
((lp12060
I-289
atp12061
Rp12062
ag14
((lp12063
tp12064
Rp12065
ag14
((lp12066
I-312
aI-318
atp12067
Rp12068
ag14
((lp12069
tp12070
Rp12071
ag14
((lp12072
tp12073
Rp12074
ag14
((lp12075
tp12076
Rp12077
ag14
((lp12078
I302
atp12079
Rp12080
ag14
((lp12081
tp12082
Rp12083
ag14
((lp12084
tp12085
Rp12086
ag14
((lp12087
tp12088
Rp12089
ag14
((lp12090
tp12091
Rp12092
ag14
((lp12093
tp12094
Rp12095
ag14
((lp12096
tp12097
Rp12098
ag14
((lp12099
I-302
atp12100
Rp12101
ag14
((lp12102
I302
atp12103
Rp12104
ag14
((lp12105
tp12106
Rp12107
ag14
((lp12108
tp12109
Rp12110
ag14
((lp12111
tp12112
Rp12113
ag14
((lp12114
tp12115
Rp12116
ag14
((lp12117
tp12118
Rp12119
ag14
((lp12120
I286
aI-277
aI-251
atp12121
Rp12122
ag14
((lp12123
I-269
aI-276
atp12124
Rp12125
ag14
((lp12126
tp12127
Rp12128
ag14
((lp12129
tp12130
Rp12131
ag14
((lp12132
I1720
aI1721
aI1718
aI1719
atp12133
Rp12134
ag14
((lp12135
I-251
aI-282
atp12136
Rp12137
ag14
((lp12138
I-269
aI-281
atp12139
Rp12140
ag14
((lp12141
I281
atp12142
Rp12143
ag14
((lp12144
I-271
aI-268
atp12145
Rp12146
ag14
((lp12147
tp12148
Rp12149
ag14
((lp12150
tp12151
Rp12152
ag14
((lp12153
I-274
atp12154
Rp12155
ag14
((lp12156
I288
aI290
aI287
atp12157
Rp12158
ag14
((lp12159
I-276
aI-281
atp12160
Rp12161
ag14
((lp12162
I-274
atp12163
Rp12164
ag14
((lp12165
I-255
aI271
atp12166
Rp12167
ag14
((lp12168
I267
aI268
aI269
atp12169
Rp12170
ag14
((lp12171
tp12172
Rp12173
ag14
((lp12174
I270
atp12175
Rp12176
ag14
((lp12177
tp12178
Rp12179
ag14
((lp12180
I-248
aI-247
aI-249
aI-215
atp12181
Rp12182
ag14
((lp12183
tp12184
Rp12185
ag14
((lp12186
tp12187
Rp12188
ag14
((lp12189
I-250
atp12190
Rp12191
ag14
((lp12192
tp12193
Rp12194
ag14
((lp12195
I-256
atp12196
Rp12197
ag14
((lp12198
I-257
atp12199
Rp12200
ag14
((lp12201
I-267
aI271
atp12202
Rp12203
ag14
((lp12204
tp12205
Rp12206
ag14
((lp12207
tp12208
Rp12209
ag14
((lp12210
tp12211
Rp12212
ag14
((lp12213
I-277
aI-282
atp12214
Rp12215
ag14
((lp12216
I-259
atp12217
Rp12218
ag14
((lp12219
I-215
aI-262
aI-247
atp12220
Rp12221
ag14
((lp12222
I-215
aI-262
atp12223
Rp12224
ag14
((lp12225
I-215
aI-262
aI-249
atp12226
Rp12227
ag14
((lp12228
tp12229
Rp12230
ag14
((lp12231
I-242
atp12232
Rp12233
ag14
((lp12234
tp12235
Rp12236
ag14
((lp12237
tp12238
Rp12239
ag14
((lp12240
I-245
aI251
atp12241
Rp12242
ag14
((lp12243
I-214
aI-213
aI-212
aI242
atp12244
Rp12245
ag14
((lp12246
tp12247
Rp12248
ag14
((lp12249
I241
aI-211
atp12250
Rp12251
ag14
((lp12252
tp12253
Rp12254
ag14
((lp12255
tp12256
Rp12257
ag14
((lp12258
tp12259
Rp12260
ag14
((lp12261
tp12262
Rp12263
ag14
((lp12264
tp12265
Rp12266
ag14
((lp12267
tp12268
Rp12269
ag14
((lp12270
tp12271
Rp12272
ag14
((lp12273
tp12274
Rp12275
ag14
((lp12276
tp12277
Rp12278
ag14
((lp12279
I251
atp12280
Rp12281
ag14
((lp12282
tp12283
Rp12284
ag14
((lp12285
tp12286
Rp12287
ag14
((lp12288
I539
atp12289
Rp12290
ag14
((lp12291
I249
aI250
aI246
atp12292
Rp12293
ag14
((lp12294
tp12295
Rp12296
ag14
((lp12297
tp12298
Rp12299
ag14
((lp12300
I225
aI-206
aI-205
aI-203
aI-181
atp12301
Rp12302
ag14
((lp12303
tp12304
Rp12305
ag14
((lp12306
tp12307
Rp12308
ag14
((lp12309
tp12310
Rp12311
ag14
((lp12312
tp12313
Rp12314
ag14
((lp12315
tp12316
Rp12317
ag14
((lp12318
I-390
atp12319
Rp12320
ag14
((lp12321
I-248
aI-247
aI-262
aI-249
atp12322
Rp12323
ag14
((lp12324
I-212
aI-241
atp12325
Rp12326
ag14
((lp12327
I242
aI-241
atp12328
Rp12329
ag14
((lp12330
I-214
aI-241
atp12331
Rp12332
ag14
((lp12333
I-239
aI241
atp12334
Rp12335
ag14
((lp12336
tp12337
Rp12338
ag14
((lp12339
I224
aI-208
aI-204
aI-186
atp12340
Rp12341
ag14
((lp12342
I224
aI-204
aI-186
aI-209
atp12343
Rp12344
ag14
((lp12345
tp12346
Rp12347
ag14
((lp12348
I225
aI-222
aI-205
aI-203
aI-181
aI226
atp12349
Rp12350
ag14
((lp12351
I225
aI-206
aI-203
aI-181
aI-222
atp12352
Rp12353
ag14
((lp12354
I-208
aI224
aI-186
aI-209
atp12355
Rp12356
ag14
((lp12357
I225
aI-222
aI-205
aI-181
aI-206
atp12358
Rp12359
ag14
((lp12360
I-201
atp12361
Rp12362
ag14
((lp12363
I-202
atp12364
Rp12365
ag14
((lp12366
I222
aI223
atp12367
Rp12368
ag14
((lp12369
tp12370
Rp12371
ag14
((lp12372
I-197
atp12373
Rp12374
ag14
((lp12375
I-198
atp12376
Rp12377
ag14
((lp12378
tp12379
Rp12380
ag14
((lp12381
tp12382
Rp12383
ag14
((lp12384
tp12385
Rp12386
ag14
((lp12387
I208
aI202
aI196
aI206
atp12388
Rp12389
ag14
((lp12390
I212
aI197
aI-183
aI-182
aI204
aI205
atp12391
Rp12392
ag14
((lp12393
tp12394
Rp12395
ag14
((lp12396
tp12397
Rp12398
ag14
((lp12399
tp12400
Rp12401
ag14
((lp12402
tp12403
Rp12404
ag14
((lp12405
tp12406
Rp12407
ag14
((lp12408
I-208
aI224
aI-204
aI-209
atp12409
Rp12410
ag14
((lp12411
I198
aI199
aI200
aI201
aI-182
aI204
aI206
aI207
aI210
aI-173
aI213
aI214
aI215
aI216
aI-164
aI-184
aI211
atp12412
Rp12413
ag14
((lp12414
I198
aI199
aI200
aI201
aI-182
aI204
aI206
aI207
aI210
aI211
aI214
aI215
aI216
aI-164
aI-185
atp12415
Rp12416
ag14
((lp12417
I-192
aI212
aI197
aI-182
aI204
aI205
atp12418
Rp12419
ag14
((lp12420
I-192
aI197
aI198
aI-185
aI-184
aI-183
aI203
aI204
aI205
aI206
aI207
aI210
aI-173
aI212
aI213
aI214
aI215
aI216
aI-164
aI199
aI200
aI211
aI201
atp12421
Rp12422
ag14
((lp12423
I225
aI-206
aI-205
aI-203
aI-222
atp12424
Rp12425
ag14
((lp12426
tp12427
Rp12428
ag14
((lp12429
tp12430
Rp12431
ag14
((lp12432
tp12433
Rp12434
ag14
((lp12435
tp12436
Rp12437
ag14
((lp12438
tp12439
Rp12440
ag14
((lp12441
tp12442
Rp12443
ag14
((lp12444
tp12445
Rp12446
ag14
((lp12447
I198
aI-185
aI200
aI-182
aI199
aI204
aI206
aI207
aI211
aI213
aI-164
atp12448
Rp12449
ag14
((lp12450
tp12451
Rp12452
ag14
((lp12453
tp12454
Rp12455
ag14
((lp12456
tp12457
Rp12458
ag14
((lp12459
tp12460
Rp12461
ag14
((lp12462
tp12463
Rp12464
ag14
((lp12465
tp12466
Rp12467
ag14
((lp12468
tp12469
Rp12470
ag14
((lp12471
tp12472
Rp12473
ag14
((lp12474
I198
aI-185
aI-184
aI201
aI-182
aI204
aI206
aI207
aI210
aI-173
aI213
aI214
aI215
aI216
aI199
aI200
aI211
atp12475
Rp12476
ag14
((lp12477
I180
aI181
atp12478
Rp12479
ag14
((lp12480
tp12481
Rp12482
ag14
((lp12483
I173
atp12484
Rp12485
ag14
((lp12486
I-153
atp12487
Rp12488
ag14
((lp12489
tp12490
Rp12491
ag14
((lp12492
tp12493
Rp12494
ag14
((lp12495
tp12496
Rp12497
ag14
((lp12498
I606
atp12499
Rp12500
ag14
((lp12501
tp12502
Rp12503
ag14
((lp12504
tp12505
Rp12506
ag14
((lp12507
I-160
atp12508
Rp12509
ag14
((lp12510
tp12511
Rp12512
ag14
((lp12513
tp12514
Rp12515
ag14
((lp12516
I160
aI161
aI162
aI163
aI164
aI165
aI158
aI159
atp12517
Rp12518
ag14
((lp12519
tp12520
Rp12521
ag14
((lp12522
tp12523
Rp12524
ag14
((lp12525
I-128
aI-127
aI-126
aI-125
aI-124
aI-123
aI-122
aI-121
aI-120
aI-119
aI-117
aI-115
aI-145
aI152
aI-110
aI-109
aI149
aI150
aI151
aI-104
aI153
aI154
aI155
aI-100
aI-98
aI-94
aI-93
aI-92
aI-91
aI-89
aI-88
aI-86
aI-85
aI-83
aI-81
aI-78
aI-77
aI-76
aI-75
aI-62
aI-146
aI-106
aI-17
aI-144
aI-143
aI-142
aI-141
aI-137
aI-136
aI-135
aI-132
aI-131
aI-129
atp12526
Rp12527
ag14
((lp12528
I-128
aI-127
aI-126
aI-125
aI-123
aI-122
aI-121
aI-120
aI-119
aI-115
aI-145
aI152
aI-110
aI-109
aI149
aI-106
aI151
aI-104
aI153
aI154
aI155
aI-100
aI150
aI-94
aI-93
aI-92
aI-91
aI-89
aI-88
aI-86
aI-85
aI-83
aI-81
aI-78
aI-77
aI-76
aI-98
aI-75
aI-62
aI-147
aI-17
aI-144
aI-143
aI-142
aI-141
aI-137
aI-136
aI-135
aI-132
aI-131
aI-129
atp12529
Rp12530
ag14
((lp12531
I-128
aI-127
aI-126
aI-125
aI-123
aI-122
aI-121
aI-120
aI-119
aI-117
aI-115
aI152
aI-110
aI-109
aI149
aI150
aI151
aI-104
aI153
aI154
aI155
aI-100
aI-98
aI-94
aI-93
aI-92
aI-91
aI-89
aI-88
aI-86
aI-85
aI-83
aI-81
aI-78
aI-77
aI-76
aI-75
aI-62
aI-146
aI-17
aI-147
aI-106
aI-144
aI-143
aI-142
aI-141
aI-137
aI-136
aI-135
aI-132
aI-131
aI-129
atp12532
Rp12533
ag14
((lp12534
I-128
aI-127
aI-126
aI-125
aI150
aI-122
aI-121
aI-120
aI-119
aI-117
aI-115
aI152
aI-110
aI-109
aI149
aI-106
aI151
aI-104
aI153
aI154
aI155
aI-100
aI-98
aI-123
aI-94
aI-93
aI-92
aI-91
aI-89
aI-88
aI-86
aI-85
aI-83
aI-81
aI-78
aI-77
aI-76
aI-75
aI-62
aI-17
aI-147
aI-146
aI-145
aI-143
aI-142
aI-141
aI-137
aI-136
aI-135
aI-132
aI-131
aI-129
atp12535
Rp12536
ag14
((lp12537
I-128
aI-127
aI-126
aI-125
aI-106
aI-122
aI-121
aI-120
aI-119
aI-117
aI-115
aI-145
aI152
aI-110
aI-109
aI149
aI150
aI151
aI-104
aI153
aI154
aI155
aI-100
aI-98
aI-123
aI-94
aI-93
aI-92
aI-91
aI-89
aI-88
aI-86
aI-85
aI-83
aI-81
aI-78
aI-77
aI-76
aI-75
aI-62
aI-147
aI-146
aI-17
aI-144
aI-142
aI-141
aI-137
aI-136
aI-135
aI-132
aI-131
aI-129
atp12538
Rp12539
ag14
((lp12540
I-128
aI-127
aI-126
aI-125
aI150
aI-122
aI-121
aI-120
aI-119
aI-117
aI-115
aI-145
aI-104
aI-110
aI-109
aI149
aI-106
aI151
aI152
aI153
aI155
aI-100
aI-98
aI-123
aI-94
aI-93
aI-92
aI-91
aI-89
aI-88
aI-86
aI-85
aI-83
aI-81
aI-78
aI-77
aI-76
aI-75
aI-62
aI-147
aI-146
aI-17
aI-144
aI-143
aI-141
aI-137
aI-136
aI-135
aI-132
aI-131
aI-129
atp12541
Rp12542
ag14
((lp12543
I-128
aI-127
aI-126
aI-106
aI-122
aI-17
aI-120
aI-119
aI-117
aI-115
aI152
aI-110
aI-109
aI149
aI150
aI151
aI-104
aI153
aI155
aI-100
aI-98
aI-123
aI-94
aI-93
aI-92
aI-91
aI-89
aI-88
aI-86
aI-81
aI-78
aI-77
aI-76
aI-75
aI-62
aI-147
aI-146
aI-145
aI-144
aI-143
aI-142
aI-136
aI-135
aI-132
aI-131
aI-129
atp12544
Rp12545
ag14
((lp12546
tp12547
Rp12548
ag14
((lp12549
tp12550
Rp12551
ag14
((lp12552
tp12553
Rp12554
ag14
((lp12555
I-128
aI-127
aI-126
aI-125
aI-124
aI-123
aI-122
aI-121
aI-119
aI-115
aI-104
aI-110
aI-109
aI149
aI-106
aI151
aI152
aI153
aI154
aI-17
aI-100
aI150
aI-94
aI-93
aI-92
aI-91
aI-89
aI-88
aI-86
aI-85
aI-83
aI-81
aI-78
aI-77
aI-76
aI-98
aI-75
aI-62
aI-147
aI-146
aI-145
aI-144
aI-143
aI-142
aI-136
aI-135
aI-132
aI-131
aI-129
atp12556
Rp12557
ag14
((lp12558
I-128
aI-127
aI-126
aI-125
aI-123
aI-122
aI-121
aI-120
aI-119
aI-117
aI-115
aI-104
aI-110
aI-109
aI149
aI-106
aI151
aI152
aI153
aI154
aI155
aI-100
aI-98
aI-94
aI-93
aI-92
aI-91
aI-89
aI-88
aI-86
aI-85
aI-83
aI-81
aI-78
aI-77
aI-76
aI-75
aI-62
aI-17
aI-147
aI-146
aI-145
aI-144
aI-143
aI-142
aI-141
aI150
aI-137
aI-135
aI-132
aI-131
aI-129
atp12559
Rp12560
ag14
((lp12561
I-128
aI-127
aI-126
aI-125
aI-124
aI-123
aI-122
aI-121
aI-120
aI-119
aI-115
aI-104
aI-110
aI-109
aI149
aI150
aI151
aI152
aI153
aI154
aI155
aI-100
aI-98
aI-94
aI-93
aI-92
aI-91
aI-89
aI-88
aI-86
aI-85
aI-83
aI-81
aI-78
aI-77
aI-76
aI-75
aI-62
aI-146
aI-17
aI-147
aI-106
aI-145
aI-144
aI-143
aI-142
aI-141
aI-137
aI-136
aI-132
aI-131
aI-129
atp12562
Rp12563
ag14
((lp12564
tp12565
Rp12566
ag14
((lp12567
tp12568
Rp12569
ag14
((lp12570
I-128
aI-127
aI-126
aI-125
aI150
aI-122
aI-121
aI-120
aI-119
aI-117
aI-115
aI-104
aI-110
aI-109
aI149
aI-106
aI151
aI152
aI153
aI154
aI155
aI-100
aI-98
aI-123
aI-94
aI-93
aI-92
aI-91
aI-89
aI-88
aI-86
aI-85
aI-83
aI-81
aI-78
aI-77
aI-76
aI-75
aI-62
aI-17
aI-147
aI-146
aI-145
aI-144
aI-143
aI-142
aI-141
aI-137
aI-136
aI-135
aI-131
aI-129
atp12571
Rp12572
ag14
((lp12573
I-128
aI-127
aI-126
aI-125
aI-106
aI-122
aI-121
aI-120
aI-119
aI-117
aI-115
aI-145
aI152
aI-110
aI-109
aI149
aI150
aI151
aI-104
aI153
aI154
aI155
aI-100
aI-98
aI-123
aI-94
aI-93
aI-92
aI-91
aI-89
aI-88
aI-86
aI-85
aI-83
aI-81
aI-78
aI-77
aI-76
aI-75
aI-62
aI-147
aI-146
aI-17
aI-144
aI-143
aI-142
aI-141
aI-137
aI-136
aI-135
aI-132
aI-129
atp12574
Rp12575
ag14
((lp12576
tp12577
Rp12578
ag14
((lp12579
I-128
aI-127
aI-126
aI-125
aI-124
aI-123
aI-122
aI-121
aI-120
aI-119
aI-117
aI-115
aI-145
aI152
aI-110
aI-109
aI-108
aI149
aI-106
aI151
aI-104
aI153
aI154
aI155
aI-100
aI-98
aI-94
aI-93
aI-92
aI-91
aI-89
aI-88
aI-86
aI-85
aI-83
aI-81
aI-78
aI-77
aI-76
aI-75
aI-62
aI-147
aI-146
aI-17
aI-144
aI-143
aI-142
aI-141
aI150
aI-137
aI-136
aI-135
aI-132
aI-131
atp12580
Rp12581
ag14
((lp12582
I-127
aI-126
aI-125
aI-123
aI-122
aI-121
aI-120
aI-119
aI-117
aI-115
aI-145
aI-104
aI-110
aI-109
aI149
aI-106
aI151
aI152
aI153
aI154
aI155
aI-100
aI150
aI-94
aI-93
aI-92
aI-91
aI-89
aI-88
aI-86
aI-85
aI-83
aI-81
aI-78
aI-77
aI-76
aI-98
aI-75
aI-62
aI-147
aI-146
aI-17
aI-144
aI-143
aI-142
aI-141
aI-137
aI-136
aI-135
aI-132
aI-131
aI-129
atp12583
Rp12584
ag14
((lp12585
I-128
aI-126
aI-125
aI-123
aI-122
aI-121
aI-120
aI-119
aI-117
aI-115
aI-145
aI152
aI-110
aI-109
aI149
aI-106
aI151
aI-104
aI153
aI154
aI155
aI-100
aI-98
aI-94
aI-93
aI-92
aI-91
aI-89
aI-88
aI-86
aI-85
aI-83
aI-81
aI-78
aI-77
aI-76
aI-75
aI-62
aI-147
aI-146
aI-17
aI-144
aI-143
aI-142
aI-141
aI150
aI-137
aI-136
aI-135
aI-132
aI-131
aI-129
atp12586
Rp12587
ag14
((lp12588
I-128
aI-127
aI-125
aI-123
aI-122
aI-121
aI-120
aI-119
aI-117
aI-115
aI-145
aI-104
aI-110
aI-109
aI149
aI-106
aI151
aI152
aI153
aI154
aI155
aI-100
aI-98
aI-94
aI-93
aI-92
aI-91
aI-89
aI-88
aI-86
aI-85
aI-83
aI-81
aI-78
aI-77
aI-76
aI-75
aI-62
aI-147
aI-146
aI-17
aI-144
aI-143
aI-142
aI-141
aI150
aI-137
aI-136
aI-135
aI-132
aI-131
aI-129
atp12589
Rp12590
ag14
((lp12591
I-128
aI-127
aI-126
aI-123
aI-122
aI-121
aI-119
aI-115
aI-104
aI-110
aI-109
aI149
aI-106
aI151
aI152
aI153
aI154
aI-145
aI-100
aI-98
aI-94
aI-93
aI-92
aI-91
aI-89
aI-88
aI-86
aI-85
aI-83
aI-81
aI-78
aI-77
aI-76
aI-75
aI-62
aI-147
aI-146
aI-17
aI-144
aI-143
aI-142
aI150
aI-137
aI-136
aI-135
aI-132
aI-131
aI-129
atp12592
Rp12593
ag14
((lp12594
I-62
aI-119
aI-115
aI-83
aI150
aI154
aI-89
aI-88
aI-147
aI-81
aI-78
aI-77
aI-137
aI-135
aI-129
atp12595
Rp12596
ag14
((lp12597
I-128
aI-127
aI-126
aI-125
aI-106
aI-122
aI-121
aI-120
aI-119
aI-117
aI-115
aI152
aI-110
aI-109
aI149
aI150
aI151
aI-104
aI153
aI154
aI155
aI-100
aI-98
aI-94
aI-93
aI-92
aI-91
aI-89
aI-88
aI-86
aI-85
aI-83
aI-81
aI-78
aI-77
aI-76
aI-75
aI-62
aI-17
aI-147
aI-146
aI-145
aI-144
aI-143
aI-142
aI-141
aI-137
aI-136
aI-135
aI-132
aI-131
aI-129
atp12598
Rp12599
ag14
((lp12600
I-128
aI-127
aI-126
aI-125
aI150
aI-121
aI-120
aI-119
aI-117
aI-115
aI-145
aI-104
aI-110
aI-109
aI149
aI-106
aI151
aI152
aI153
aI154
aI155
aI-100
aI-98
aI-123
aI-94
aI-93
aI-92
aI-91
aI-89
aI-88
aI-86
aI-85
aI-83
aI-81
aI-78
aI-77
aI-76
aI-75
aI-62
aI-147
aI-146
aI-17
aI-144
aI-143
aI-142
aI-141
aI-137
aI-136
aI-135
aI-132
aI-131
aI-129
atp12601
Rp12602
ag14
((lp12603
I-128
aI-127
aI-126
aI-125
aI-106
aI-122
aI-119
aI-115
aI-110
aI-109
aI149
aI150
aI151
aI152
aI153
aI154
aI-17
aI-100
aI-98
aI-123
aI-94
aI-93
aI-92
aI-91
aI-89
aI-88
aI-86
aI-85
aI-83
aI-81
aI-78
aI-77
aI-76
aI-75
aI-62
aI-147
aI-146
aI-145
aI-144
aI-143
aI-142
aI-137
aI-136
aI-135
aI-132
aI-131
aI-129
atp12604
Rp12605
ag14
((lp12606
I-128
aI-127
aI-126
aI-145
aI-123
aI-122
aI-119
aI-117
aI-115
aI152
aI-110
aI-109
aI149
aI-106
aI151
aI-104
aI153
aI155
aI-100
aI150
aI-94
aI-93
aI-92
aI-91
aI-89
aI-88
aI-86
aI-85
aI-83
aI-81
aI-78
aI-77
aI-76
aI-98
aI-75
aI-62
aI-147
aI-146
aI-17
aI-144
aI-143
aI-142
aI-141
aI-136
aI-135
aI-132
aI-131
aI-129
atp12607
Rp12608
ag14
((lp12609
I-128
aI-127
aI-126
aI-125
aI-124
aI-106
aI-122
aI-121
aI-120
aI-117
aI-115
aI-145
aI-104
aI-110
aI-109
aI-108
aI149
aI150
aI151
aI152
aI153
aI154
aI155
aI-100
aI-98
aI-123
aI-94
aI-93
aI-92
aI-91
aI-89
aI-88
aI-86
aI-85
aI-83
aI-81
aI-78
aI-77
aI-76
aI-75
aI-62
aI-147
aI-146
aI-17
aI-144
aI-143
aI-142
aI-141
aI-137
aI-136
aI-135
aI-132
aI-131
aI-129
atp12610
Rp12611
ag14
((lp12612
I122
atp12613
Rp12614
ag14
((lp12615
I-128
aI-127
aI-126
aI-123
aI-122
aI-17
aI-120
aI-119
aI-104
aI-110
aI-109
aI150
aI151
aI152
aI153
aI155
aI-100
aI-98
aI-94
aI-93
aI-92
aI-91
aI-89
aI-88
aI-86
aI-81
aI-78
aI-77
aI-76
aI-75
aI-62
aI-147
aI-106
aI-145
aI-144
aI-143
aI-142
aI-141
aI-136
aI-132
aI-131
aI-129
atp12616
Rp12617
ag14
((lp12618
I120
atp12619
Rp12620
ag14
((lp12621
I-128
aI-127
aI-126
aI-125
aI-124
aI-123
aI-122
aI-121
aI-120
aI-119
aI-104
aI-110
aI-109
aI149
aI150
aI151
aI152
aI153
aI154
aI155
aI-100
aI-98
aI-94
aI-93
aI-92
aI-91
aI-89
aI-88
aI-86
aI-85
aI-83
aI-81
aI-78
aI-77
aI-76
aI-75
aI-62
aI-146
aI-17
aI-147
aI-106
aI-145
aI-144
aI-143
aI-142
aI-141
aI-137
aI-136
aI-135
aI-132
aI-131
aI-129
atp12622
Rp12623
ag14
((lp12624
tp12625
Rp12626
ag14
((lp12627
tp12628
Rp12629
ag14
((lp12630
tp12631
Rp12632
ag14
((lp12633
tp12634
Rp12635
ag14
((lp12636
I-128
aI-127
aI-126
aI-125
aI-123
aI-122
aI-121
aI-120
aI-119
aI-117
aI-115
aI152
aI-109
aI149
aI150
aI151
aI-104
aI153
aI154
aI155
aI-100
aI-98
aI-94
aI-93
aI-92
aI-91
aI-106
aI-89
aI-88
aI-86
aI-85
aI-83
aI-81
aI-78
aI-77
aI-76
aI-75
aI-62
aI-17
aI-147
aI-146
aI-145
aI-144
aI-143
aI-142
aI-141
aI-137
aI-136
aI-135
aI-132
aI-131
aI-129
atp12637
Rp12638
ag14
((lp12639
I-128
aI-127
aI-126
aI-125
aI150
aI-122
aI-121
aI-120
aI-119
aI-117
aI-115
aI152
aI-110
aI149
aI-106
aI151
aI-104
aI153
aI155
aI-100
aI-98
aI-123
aI-94
aI-93
aI-92
aI-91
aI-89
aI-88
aI-86
aI-85
aI-83
aI-81
aI-78
aI-77
aI-76
aI-75
aI-62
aI-17
aI-147
aI-146
aI-145
aI-144
aI-143
aI-142
aI-141
aI-137
aI-136
aI-135
aI-132
aI-131
aI-129
atp12640
Rp12641
ag14
((lp12642
I-119
aI-129
atp12643
Rp12644
ag14
((lp12645
I-103
atp12646
Rp12647
ag14
((lp12648
I-128
aI-127
aI-126
aI-125
aI-123
aI-122
aI-121
aI-120
aI-119
aI-117
aI-115
aI-104
aI-110
aI-109
aI149
aI150
aI151
aI152
aI153
aI155
aI-100
aI-98
aI-94
aI-93
aI-92
aI-91
aI-89
aI-88
aI-86
aI-85
aI-83
aI-81
aI-78
aI-77
aI-76
aI-75
aI-62
aI-146
aI-17
aI-147
aI-145
aI-144
aI-143
aI-142
aI-141
aI-137
aI-136
aI-135
aI-132
aI-131
aI-129
atp12649
Rp12650
ag14
((lp12651
tp12652
Rp12653
ag14
((lp12654
I-128
aI-127
aI-126
aI-125
aI-106
aI-122
aI-120
aI-119
aI-117
aI-115
aI-145
aI152
aI-110
aI-109
aI149
aI150
aI151
aI153
aI155
aI-100
aI-98
aI-123
aI-94
aI-93
aI-92
aI-91
aI-89
aI-88
aI-86
aI-85
aI-83
aI-81
aI-78
aI-77
aI-76
aI-75
aI-62
aI-147
aI-146
aI-17
aI-144
aI-143
aI-142
aI-141
aI-137
aI-136
aI-135
aI-132
aI-131
aI-129
atp12655
Rp12656
ag14
((lp12657
I-107
atp12658
Rp12659
ag14
((lp12660
tp12661
Rp12662
ag14
((lp12663
tp12664
Rp12665
ag14
((lp12666
I-128
aI-127
aI-126
aI-125
aI-123
aI-122
aI-121
aI-120
aI-119
aI-117
aI-115
aI-104
aI-110
aI-109
aI149
aI-106
aI151
aI152
aI153
aI154
aI155
aI-98
aI-94
aI-93
aI-92
aI-91
aI-89
aI-88
aI-86
aI-85
aI-83
aI-81
aI-78
aI-77
aI-76
aI-75
aI-62
aI-17
aI-147
aI-146
aI-145
aI-144
aI-143
aI-142
aI-141
aI150
aI-137
aI-136
aI-135
aI-132
aI-131
aI-129
atp12667
Rp12668
ag14
((lp12669
tp12670
Rp12671
ag14
((lp12672
I-128
aI-127
aI-126
aI-125
aI-123
aI-122
aI-121
aI-120
aI-119
aI-117
aI-115
aI-145
aI152
aI-110
aI-109
aI149
aI150
aI151
aI-104
aI153
aI154
aI155
aI-100
aI-94
aI-93
aI-92
aI-91
aI-106
aI-89
aI-88
aI-86
aI-85
aI-83
aI-81
aI-78
aI-77
aI-76
aI-75
aI-62
aI-147
aI-146
aI-17
aI-144
aI-143
aI-142
aI-141
aI-137
aI-136
aI-135
aI-132
aI-131
aI-129
atp12673
Rp12674
ag14
((lp12675
tp12676
Rp12677
ag14
((lp12678
tp12679
Rp12680
ag14
((lp12681
tp12682
Rp12683
ag14
((lp12684
I-128
aI-127
aI-126
aI-125
aI-123
aI-122
aI-121
aI-120
aI-119
aI-117
aI-115
aI-145
aI152
aI-110
aI-109
aI149
aI-106
aI151
aI-104
aI153
aI154
aI155
aI-100
aI150
aI-93
aI-92
aI-91
aI-89
aI-88
aI-86
aI-85
aI-83
aI-81
aI-78
aI-77
aI-76
aI-98
aI-75
aI-62
aI-147
aI-146
aI-17
aI-144
aI-143
aI-142
aI-141
aI-137
aI-136
aI-135
aI-132
aI-131
aI-129
atp12685
Rp12686
ag14
((lp12687
I-128
aI-127
aI-126
aI-125
aI150
aI-122
aI-121
aI-120
aI-119
aI-117
aI-115
aI-145
aI152
aI-110
aI-109
aI149
aI-106
aI151
aI-104
aI153
aI154
aI155
aI-100
aI-98
aI-123
aI-94
aI-92
aI-91
aI-89
aI-88
aI-86
aI-85
aI-83
aI-81
aI-78
aI-77
aI-76
aI-75
aI-62
aI-147
aI-146
aI-17
aI-144
aI-143
aI-142
aI-141
aI-137
aI-136
aI-135
aI-132
aI-131
aI-129
atp12688
Rp12689
ag14
((lp12690
I-128
aI-127
aI-126
aI-125
aI150
aI-122
aI-121
aI-120
aI-119
aI-117
aI-115
aI-145
aI-104
aI-110
aI-109
aI149
aI-106
aI151
aI152
aI153
aI154
aI155
aI-100
aI-98
aI-123
aI-94
aI-93
aI-91
aI-89
aI-88
aI-86
aI-85
aI-83
aI-81
aI-78
aI-77
aI-76
aI-75
aI-62
aI-147
aI-146
aI-17
aI-144
aI-143
aI-142
aI-141
aI-137
aI-136
aI-135
aI-132
aI-131
aI-129
atp12691
Rp12692
ag14
((lp12693
I-128
aI-127
aI-126
aI-125
aI-106
aI-122
aI-121
aI-120
aI-119
aI-117
aI-115
aI152
aI-110
aI-109
aI149
aI150
aI151
aI-104
aI153
aI155
aI-100
aI-98
aI-123
aI-94
aI-93
aI-92
aI-89
aI-88
aI-86
aI-85
aI-83
aI-81
aI-78
aI-77
aI-76
aI-75
aI-62
aI-17
aI-147
aI-146
aI-145
aI-144
aI-143
aI-142
aI-141
aI-137
aI-136
aI-135
aI-132
aI-131
aI-129
atp12694
Rp12695
ag14
((lp12696
I-57
atp12697
Rp12698
ag14
((lp12699
I-128
aI-127
aI-126
aI-125
aI-124
aI150
aI-122
aI-121
aI-120
aI-119
aI-117
aI-115
aI152
aI-110
aI-109
aI149
aI-106
aI151
aI-104
aI153
aI154
aI155
aI-100
aI-98
aI-123
aI-94
aI-93
aI-92
aI-91
aI-88
aI-86
aI-85
aI-83
aI-81
aI-78
aI-77
aI-76
aI-75
aI-62
aI-17
aI-147
aI-146
aI-145
aI-144
aI-143
aI-142
aI-141
aI-137
aI-136
aI-135
aI-132
aI-131
aI-129
atp12700
Rp12701
ag14
((lp12702
I-128
aI-127
aI-126
aI-125
aI-124
aI-123
aI-122
aI-121
aI-120
aI-119
aI-117
aI-115
aI-145
aI152
aI-110
aI-109
aI149
aI150
aI151
aI-104
aI153
aI154
aI155
aI-100
aI-98
aI-94
aI-93
aI-92
aI-91
aI-106
aI-89
aI-86
aI-85
aI-83
aI-81
aI-78
aI-77
aI-76
aI-75
aI-62
aI-147
aI-146
aI-17
aI-144
aI-143
aI-142
aI-141
aI-137
aI-136
aI-135
aI-132
aI-131
aI-129
atp12703
Rp12704
ag14
((lp12705
I129
aI-29
atp12706
Rp12707
ag14
((lp12708
I-128
aI-127
aI-126
aI-125
aI-123
aI-122
aI-121
aI-120
aI-119
aI-117
aI-115
aI152
aI-110
aI-109
aI149
aI-106
aI151
aI-104
aI153
aI155
aI-100
aI-98
aI-94
aI-93
aI-92
aI-91
aI-89
aI-88
aI-85
aI-83
aI-81
aI-78
aI-77
aI-76
aI-75
aI-62
aI-17
aI-147
aI-146
aI-145
aI-144
aI-143
aI-142
aI-141
aI150
aI-137
aI-136
aI-135
aI-132
aI-131
aI-129
atp12709
Rp12710
ag14
((lp12711
I-128
aI-127
aI-126
aI-125
aI-106
aI-122
aI-121
aI-120
aI-119
aI-115
aI-145
aI152
aI-110
aI-109
aI149
aI150
aI151
aI-104
aI153
aI154
aI155
aI-100
aI-98
aI-123
aI-94
aI-93
aI-92
aI-91
aI-89
aI-88
aI-86
aI-83
aI-81
aI-78
aI-77
aI-76
aI-75
aI-62
aI-147
aI-146
aI-17
aI-144
aI-143
aI-142
aI-137
aI-136
aI-135
aI-132
aI-131
aI-129
atp12712
Rp12713
ag14
((lp12714
tp12715
Rp12716
ag14
((lp12717
I-128
aI-127
aI-126
aI-125
aI-124
aI-123
aI-122
aI-121
aI-120
aI-119
aI-115
aI152
aI-110
aI-109
aI149
aI-106
aI151
aI-104
aI153
aI154
aI155
aI-100
aI-98
aI-94
aI-93
aI-92
aI-91
aI-89
aI-88
aI-86
aI-85
aI-81
aI-78
aI-77
aI-76
aI-75
aI-62
aI-17
aI-147
aI-146
aI-145
aI-144
aI-143
aI-142
aI150
aI-137
aI-136
aI-135
aI-132
aI-131
aI-129
atp12718
Rp12719
ag14
((lp12720
tp12721
Rp12722
ag14
((lp12723
I-128
aI-127
aI-126
aI-125
aI-124
aI-123
aI-122
aI-121
aI-120
aI-119
aI-117
aI-115
aI152
aI-110
aI-109
aI149
aI150
aI151
aI-104
aI153
aI154
aI155
aI-100
aI-98
aI-94
aI-93
aI-92
aI-91
aI-89
aI-88
aI-86
aI-85
aI-83
aI-78
aI-77
aI-76
aI-75
aI-62
aI-146
aI-17
aI-147
aI-106
aI-145
aI-144
aI-143
aI-142
aI-141
aI-137
aI-136
aI-135
aI-132
aI-131
aI-129
atp12724
Rp12725
ag14
((lp12726
I88
atp12727
Rp12728
ag14
((lp12729
I-391
aI-414
atp12730
Rp12731
ag14
((lp12732
I-128
aI-127
aI-126
aI-125
aI-124
aI-123
aI-122
aI-121
aI-120
aI-119
aI-117
aI-115
aI-104
aI-110
aI-109
aI149
aI150
aI151
aI152
aI153
aI154
aI155
aI-100
aI-98
aI-94
aI-93
aI-92
aI-91
aI-89
aI-88
aI-86
aI-85
aI-83
aI-81
aI-77
aI-76
aI-75
aI-62
aI-146
aI-17
aI-147
aI-106
aI-145
aI-144
aI-143
aI-142
aI-141
aI-137
aI-136
aI-135
aI-132
aI-131
aI-129
atp12733
Rp12734
ag14
((lp12735
I-128
aI-127
aI-126
aI-125
aI-124
aI-123
aI-122
aI-121
aI-120
aI-119
aI-117
aI-115
aI-104
aI-110
aI-109
aI149
aI-106
aI151
aI152
aI153
aI154
aI155
aI-100
aI-98
aI-94
aI-93
aI-92
aI-91
aI-89
aI-88
aI-86
aI-85
aI-83
aI-81
aI-78
aI-76
aI-75
aI-62
aI-17
aI-147
aI-146
aI-145
aI-144
aI-143
aI-142
aI-141
aI150
aI-137
aI-136
aI-135
aI-132
aI-131
aI-129
atp12736
Rp12737
ag14
((lp12738
I-128
aI-127
aI-126
aI-125
aI-123
aI-122
aI-121
aI-120
aI-119
aI-117
aI-115
aI152
aI-110
aI-109
aI149
aI150
aI151
aI-104
aI153
aI154
aI155
aI-100
aI-98
aI-94
aI-93
aI-92
aI-91
aI-89
aI-88
aI-86
aI-85
aI-83
aI-81
aI-78
aI-77
aI-75
aI-62
aI-146
aI-17
aI-147
aI-106
aI-145
aI-144
aI-143
aI-142
aI-141
aI-137
aI-136
aI-135
aI-132
aI-131
aI-129
atp12739
Rp12740
ag14
((lp12741
I-128
aI-127
aI-126
aI-125
aI-123
aI-122
aI-121
aI-120
aI-119
aI-117
aI-115
aI-104
aI-110
aI-109
aI149
aI-106
aI151
aI152
aI153
aI155
aI-100
aI-98
aI-94
aI-93
aI-92
aI-91
aI-89
aI-88
aI-86
aI-85
aI-83
aI-81
aI-78
aI-77
aI-76
aI-62
aI-17
aI-147
aI-146
aI-145
aI-144
aI-143
aI-142
aI-141
aI150
aI-137
aI-136
aI-135
aI-132
aI-131
aI-129
atp12742
Rp12743
ag14
((lp12744
I88
aI-67
aI-73
atp12745
Rp12746
ag14
((lp12747
I88
aI87
aI-67
aI-74
atp12748
Rp12749
ag14
((lp12750
tp12751
Rp12752
ag14
((lp12753
tp12754
Rp12755
ag14
((lp12756
tp12757
Rp12758
ag14
((lp12759
tp12760
Rp12761
ag14
((lp12762
I75
atp12763
Rp12764
ag14
((lp12765
I88
aI-74
aI-73
atp12766
Rp12767
ag14
((lp12768
tp12769
Rp12770
ag14
((lp12771
tp12772
Rp12773
ag14
((lp12774
tp12775
Rp12776
ag14
((lp12777
tp12778
Rp12779
ag14
((lp12780
I-128
aI-127
aI-126
aI-125
aI-124
aI-123
aI-122
aI-121
aI-120
aI-119
aI-117
aI-115
aI-104
aI-110
aI-109
aI149
aI150
aI151
aI152
aI153
aI154
aI155
aI-100
aI-98
aI-94
aI-93
aI-92
aI-91
aI-89
aI-88
aI-86
aI-85
aI-83
aI-81
aI-78
aI-77
aI-76
aI-75
aI-146
aI-17
aI-147
aI-106
aI-145
aI-144
aI-143
aI-142
aI-141
aI-137
aI-136
aI-135
aI-132
aI-131
aI-129
atp12781
Rp12782
ag14
((lp12783
tp12784
Rp12785
ag14
((lp12786
I88
atp12787
Rp12788
ag14
((lp12789
I72
aI73
aI79
aI77
atp12790
Rp12791
ag14
((lp12792
tp12793
Rp12794
ag14
((lp12795
I-90
atp12796
Rp12797
ag14
((lp12798
tp12799
Rp12800
ag14
((lp12801
tp12802
Rp12803
ag14
((lp12804
tp12805
Rp12806
ag14
((lp12807
tp12808
Rp12809
ag14
((lp12810
tp12811
Rp12812
ag14
((lp12813
tp12814
Rp12815
ag14
((lp12816
tp12817
Rp12818
ag14
((lp12819
tp12820
Rp12821
ag14
((lp12822
tp12823
Rp12824
ag14
((lp12825
tp12826
Rp12827
ag14
((lp12828
tp12829
Rp12830
ag14
((lp12831
tp12832
Rp12833
ag14
((lp12834
tp12835
Rp12836
ag14
((lp12837
tp12838
Rp12839
ag14
((lp12840
tp12841
Rp12842
ag14
((lp12843
tp12844
Rp12845
ag14
((lp12846
I285
atp12847
Rp12848
ag14
((lp12849
tp12850
Rp12851
ag14
((lp12852
tp12853
Rp12854
ag14
((lp12855
tp12856
Rp12857
ag14
((lp12858
tp12859
Rp12860
ag14
((lp12861
tp12862
Rp12863
ag14
((lp12864
tp12865
Rp12866
ag14
((lp12867
tp12868
Rp12869
ag14
((lp12870
tp12871
Rp12872
ag14
((lp12873
tp12874
Rp12875
ag14
((lp12876
tp12877
Rp12878
ag14
((lp12879
I129
aI133
aI-87
atp12880
Rp12881
ag14
((lp12882
tp12883
Rp12884
ag14
((lp12885
tp12886
Rp12887
ag14
((lp12888
tp12889
Rp12890
ag14
((lp12891
tp12892
Rp12893
ag14
((lp12894
tp12895
Rp12896
ag14
((lp12897
tp12898
Rp12899
ag14
((lp12900
tp12901
Rp12902
ag14
((lp12903
tp12904
Rp12905
ag14
((lp12906
tp12907
Rp12908
ag14
((lp12909
tp12910
Rp12911
ag14
((lp12912
tp12913
Rp12914
ag14
((lp12915
I-128
aI-127
aI-126
aI-125
aI-123
aI-122
aI-121
aI-120
aI-119
aI-117
aI-115
aI-145
aI152
aI-110
aI-109
aI149
aI-106
aI151
aI-104
aI153
aI155
aI-100
aI150
aI-94
aI-93
aI-92
aI-91
aI-89
aI-88
aI-86
aI-85
aI-83
aI-81
aI-78
aI-77
aI-76
aI-98
aI-75
aI-62
aI-147
aI-146
aI-144
aI-143
aI-142
aI-141
aI-137
aI-136
aI-135
aI-132
aI-131
aI-129
atp12916
Rp12917
ag14
((lp12918
I129
atp12919
Rp12920
ag14
((lp12921
tp12922
Rp12923
ag14
((lp12924
tp12925
Rp12926
ag14
((lp12927
tp12928
Rp12929
ag14
((lp12930
tp12931
Rp12932
ag14
((lp12933
tp12934
Rp12935
ag14
((lp12936
tp12937
Rp12938
ag14
((lp12939
I-1
atp12940
Rp12941
ag14
((lp12942
tp12943
Rp12944
ag14
((lp12945
tp12946
Rp12947
ag14
((lp12948
tp12949
Rp12950
ag14
((lp12951
tp12952
Rp12953
ag14
((lp12954
tp12955
Rp12956
ag14
((lp12957
I-1374
atp12958
Rp12959
ag14
((lp12960
tp12961
Rp12962
ag14
((lp12963
I-9
atp12964
Rp12965
atp12966
b.