cnumpy.core.multiarray
_reconstruct
p0
(cnumpy
ndarray
p1
(I0
tp2
S'b'
p3
tp4
Rp5
(I1
(I551
tp6
cnumpy
dtype
p7
(S'O8'
p8
I0
I1
tp9
Rp10
(I3
S'|'
p11
NNNI-1
I-1
I63
tp12
bI00
(lp13
c__builtin__
set
p14
((lp15
tp16
Rp17
ag14
((lp18
tp19
Rp20
ag14
((lp21
tp22
Rp23
ag14
((lp24
I4
aI5
atp25
Rp26
ag14
((lp27
I3
aI5
atp28
Rp29
ag14
((lp30
I3
aI4
atp31
Rp32
ag14
((lp33
I-3
atp34
Rp35
ag14
((lp36
I-4
atp37
Rp38
ag14
((lp39
tp40
Rp41
ag14
((lp42
I10
aI-5
atp43
Rp44
ag14
((lp45
I9
aI-5
atp46
Rp47
ag14
((lp48
tp49
Rp50
ag14
((lp51
tp52
Rp53
ag14
((lp54
tp55
Rp56
ag14
((lp57
tp58
Rp59
ag14
((lp60
tp61
Rp62
ag14
((lp63
tp64
Rp65
ag14
((lp66
tp67
Rp68
ag14
((lp69
I21
atp70
Rp71
ag14
((lp72
I20
atp73
Rp74
ag14
((lp75
I19
atp76
Rp77
ag14
((lp78
I18
atp79
Rp80
ag14
((lp81
I24
atp82
Rp83
ag14
((lp84
tp85
Rp86
ag14
((lp87
I22
atp88
Rp89
ag14
((lp90
tp91
Rp92
ag14
((lp93
tp94
Rp95
ag14
((lp96
tp97
Rp98
ag14
((lp99
I-22
aI-19
atp100
Rp101
ag14
((lp102
tp103
Rp104
ag14
((lp105
tp106
Rp107
ag14
((lp108
I-26
atp109
Rp110
ag14
((lp111
I33
aI34
aI36
aI37
aI38
aI39
aI40
aI41
atp112
Rp113
ag14
((lp114
I32
aI34
aI36
aI38
aI40
atp115
Rp116
ag14
((lp117
I32
aI33
aI36
aI39
aI40
atp118
Rp119
ag14
((lp120
tp121
Rp122
ag14
((lp123
I32
aI33
aI34
aI37
aI38
aI40
aI41
aI42
atp124
Rp125
ag14
((lp126
I32
aI36
aI38
aI40
aI41
aI42
atp127
Rp128
ag14
((lp129
I32
aI33
aI36
aI37
aI40
aI41
aI42
atp130
Rp131
ag14
((lp132
I32
aI34
atp133
Rp134
ag14
((lp135
I32
aI33
aI34
aI36
aI37
aI38
aI41
aI42
atp136
Rp137
ag14
((lp138
I32
aI36
aI37
aI38
aI40
aI42
atp139
Rp140
ag14
((lp141
I36
aI37
aI38
aI40
aI41
atp142
Rp143
ag14
((lp144
I-35
aI-34
atp145
Rp146
ag14
((lp147
tp148
Rp149
ag14
((lp150
tp151
Rp152
ag14
((lp153
I-40
aI-45
aI-43
atp154
Rp155
ag14
((lp156
I50
atp157
Rp158
ag14
((lp159
I49
atp160
Rp161
ag14
((lp162
I48
atp163
Rp164
ag14
((lp165
I47
atp166
Rp167
ag14
((lp168
tp169
Rp170
ag14
((lp171
tp172
Rp173
ag14
((lp174
tp175
Rp176
ag14
((lp177
tp178
Rp179
ag14
((lp180
tp181
Rp182
ag14
((lp183
tp184
Rp185
ag14
((lp186
tp187
Rp188
ag14
((lp189
tp190
Rp191
ag14
((lp192
tp193
Rp194
ag14
((lp195
tp196
Rp197
ag14
((lp198
tp199
Rp200
ag14
((lp201
tp202
Rp203
ag14
((lp204
tp205
Rp206
ag14
((lp207
I65
atp208
Rp209
ag14
((lp210
I64
atp211
Rp212
ag14
((lp213
tp214
Rp215
ag14
((lp216
tp217
Rp218
ag14
((lp219
tp220
Rp221
ag14
((lp222
tp223
Rp224
ag14
((lp225
tp226
Rp227
ag14
((lp228
tp229
Rp230
ag14
((lp231
tp232
Rp233
ag14
((lp234
tp235
Rp236
ag14
((lp237
tp238
Rp239
ag14
((lp240
tp241
Rp242
ag14
((lp243
tp244
Rp245
ag14
((lp246
tp247
Rp248
ag14
((lp249
tp250
Rp251
ag14
((lp252
tp253
Rp254
ag14
((lp255
tp256
Rp257
ag14
((lp258
I82
aI83
atp259
Rp260
ag14
((lp261
I81
aI83
atp262
Rp263
ag14
((lp264
I81
aI82
atp265
Rp266
ag14
((lp267
I-81
aI-77
aI85
aI86
aI87
aI88
aI89
aI90
aI91
aI92
atp268
Rp269
ag14
((lp270
I-81
aI-77
aI84
aI86
aI87
aI88
aI89
aI90
aI91
aI92
atp271
Rp272
ag14
((lp273
I-81
aI-77
aI84
aI85
aI87
aI88
aI89
aI90
aI91
aI92
atp274
Rp275
ag14
((lp276
I-81
aI-77
aI84
aI85
aI86
aI88
aI89
aI90
aI91
aI92
atp277
Rp278
ag14
((lp279
I-81
aI-77
aI84
aI85
aI86
aI87
aI89
aI90
aI91
aI92
atp280
Rp281
ag14
((lp282
I-81
aI-77
aI84
aI85
aI86
aI87
aI88
aI90
aI91
aI92
atp283
Rp284
ag14
((lp285
I-81
aI-77
aI84
aI85
aI86
aI87
aI88
aI89
aI91
aI92
atp286
Rp287
ag14
((lp288
I-81
aI-77
aI84
aI85
aI86
aI87
aI88
aI89
aI90
aI92
atp289
Rp290
ag14
((lp291
I-81
aI-77
aI84
aI85
aI86
aI87
aI88
aI89
aI90
aI91
atp292
Rp293
ag14
((lp294
I-89
atp295
Rp296
ag14
((lp297
tp298
Rp299
ag14
((lp300
tp301
Rp302
ag14
((lp303
tp304
Rp305
ag14
((lp306
tp307
Rp308
ag14
((lp309
I100
atp310
Rp311
ag14
((lp312
I100
aI101
aI-83
atp313
Rp314
ag14
((lp315
I98
aI99
aI101
aI-83
atp316
Rp317
ag14
((lp318
I99
aI100
aI-83
atp319
Rp320
ag14
((lp321
I103
atp322
Rp323
ag14
((lp324
I102
atp325
Rp326
ag14
((lp327
tp328
Rp329
ag14
((lp330
tp331
Rp332
ag14
((lp333
tp334
Rp335
ag14
((lp336
tp337
Rp338
ag14
((lp339
I112
aI113
aI-107
aI-99
aI110
aI111
atp340
Rp341
ag14
((lp342
I-104
aI-103
aI110
atp343
Rp344
ag14
((lp345
I108
aI109
aI111
aI112
aI113
aI-107
aI-104
aI-103
aI-99
atp346
Rp347
ag14
((lp348
I112
aI108
aI-107
aI110
atp349
Rp350
ag14
((lp351
I108
aI-107
aI110
aI111
atp352
Rp353
ag14
((lp354
I108
aI-107
aI110
aI-99
atp355
Rp356
ag14
((lp357
tp358
Rp359
ag14
((lp360
tp361
Rp362
ag14
((lp363
I117
atp364
Rp365
ag14
((lp366
I116
atp367
Rp368
ag14
((lp369
I-96
aI-100
aI-105
atp370
Rp371
ag14
((lp372
I-94
aI-97
atp373
Rp374
ag14
((lp375
I128
aI121
aI-69
aI129
atp376
Rp377
ag14
((lp378
I128
aI120
aI-69
aI129
atp379
Rp380
ag14
((lp381
I-101
aI-118
aI-116
aI-115
aI-114
aI-109
aI-108
aI123
aI124
aI125
aI127
atp382
Rp383
ag14
((lp384
I-118
aI-116
aI-115
aI-114
aI-109
aI-108
aI122
aI-101
aI124
aI125
aI127
atp385
Rp386
ag14
((lp387
I123
aI-118
aI-116
aI-115
aI-114
aI-109
aI-108
aI122
aI-101
aI125
aI127
atp388
Rp389
ag14
((lp390
I-101
aI-118
aI-116
aI-115
aI-114
aI-109
aI-108
aI122
aI123
aI124
aI127
atp391
Rp392
ag14
((lp393
tp394
Rp395
ag14
((lp396
I-101
aI-118
aI-116
aI-115
aI-114
aI-109
aI-108
aI122
aI123
aI124
aI125
atp397
Rp398
ag14
((lp399
I120
aI121
aI129
atp400
Rp401
ag14
((lp402
I120
aI121
aI128
aI-69
atp403
Rp404
ag14
((lp405
tp406
Rp407
ag14
((lp408
I-63
aI132
aI-122
aI134
aI-120
aI-119
aI-110
aI-11
atp409
Rp410
ag14
((lp411
I-63
aI131
aI-122
aI134
aI-120
aI-119
aI-110
aI-11
atp412
Rp413
ag14
((lp414
I-119
atp415
Rp416
ag14
((lp417
I-63
aI131
aI132
aI-122
aI-120
aI-119
aI-110
aI-11
atp418
Rp419
ag14
((lp420
tp421
Rp422
ag14
((lp423
tp424
Rp425
ag14
((lp426
I-113
atp427
Rp428
ag14
((lp429
tp430
Rp431
ag14
((lp432
tp433
Rp434
ag14
((lp435
tp436
Rp437
ag14
((lp438
tp439
Rp440
ag14
((lp441
tp442
Rp443
ag14
((lp444
tp445
Rp446
ag14
((lp447
tp448
Rp449
ag14
((lp450
tp451
Rp452
ag14
((lp453
tp454
Rp455
ag14
((lp456
tp457
Rp458
ag14
((lp459
tp460
Rp461
ag14
((lp462
tp463
Rp464
ag14
((lp465
tp466
Rp467
ag14
((lp468
tp469
Rp470
ag14
((lp471
tp472
Rp473
ag14
((lp474
I-125
atp475
Rp476
ag14
((lp477
tp478
Rp479
ag14
((lp480
tp481
Rp482
ag14
((lp483
tp484
Rp485
ag14
((lp486
tp487
Rp488
ag14
((lp489
tp490
Rp491
ag14
((lp492
I-128
atp493
Rp494
ag14
((lp495
tp496
Rp497
ag14
((lp498
tp499
Rp500
ag14
((lp501
tp502
Rp503
ag14
((lp504
tp505
Rp506
ag14
((lp507
tp508
Rp509
ag14
((lp510
tp511
Rp512
ag14
((lp513
tp514
Rp515
ag14
((lp516
tp517
Rp518
ag14
((lp519
tp520
Rp521
ag14
((lp522
tp523
Rp524
ag14
((lp525
I-129
atp526
Rp527
ag14
((lp528
tp529
Rp530
ag14
((lp531
tp532
Rp533
ag14
((lp534
tp535
Rp536
ag14
((lp537
tp538
Rp539
ag14
((lp540
tp541
Rp542
ag14
((lp543
tp544
Rp545
ag14
((lp546
I192
aI179
aI181
aI182
aI184
aI185
aI186
aI188
aI189
aI190
aI191
atp547
Rp548
ag14
((lp549
I189
aI183
atp550
Rp551
ag14
((lp552
I177
aI184
aI188
aI190
aI191
atp553
Rp554
ag14
((lp555
I185
aI189
aI183
atp556
Rp557
ag14
((lp558
I192
aI177
aI182
aI183
aI185
aI186
aI188
aI189
atp559
Rp560
ag14
((lp561
I192
aI177
aI181
aI185
aI186
aI188
aI189
atp562
Rp563
ag14
((lp564
I178
aI180
aI181
aI185
aI189
atp565
Rp566
ag14
((lp567
I177
aI179
aI188
aI190
aI191
atp568
Rp569
ag14
((lp570
I192
aI177
aI180
aI181
aI182
aI183
aI189
atp571
Rp572
ag14
((lp573
I192
aI177
aI181
aI182
aI188
atp574
Rp575
ag14
((lp576
I191
atp577
Rp578
ag14
((lp579
I192
aI177
aI179
aI181
aI182
aI184
aI186
aI190
aI191
atp580
Rp581
ag14
((lp582
I192
aI177
aI178
aI180
aI181
aI182
aI183
aI185
atp583
Rp584
ag14
((lp585
I177
aI179
aI184
aI188
aI191
atp586
Rp587
ag14
((lp588
I177
aI179
aI184
aI187
aI188
aI190
atp589
Rp590
ag14
((lp591
I177
aI181
aI182
aI185
aI186
aI188
aI189
atp592
Rp593
ag14
((lp594
I-134
aI194
aI-178
aI-177
atp595
Rp596
ag14
((lp597
I193
aI-134
aI-178
atp598
Rp599
ag14
((lp600
tp601
Rp602
ag14
((lp603
I200
aI201
aI198
atp604
Rp605
ag14
((lp606
I201
aI198
aI199
atp607
Rp608
ag14
((lp609
I196
aI197
aI199
aI200
aI201
atp610
Rp611
ag14
((lp612
I201
aI197
aI198
atp613
Rp614
ag14
((lp615
I201
aI196
aI198
atp616
Rp617
ag14
((lp618
I196
aI197
aI198
aI199
aI200
atp619
Rp620
ag14
((lp621
tp622
Rp623
ag14
((lp624
I204
atp625
Rp626
ag14
((lp627
I203
atp628
Rp629
ag14
((lp630
tp631
Rp632
ag14
((lp633
tp634
Rp635
ag14
((lp636
I-180
aI212
atp637
Rp638
ag14
((lp639
tp640
Rp641
ag14
((lp642
tp643
Rp644
ag14
((lp645
tp646
Rp647
ag14
((lp648
I214
atp649
Rp650
ag14
((lp651
I-180
aI207
atp652
Rp653
ag14
((lp654
tp655
Rp656
ag14
((lp657
I211
atp658
Rp659
ag14
((lp660
tp661
Rp662
ag14
((lp663
I217
aI-210
atp664
Rp665
ag14
((lp666
I216
aI-210
atp667
Rp668
ag14
((lp669
tp670
Rp671
ag14
((lp672
I-216
aI-181
aI-196
atp673
Rp674
ag14
((lp675
I224
aI225
aI-193
aI-217
aI-183
aI-182
aI-212
aI-211
aI-206
aI-203
aI-197
aI223
atp676
Rp677
ag14
((lp678
tp679
Rp680
ag14
((lp681
I227
atp682
Rp683
ag14
((lp684
I224
aI-193
aI-217
aI-183
aI-182
aI-212
aI-203
aI-197
aI220
atp685
Rp686
ag14
((lp687
I225
aI-217
aI-183
aI-182
aI-212
aI-211
aI223
aI-206
aI-203
aI-197
aI220
aI-193
atp688
Rp689
ag14
((lp690
I224
aI-217
aI-183
aI-211
aI-206
aI220
aI-193
atp691
Rp692
ag14
((lp693
I-213
aI-218
aI-193
atp694
Rp695
ag14
((lp696
I222
atp697
Rp698
ag14
((lp699
tp700
Rp701
ag14
((lp702
I-220
atp703
Rp704
ag14
((lp705
I233
atp706
Rp707
ag14
((lp708
I235
atp709
Rp710
ag14
((lp711
tp712
Rp713
ag14
((lp714
I234
aI230
atp715
Rp716
ag14
((lp717
I233
atp718
Rp719
ag14
((lp720
I231
atp721
Rp722
ag14
((lp723
I-194
atp724
Rp725
ag14
((lp726
tp727
Rp728
ag14
((lp729
I241
aI242
aI239
atp730
Rp731
ag14
((lp732
I241
aI242
aI238
atp733
Rp734
ag14
((lp735
tp736
Rp737
ag14
((lp738
I242
aI238
aI239
atp739
Rp740
ag14
((lp741
I241
aI238
aI239
atp742
Rp743
ag14
((lp744
I244
atp745
Rp746
ag14
((lp747
I243
atp748
Rp749
ag14
((lp750
tp751
Rp752
ag14
((lp753
tp754
Rp755
ag14
((lp756
tp757
Rp758
ag14
((lp759
I-221
atp760
Rp761
ag14
((lp762
tp763
Rp764
ag14
((lp765
I-239
aI-222
aI-233
atp766
Rp767
ag14
((lp768
I-186
atp769
Rp770
ag14
((lp771
tp772
Rp773
ag14
((lp774
tp775
Rp776
ag14
((lp777
tp778
Rp779
ag14
((lp780
I-253
aI-204
atp781
Rp782
ag14
((lp783
tp784
Rp785
ag14
((lp786
I-188
atp787
Rp788
ag14
((lp789
I-223
aI-189
aI-188
aI-187
atp790
Rp791
ag14
((lp792
tp793
Rp794
ag14
((lp795
tp796
Rp797
ag14
((lp798
I264
aI-214
atp799
Rp800
ag14
((lp801
tp802
Rp803
ag14
((lp804
I-236
atp805
Rp806
ag14
((lp807
I-214
aI261
atp808
Rp809
ag14
((lp810
tp811
Rp812
ag14
((lp813
I267
atp814
Rp815
ag14
((lp816
I266
atp817
Rp818
ag14
((lp819
tp820
Rp821
ag14
((lp822
I-261
atp823
Rp824
ag14
((lp825
I-263
aI-262
aI-266
atp826
Rp827
ag14
((lp828
I-201
atp829
Rp830
ag14
((lp831
I-256
atp832
Rp833
ag14
((lp834
tp835
Rp836
ag14
((lp837
tp838
Rp839
ag14
((lp840
tp841
Rp842
ag14
((lp843
tp844
Rp845
ag14
((lp846
tp847
Rp848
ag14
((lp849
tp850
Rp851
ag14
((lp852
tp853
Rp854
ag14
((lp855
tp856
Rp857
ag14
((lp858
I-192
aI-191
aI-251
aI-250
aI-255
aI-246
aI-241
aI-264
aI-235
aI-227
aI-226
aI-225
aI-219
aI-269
aI-268
aI-265
aI-200
aI-199
aI-258
aI-257
atp859
Rp860
ag14
((lp861
I-192
aI-255
aI-251
aI-250
aI-191
aI-246
aI-241
aI-264
aI-235
aI-227
aI-226
aI-225
aI-219
aI-270
aI-268
aI-265
aI-200
aI-199
aI-258
aI-257
atp862
Rp863
ag14
((lp864
I-192
aI-255
aI-251
aI-250
aI-191
aI-246
aI-241
aI-227
aI-226
aI-225
aI-219
aI-270
aI-269
aI-265
aI-264
aI-199
aI-258
aI-257
atp865
Rp866
ag14
((lp867
I-195
atp868
Rp869
ag14
((lp870
I-263
aI-262
aI270
atp871
Rp872
ag14
((lp873
I-192
aI-191
aI-251
aI-250
aI-255
aI-246
aI-241
aI-200
aI-235
aI-227
aI-226
aI-225
aI-219
aI-270
aI-269
aI-268
aI-264
aI-199
aI-258
aI-257
atp874
Rp875
ag14
((lp876
I-192
aI-255
aI-251
aI-250
aI-191
aI-246
aI-241
aI-227
aI-226
aI-225
aI-219
aI-270
aI-269
aI-268
aI-265
aI-199
aI-258
aI-257
atp877
Rp878
ag14
((lp879
I-262
aI-266
aI270
atp880
Rp881
ag14
((lp882
I-263
aI-266
aI270
atp883
Rp884
ag14
((lp885
I269
atp886
Rp887
ag14
((lp888
tp889
Rp890
ag14
((lp891
tp892
Rp893
ag14
((lp894
I-192
aI-191
aI-251
aI-250
aI-255
aI-248
aI-246
aI-241
aI-200
aI-235
aI-227
aI-226
aI-225
aI-219
aI-270
aI-269
aI-268
aI-265
aI-264
aI-199
aI-257
atp895
Rp896
ag14
((lp897
I-192
aI-191
aI-251
aI-250
aI-255
aI-246
aI-241
aI-264
aI-235
aI-227
aI-226
aI-225
aI-219
aI-270
aI-269
aI-268
aI-265
aI-200
aI-199
aI-258
atp898
Rp899
ag14
((lp900
I272
aI-224
atp901
Rp902
ag14
((lp903
I-192
aI-191
aI-251
aI-250
aI-248
aI-246
aI-241
aI-264
aI-235
aI-227
aI-226
aI-225
aI-219
aI-270
aI-269
aI-268
aI-265
aI-200
aI-199
aI-258
aI-257
atp904
Rp905
ag14
((lp906
I-234
atp907
Rp908
ag14
((lp909
I-204
aI255
atp910
Rp911
ag14
((lp912
tp913
Rp914
ag14
((lp915
I-192
aI-255
aI-250
aI-191
aI-248
aI-246
aI-241
aI-264
aI-235
aI-227
aI-226
aI-225
aI-219
aI-270
aI-269
aI-268
aI-265
aI-200
aI-199
aI-258
aI-257
atp916
Rp917
ag14
((lp918
I-192
aI-191
aI-251
aI-255
aI-248
aI-246
aI-241
aI-200
aI-235
aI-227
aI-226
aI-225
aI-219
aI-270
aI-269
aI-268
aI-265
aI-264
aI-199
aI-258
aI-257
atp919
Rp920
ag14
((lp921
I-240
atp922
Rp923
ag14
((lp924
I-255
aI-251
aI-250
aI-200
aI-258
aI-235
atp925
Rp926
ag14
((lp927
tp928
Rp929
ag14
((lp930
I-192
aI-191
aI-251
aI-250
aI-255
aI-241
aI-227
aI-226
aI-225
aI-219
aI-270
aI-269
aI-268
aI-265
aI-264
aI-199
aI-258
aI-257
atp931
Rp932
ag14
((lp933
tp934
Rp935
ag14
((lp936
tp937
Rp938
ag14
((lp939
tp940
Rp941
ag14
((lp942
tp943
Rp944
ag14
((lp945
I-192
aI-255
aI-251
aI-250
aI-191
aI-246
aI-200
aI-235
aI-227
aI-226
aI-225
aI-219
aI-270
aI-269
aI-268
aI-265
aI-264
aI-199
aI-258
aI-257
atp946
Rp947
ag14
((lp948
I-249
atp949
Rp950
ag14
((lp951
I250
aI-233
atp952
Rp953
ag14
((lp954
tp955
Rp956
ag14
((lp957
tp958
Rp959
ag14
((lp960
I263
atp961
Rp962
ag14
((lp963
I-192
aI-255
aI-251
aI-250
aI-191
aI-248
aI-241
aI-227
aI-226
aI-219
aI-270
aI-269
aI-265
aI-200
aI-199
aI-258
aI-257
atp964
Rp965
ag14
((lp966
I-254
atp967
Rp968
ag14
((lp969
I-239
aI250
aI-222
atp970
Rp971
ag14
((lp972
tp973
Rp974
ag14
((lp975
tp976
Rp977
ag14
((lp978
tp979
Rp980
ag14
((lp981
tp982
Rp983
ag14
((lp984
I-191
atp985
Rp986
ag14
((lp987
I-192
aI-191
aI-251
aI-250
aI-255
aI-246
aI-241
aI-200
aI-235
aI-226
aI-225
aI-219
aI-270
aI-269
aI-268
aI-265
aI-264
aI-199
aI-258
aI-257
atp988
Rp989
ag14
((lp990
I-192
aI-191
aI-251
aI-250
aI-255
aI-246
aI-241
aI-200
aI-235
aI-227
aI-225
aI-219
aI-270
aI-269
aI-268
aI-265
aI-264
aI-199
aI-258
aI-257
atp991
Rp992
ag14
((lp993
I-192
aI-255
aI-251
aI-250
aI-191
aI-246
aI-241
aI-227
aI-226
aI-219
aI-270
aI-269
aI-268
aI-265
aI-264
aI-199
aI-258
aI-257
atp994
Rp995
ag14
((lp996
I-256
aI-190
atp997
Rp998
ag14
((lp999
I258
aI-189
aI-188
aI-187
atp1000
Rp1001
ag14
((lp1002
I250
aI-233
atp1003
Rp1004
ag14
((lp1005
I248
atp1006
Rp1007
ag14
((lp1008
I229
atp1009
Rp1010
ag14
((lp1011
I-192
aI-191
aI-251
aI-250
aI-255
aI-246
aI-241
aI-264
aI-235
aI-227
aI-226
aI-225
aI-270
aI-269
aI-268
aI-265
aI-200
aI-199
aI-258
aI-257
atp1012
Rp1013
ag14
((lp1014
I226
atp1015
Rp1016
ag14
((lp1017
I224
aI225
aI-193
aI-183
aI-182
aI-213
aI-212
aI-211
aI-206
aI-203
aI-197
aI220
aI223
atp1018
Rp1019
ag14
((lp1020
I-181
aI-196
aI219
atp1021
Rp1022
ag14
((lp1023
tp1024
Rp1025
ag14
((lp1026
I264
aI261
atp1027
Rp1028
ag14
((lp1029
I-193
aI226
aI-217
aI-183
aI-206
aI-211
atp1030
Rp1031
ag14
((lp1032
I224
aI-217
aI-183
aI-182
aI223
aI-203
aI-197
aI220
aI-193
atp1033
Rp1034
ag14
((lp1035
I224
aI225
aI-217
aI-183
aI-213
aI-206
aI220
aI-193
atp1036
Rp1037
ag14
((lp1038
I216
aI217
atp1039
Rp1040
ag14
((lp1041
tp1042
Rp1043
ag14
((lp1044
tp1045
Rp1046
ag14
((lp1047
tp1048
Rp1049
ag14
((lp1050
I224
aI225
aI-217
aI-183
aI-213
aI-211
aI220
aI-193
atp1051
Rp1052
ag14
((lp1053
tp1054
Rp1055
ag14
((lp1056
I-253
aI255
atp1057
Rp1058
ag14
((lp1059
I224
aI-217
aI-183
aI-182
aI-212
aI223
aI-197
aI220
aI-193
atp1060
Rp1061
ag14
((lp1062
tp1063
Rp1064
ag14
((lp1065
I271
atp1066
Rp1067
ag14
((lp1068
I-192
aI-255
aI-251
aI-250
aI-191
aI-248
aI-241
aI-235
aI-227
aI-226
aI-219
aI-270
aI-269
aI-265
aI-199
aI-258
aI-257
atp1069
Rp1070
ag14
((lp1071
I-192
aI-255
aI-251
aI-250
aI-191
aI-246
aI-241
aI-200
aI-235
aI-227
aI-226
aI-225
aI-219
aI-270
aI-269
aI-268
aI-265
aI-264
aI-258
aI-257
atp1072
Rp1073
ag14
((lp1074
I-170
atp1075
Rp1076
ag14
((lp1077
I224
aI-217
aI-183
aI-182
aI-212
aI223
aI-203
aI220
aI-193
atp1078
Rp1079
ag14
((lp1080
I-216
aI-181
aI219
atp1081
Rp1082
ag14
((lp1083
I-267
atp1084
Rp1085
ag14
((lp1086
I236
atp1087
Rp1088
ag14
((lp1089
I224
aI225
aI226
aI-217
aI-183
aI-182
aI-213
aI-212
aI-211
aI223
aI-206
aI-203
aI-197
aI220
atp1090
Rp1091
ag14
((lp1092
I-255
aI-251
aI-250
aI-191
aI-246
aI-241
aI-200
aI-235
aI-227
aI-226
aI-225
aI-219
aI-270
aI-269
aI-268
aI-265
aI-264
aI-199
aI-258
aI-257
atp1093
Rp1094
ag14
((lp1095
I-192
aI-255
aI-251
aI-250
aI-246
aI-241
aI-200
aI-235
aI-228
aI-227
aI-226
aI-225
aI-219
aI-270
aI-269
aI-268
aI-265
aI-264
aI-199
aI-258
aI-257
atp1096
Rp1097
ag14
((lp1098
I-224
atp1099
Rp1100
ag14
((lp1101
I-223
aI258
aI-188
atp1102
Rp1103
ag14
((lp1104
I257
aI258
aI-189
aI-187
aI-223
atp1105
Rp1106
ag14
((lp1107
I-223
aI258
aI-188
atp1108
Rp1109
ag14
((lp1110
I251
atp1111
Rp1112
ag14
((lp1113
tp1114
Rp1115
ag14
((lp1116
tp1117
Rp1118
ag14
((lp1119
I224
aI225
aI-193
aI-217
aI-182
aI-213
aI-212
aI-211
aI-206
aI-203
aI-197
aI220
aI223
atp1120
Rp1121
ag14
((lp1122
I224
aI-217
aI-183
aI-212
aI223
aI-203
aI-197
aI220
aI-193
atp1123
Rp1124
ag14
((lp1125
I-216
aI-196
aI219
atp1126
Rp1127
ag14
((lp1128
I212
aI207
atp1129
Rp1130
ag14
((lp1131
tp1132
Rp1133
ag14
((lp1134
I193
aI194
aI-177
atp1135
Rp1136
ag14
((lp1137
I193
aI-178
atp1138
Rp1139
ag14
((lp1140
tp1141
Rp1142
ag14
((lp1143
tp1144
Rp1145
ag14
((lp1146
tp1147
Rp1148
ag14
((lp1149
tp1150
Rp1151
ag14
((lp1152
tp1153
Rp1154
ag14
((lp1155
I-2
atp1156
Rp1157
ag14
((lp1158
I-198
atp1159
Rp1160
ag14
((lp1161
tp1162
Rp1163
ag14
((lp1164
tp1165
Rp1166
ag14
((lp1167
tp1168
Rp1169
ag14
((lp1170
tp1171
Rp1172
ag14
((lp1173
tp1174
Rp1175
ag14
((lp1176
tp1177
Rp1178
ag14
((lp1179
tp1180
Rp1181
ag14
((lp1182
tp1183
Rp1184
ag14
((lp1185
tp1186
Rp1187
ag14
((lp1188
tp1189
Rp1190
ag14
((lp1191
tp1192
Rp1193
ag14
((lp1194
tp1195
Rp1196
ag14
((lp1197
tp1198
Rp1199
ag14
((lp1200
tp1201
Rp1202
ag14
((lp1203
tp1204
Rp1205
ag14
((lp1206
tp1207
Rp1208
ag14
((lp1209
tp1210
Rp1211
ag14
((lp1212
tp1213
Rp1214
ag14
((lp1215
tp1216
Rp1217
ag14
((lp1218
tp1219
Rp1220
ag14
((lp1221
tp1222
Rp1223
ag14
((lp1224
tp1225
Rp1226
ag14
((lp1227
tp1228
Rp1229
ag14
((lp1230
tp1231
Rp1232
ag14
((lp1233
tp1234
Rp1235
ag14
((lp1236
tp1237
Rp1238
ag14
((lp1239
tp1240
Rp1241
ag14
((lp1242
tp1243
Rp1244
ag14
((lp1245
tp1246
Rp1247
ag14
((lp1248
tp1249
Rp1250
ag14
((lp1251
tp1252
Rp1253
ag14
((lp1254
tp1255
Rp1256
ag14
((lp1257
tp1258
Rp1259
ag14
((lp1260
tp1261
Rp1262
ag14
((lp1263
tp1264
Rp1265
ag14
((lp1266
I193
aI194
atp1267
Rp1268
ag14
((lp1269
tp1270
Rp1271
ag14
((lp1272
tp1273
Rp1274
ag14
((lp1275
tp1276
Rp1277
ag14
((lp1278
I-110
aI-124
aI-123
atp1279
Rp1280
ag14
((lp1281
I170
atp1282
Rp1283
ag14
((lp1284
I159
atp1285
Rp1286
ag14
((lp1287
tp1288
Rp1289
ag14
((lp1290
tp1291
Rp1292
ag14
((lp1293
I153
atp1294
Rp1295
ag14
((lp1296
I-110
aI-117
aI-130
aI-121
atp1297
Rp1298
ag14
((lp1299
I-120
aI-110
aI-130
atp1300
Rp1301
ag14
((lp1302
I-63
aI131
aI132
aI134
aI-120
aI-119
aI-110
aI-11
atp1303
Rp1304
ag14
((lp1305
I-117
aI-124
atp1306
Rp1307
ag14
((lp1308
I-63
aI131
aI132
aI134
aI-122
aI-119
aI-110
aI-11
aI-123
atp1309
Rp1310
ag14
((lp1311
I131
aI132
aI133
aI134
aI-120
aI-110
aI-122
atp1312
Rp1313
ag14
((lp1314
I123
aI-116
aI-115
aI-114
aI-109
aI-108
aI122
aI-101
aI124
aI125
aI127
atp1315
Rp1316
ag14
((lp1317
I-124
aI-121
atp1318
Rp1319
ag14
((lp1320
I123
aI-118
aI-115
aI-114
aI-109
aI-108
aI122
aI-101
aI124
aI125
aI127
atp1321
Rp1322
ag14
((lp1323
I123
aI-118
aI-116
aI-114
aI-109
aI-108
aI122
aI-101
aI124
aI125
aI127
atp1324
Rp1325
ag14
((lp1326
I123
aI-118
aI-116
aI-115
aI-109
aI-108
aI122
aI-101
aI124
aI125
aI127
atp1327
Rp1328
ag14
((lp1329
I137
atp1330
Rp1331
ag14
((lp1332
tp1333
Rp1334
ag14
((lp1335
tp1336
Rp1337
ag14
((lp1338
I-63
aI131
aI-124
aI-123
aI134
aI-120
aI-119
aI-11
aI-122
aI132
aI-130
atp1339
Rp1340
ag14
((lp1341
I-101
aI-118
aI-116
aI-115
aI-114
aI-108
aI122
aI123
aI124
aI125
aI127
atp1342
Rp1343
ag14
((lp1344
I-101
aI-118
aI-116
aI-115
aI-114
aI-109
aI122
aI123
aI124
aI125
aI127
atp1345
Rp1346
ag14
((lp1347
I112
aI113
aI108
aI-99
aI110
aI111
atp1348
Rp1349
ag14
((lp1350
tp1351
Rp1352
ag14
((lp1353
I-96
aI-100
aI118
atp1354
Rp1355
ag14
((lp1356
I109
aI110
atp1357
Rp1358
ag14
((lp1359
I109
aI110
atp1360
Rp1361
ag14
((lp1362
tp1363
Rp1364
ag14
((lp1365
I123
aI-118
aI-116
aI-115
aI-114
aI-109
aI-108
aI122
aI124
aI125
aI127
atp1366
Rp1367
ag14
((lp1368
I-96
aI118
aI-105
atp1369
Rp1370
ag14
((lp1371
I113
aI108
aI-107
aI110
atp1372
Rp1373
ag14
((lp1374
tp1375
Rp1376
ag14
((lp1377
I-94
aI119
atp1378
Rp1379
ag14
((lp1380
I-100
aI118
aI-105
atp1381
Rp1382
ag14
((lp1383
tp1384
Rp1385
ag14
((lp1386
I119
aI-97
atp1387
Rp1388
ag14
((lp1389
tp1390
Rp1391
ag14
((lp1392
tp1393
Rp1394
ag14
((lp1395
tp1396
Rp1397
ag14
((lp1398
tp1399
Rp1400
ag14
((lp1401
I93
atp1402
Rp1403
ag14
((lp1404
I-82
atp1405
Rp1406
ag14
((lp1407
tp1408
Rp1409
ag14
((lp1410
tp1411
Rp1412
ag14
((lp1413
tp1414
Rp1415
ag14
((lp1416
tp1417
Rp1418
ag14
((lp1419
I99
aI100
aI101
atp1420
Rp1421
ag14
((lp1422
I-88
atp1423
Rp1424
ag14
((lp1425
I-77
aI84
aI85
aI86
aI87
aI88
aI89
aI90
aI91
aI92
atp1426
Rp1427
ag14
((lp1428
tp1429
Rp1430
ag14
((lp1431
tp1432
Rp1433
ag14
((lp1434
tp1435
Rp1436
ag14
((lp1437
I-81
aI84
aI85
aI86
aI87
aI88
aI89
aI90
aI91
aI92
atp1438
Rp1439
ag14
((lp1440
tp1441
Rp1442
ag14
((lp1443
tp1444
Rp1445
ag14
((lp1446
tp1447
Rp1448
ag14
((lp1449
tp1450
Rp1451
ag14
((lp1452
tp1453
Rp1454
ag14
((lp1455
tp1456
Rp1457
ag14
((lp1458
tp1459
Rp1460
ag14
((lp1461
I120
aI129
aI121
atp1462
Rp1463
ag14
((lp1464
tp1465
Rp1466
ag14
((lp1467
tp1468
Rp1469
ag14
((lp1470
tp1471
Rp1472
ag14
((lp1473
tp1474
Rp1475
ag14
((lp1476
tp1477
Rp1478
ag14
((lp1479
I131
aI132
aI-122
aI134
aI-120
aI-110
aI-11
atp1480
Rp1481
ag14
((lp1482
tp1483
Rp1484
ag14
((lp1485
tp1486
Rp1487
ag14
((lp1488
tp1489
Rp1490
ag14
((lp1491
tp1492
Rp1493
ag14
((lp1494
tp1495
Rp1496
ag14
((lp1497
tp1498
Rp1499
ag14
((lp1500
tp1501
Rp1502
ag14
((lp1503
tp1504
Rp1505
ag14
((lp1506
tp1507
Rp1508
ag14
((lp1509
tp1510
Rp1511
ag14
((lp1512
tp1513
Rp1514
ag14
((lp1515
tp1516
Rp1517
ag14
((lp1518
I-42
aI-49
atp1519
Rp1520
ag14
((lp1521
I-50
aI-42
atp1522
Rp1523
ag14
((lp1524
tp1525
Rp1526
ag14
((lp1527
tp1528
Rp1529
ag14
((lp1530
tp1531
Rp1532
ag14
((lp1533
I-40
aI-43
aI46
atp1534
Rp1535
ag14
((lp1536
tp1537
Rp1538
ag14
((lp1539
I-40
aI-45
aI46
atp1540
Rp1541
ag14
((lp1542
I-50
aI-49
atp1543
Rp1544
ag14
((lp1545
tp1546
Rp1547
ag14
((lp1548
I-45
aI-43
aI46
atp1549
Rp1550
ag14
((lp1551
tp1552
Rp1553
ag14
((lp1554
tp1555
Rp1556
ag14
((lp1557
tp1558
Rp1559
ag14
((lp1560
tp1561
Rp1562
ag14
((lp1563
I43
aI-34
atp1564
Rp1565
ag14
((lp1566
I43
aI-35
atp1567
Rp1568
ag14
((lp1569
tp1570
Rp1571
ag14
((lp1572
I-31
atp1573
Rp1574
ag14
((lp1575
I-32
atp1576
Rp1577
ag14
((lp1578
tp1579
Rp1580
ag14
((lp1581
tp1582
Rp1583
ag14
((lp1584
tp1585
Rp1586
ag14
((lp1587
I-21
aI-20
aI-25
atp1588
Rp1589
ag14
((lp1590
I31
atp1591
Rp1592
ag14
((lp1593
I-21
aI-20
aI-27
atp1594
Rp1595
ag14
((lp1596
tp1597
Rp1598
ag14
((lp1599
tp1600
Rp1601
ag14
((lp1602
I28
aI-19
atp1603
Rp1604
ag14
((lp1605
I-20
aI-27
aI-25
atp1606
Rp1607
ag14
((lp1608
I-21
aI-27
aI-25
atp1609
Rp1610
ag14
((lp1611
I-22
aI28
atp1612
Rp1613
ag14
((lp1614
tp1615
Rp1616
ag14
((lp1617
tp1618
Rp1619
ag14
((lp1620
tp1621
Rp1622
ag14
((lp1623
tp1624
Rp1625
ag14
((lp1626
tp1627
Rp1628
ag14
((lp1629
tp1630
Rp1631
ag14
((lp1632
tp1633
Rp1634
ag14
((lp1635
I-63
aI131
aI132
aI-122
aI134
aI-120
aI-110
atp1636
Rp1637
ag14
((lp1638
I-6
atp1639
Rp1640
ag14
((lp1641
I-6
atp1642
Rp1643
ag14
((lp1644
tp1645
Rp1646
ag14
((lp1647
tp1648
Rp1649
ag14
((lp1650
I-10
aI-9
atp1651
Rp1652
ag14
((lp1653
I9
aI10
atp1654
Rp1655
ag14
((lp1656
I7
atp1657
Rp1658
ag14
((lp1659
I6
atp1660
Rp1661
ag14
((lp1662
I-171
atp1663
Rp1664
ag14
((lp1665
tp1666
Rp1667
atp1668
b.