cnumpy.core.multiarray
_reconstruct
p0
(cnumpy
ndarray
p1
(I0
tp2
S'b'
p3
tp4
Rp5
(I1
(I263
tp6
cnumpy
dtype
p7
(S'O8'
p8
I0
I1
tp9
Rp10
(I3
S'|'
p11
NNNI-1
I-1
I63
tp12
bI00
(lp13
c__builtin__
set
p14
((lp15
tp16
Rp17
ag14
((lp18
tp19
Rp20
ag14
((lp21
tp22
Rp23
ag14
((lp24
tp25
Rp26
ag14
((lp27
I5
atp28
Rp29
ag14
((lp30
I4
atp31
Rp32
ag14
((lp33
I7
atp34
Rp35
ag14
((lp36
I-5
aI6
atp37
Rp38
ag14
((lp39
tp40
Rp41
ag14
((lp42
tp43
Rp44
ag14
((lp45
tp46
Rp47
ag14
((lp48
tp49
Rp50
ag14
((lp51
tp52
Rp53
ag14
((lp54
tp55
Rp56
ag14
((lp57
tp58
Rp59
ag14
((lp60
tp61
Rp62
ag14
((lp63
tp64
Rp65
ag14
((lp66
tp67
Rp68
ag14
((lp69
tp70
Rp71
ag14
((lp72
tp73
Rp74
ag14
((lp75
tp76
Rp77
ag14
((lp78
tp79
Rp80
ag14
((lp81
tp82
Rp83
ag14
((lp84
I-22
aI24
aI25
aI27
aI28
aI29
aI30
atp85
Rp86
ag14
((lp87
I-22
aI23
aI25
aI27
aI28
aI29
aI30
atp88
Rp89
ag14
((lp90
I-22
aI23
aI24
aI27
aI28
aI29
aI30
atp91
Rp92
ag14
((lp93
tp94
Rp95
ag14
((lp96
I-22
aI23
aI24
aI25
aI28
aI29
aI30
atp97
Rp98
ag14
((lp99
I-22
aI23
aI24
aI25
aI27
aI29
aI30
atp100
Rp101
ag14
((lp102
I-22
aI23
aI24
aI25
aI27
aI28
aI30
atp103
Rp104
ag14
((lp105
I-22
aI23
aI24
aI25
aI27
aI28
aI29
atp106
Rp107
ag14
((lp108
I-23
atp109
Rp110
ag14
((lp111
tp112
Rp113
ag14
((lp114
tp115
Rp116
ag14
((lp117
tp118
Rp119
ag14
((lp120
tp121
Rp122
ag14
((lp123
tp124
Rp125
ag14
((lp126
tp127
Rp128
ag14
((lp129
tp130
Rp131
ag14
((lp132
tp133
Rp134
ag14
((lp135
tp136
Rp137
ag14
((lp138
I-40
aI42
aI-27
atp139
Rp140
ag14
((lp141
I-40
aI41
aI-27
atp142
Rp143
ag14
((lp144
tp145
Rp146
ag14
((lp147
I45
atp148
Rp149
ag14
((lp150
I44
atp151
Rp152
ag14
((lp153
tp154
Rp155
ag14
((lp156
tp157
Rp158
ag14
((lp159
tp160
Rp161
ag14
((lp162
tp163
Rp164
ag14
((lp165
tp166
Rp167
ag14
((lp168
tp169
Rp170
ag14
((lp171
tp172
Rp173
ag14
((lp174
tp175
Rp176
ag14
((lp177
tp178
Rp179
ag14
((lp180
tp181
Rp182
ag14
((lp183
tp184
Rp185
ag14
((lp186
tp187
Rp188
ag14
((lp189
I61
aI62
aI-57
atp190
Rp191
ag14
((lp192
I60
atp193
Rp194
ag14
((lp195
I59
atp196
Rp197
ag14
((lp198
I58
aI62
aI-57
atp199
Rp200
ag14
((lp201
I58
aI61
aI-57
atp202
Rp203
ag14
((lp204
tp205
Rp206
ag14
((lp207
tp208
Rp209
ag14
((lp210
tp211
Rp212
ag14
((lp213
I-64
aI67
aI-60
aI-59
aI-58
aI-21
aI-12
aI-42
aI68
aI-37
aI69
aI-65
atp214
Rp215
ag14
((lp216
I-64
aI66
aI-60
aI-58
aI-21
aI-12
aI-42
aI68
aI-37
aI-65
atp217
Rp218
ag14
((lp219
I-64
aI66
aI67
aI-58
aI-42
aI-37
aI-65
atp220
Rp221
ag14
((lp222
I66
aI-58
aI-59
atp223
Rp224
ag14
((lp225
I-67
atp226
Rp227
ag14
((lp228
I72
atp229
Rp230
ag14
((lp231
I71
atp232
Rp233
ag14
((lp234
tp235
Rp236
ag14
((lp237
tp238
Rp239
ag14
((lp240
tp241
Rp242
ag14
((lp243
tp244
Rp245
ag14
((lp246
tp247
Rp248
ag14
((lp249
tp250
Rp251
ag14
((lp252
tp253
Rp254
ag14
((lp255
tp256
Rp257
ag14
((lp258
tp259
Rp260
ag14
((lp261
tp262
Rp263
ag14
((lp264
tp265
Rp266
ag14
((lp267
tp268
Rp269
ag14
((lp270
tp271
Rp272
ag14
((lp273
tp274
Rp275
ag14
((lp276
tp277
Rp278
ag14
((lp279
tp280
Rp281
ag14
((lp282
tp283
Rp284
ag14
((lp285
tp286
Rp287
ag14
((lp288
tp289
Rp290
ag14
((lp291
tp292
Rp293
ag14
((lp294
I94
aI95
atp295
Rp296
ag14
((lp297
I93
aI95
atp298
Rp299
ag14
((lp300
I93
aI94
atp301
Rp302
ag14
((lp303
I97
aI98
aI-93
aI-90
atp304
Rp305
ag14
((lp306
I96
aI98
aI-93
aI-90
aI-89
atp307
Rp308
ag14
((lp309
I96
aI97
aI-93
aI-90
aI-89
atp310
Rp311
ag14
((lp312
tp313
Rp314
ag14
((lp315
tp316
Rp317
ag14
((lp318
tp319
Rp320
ag14
((lp321
I-94
atp322
Rp323
ag14
((lp324
tp325
Rp326
ag14
((lp327
tp328
Rp329
ag14
((lp330
I109
aI110
aI-104
aI-103
aI-102
aI-101
aI-100
aI-97
atp331
Rp332
ag14
((lp333
I-95
aI107
aI108
aI109
aI-103
aI-100
aI-97
atp334
Rp335
ag14
((lp336
I-95
aI106
aI108
aI109
aI-103
aI-102
aI-100
aI-97
atp337
Rp338
ag14
((lp339
I-95
aI106
aI107
aI109
aI-104
aI-103
aI-102
aI-100
aI-97
atp340
Rp341
ag14
((lp342
I-95
aI105
aI106
aI107
aI108
aI110
aI-104
aI-103
aI-102
aI-101
aI-100
aI-97
atp343
Rp344
ag14
((lp345
I105
aI109
aI-104
aI-103
aI-102
aI-101
aI-100
aI-97
atp346
Rp347
ag14
((lp348
I-105
atp349
Rp350
ag14
((lp351
tp352
Rp353
ag14
((lp354
tp355
Rp356
ag14
((lp357
I-106
atp358
Rp359
ag14
((lp360
I-108
atp361
Rp362
ag14
((lp363
tp364
Rp365
ag14
((lp366
tp367
Rp368
ag14
((lp369
I-109
aI119
aI120
aI121
aI-117
atp370
Rp371
ag14
((lp372
I120
aI121
aI-109
aI118
atp373
Rp374
ag14
((lp375
I121
aI-109
aI118
aI119
atp376
Rp377
ag14
((lp378
I120
aI-109
aI118
aI119
atp379
Rp380
ag14
((lp381
tp382
Rp383
ag14
((lp384
tp385
Rp386
ag14
((lp387
tp388
Rp389
ag14
((lp390
tp391
Rp392
ag14
((lp393
tp394
Rp395
ag14
((lp396
I-126
aI-125
aI-124
aI-123
aI-122
aI-120
atp397
Rp398
ag14
((lp399
tp400
Rp401
ag14
((lp402
tp403
Rp404
ag14
((lp405
tp406
Rp407
ag14
((lp408
tp409
Rp410
ag14
((lp411
tp412
Rp413
ag14
((lp414
tp415
Rp416
ag14
((lp417
I-128
aI-127
aI-121
atp418
Rp419
ag14
((lp420
I-127
aI-121
aI-129
atp421
Rp422
ag14
((lp423
I-128
aI-121
aI-129
atp424
Rp425
ag14
((lp426
I-125
aI-124
aI-123
aI-122
aI-120
aI127
atp427
Rp428
ag14
((lp429
I-126
aI-124
aI-123
aI-122
aI-120
aI127
atp430
Rp431
ag14
((lp432
I-126
aI-125
aI-123
aI-122
aI-120
aI127
atp433
Rp434
ag14
((lp435
I-126
aI-125
aI-124
aI-122
aI-120
aI127
atp436
Rp437
ag14
((lp438
I-126
aI-125
aI-124
aI-123
aI-120
aI127
atp439
Rp440
ag14
((lp441
I-128
aI-127
aI-129
atp442
Rp443
ag14
((lp444
I-126
aI-125
aI-124
aI-123
aI-122
aI127
atp445
Rp446
ag14
((lp447
tp448
Rp449
ag14
((lp450
tp451
Rp452
ag14
((lp453
I118
atp454
Rp455
ag14
((lp456
tp457
Rp458
ag14
((lp459
tp460
Rp461
ag14
((lp462
I-113
atp463
Rp464
ag14
((lp465
I-114
atp466
Rp467
ag14
((lp468
tp469
Rp470
ag14
((lp471
tp472
Rp473
ag14
((lp474
tp475
Rp476
ag14
((lp477
I120
aI121
aI118
aI119
atp478
Rp479
ag14
((lp480
I115
atp481
Rp482
ag14
((lp483
tp484
Rp485
ag14
((lp486
I114
atp487
Rp488
ag14
((lp489
I111
atp490
Rp491
ag14
((lp492
I105
aI108
aI109
aI110
aI-103
aI-102
aI-101
aI-100
aI-97
atp493
Rp494
ag14
((lp495
I-95
aI105
aI106
aI107
aI108
aI109
aI110
aI-104
aI-102
aI-101
aI-100
aI-97
atp496
Rp497
ag14
((lp498
I-95
aI105
aI107
aI108
aI109
aI110
aI-104
aI-103
aI-101
aI-100
aI-97
atp499
Rp500
ag14
((lp501
I105
aI109
aI110
aI-104
aI-103
aI-102
aI-100
aI-97
atp502
Rp503
ag14
((lp504
I-95
aI105
aI106
aI107
aI108
aI109
aI110
aI-104
aI-103
aI-102
aI-101
aI-97
atp505
Rp506
ag14
((lp507
I-94
atp508
Rp509
ag14
((lp510
tp511
Rp512
ag14
((lp513
I-95
aI105
aI106
aI107
aI108
aI109
aI110
aI-104
aI-103
aI-102
aI-101
aI-100
atp514
Rp515
ag14
((lp516
tp517
Rp518
ag14
((lp519
I106
aI107
aI108
aI109
aI-103
aI-102
aI-100
aI-97
atp520
Rp521
ag14
((lp522
I-99
aI102
atp523
Rp524
ag14
((lp525
I96
aI97
aI98
aI-90
atp526
Rp527
ag14
((lp528
tp529
Rp530
ag14
((lp531
tp532
Rp533
ag14
((lp534
I96
aI97
aI98
aI-93
aI-89
atp535
Rp536
ag14
((lp537
I97
aI98
aI-90
atp538
Rp539
ag14
((lp540
tp541
Rp542
ag14
((lp543
tp544
Rp545
ag14
((lp546
tp547
Rp548
ag14
((lp549
tp550
Rp551
ag14
((lp552
tp553
Rp554
ag14
((lp555
tp556
Rp557
ag14
((lp558
tp559
Rp560
ag14
((lp561
tp562
Rp563
ag14
((lp564
tp565
Rp566
ag14
((lp567
tp568
Rp569
ag14
((lp570
tp571
Rp572
ag14
((lp573
tp574
Rp575
ag14
((lp576
tp577
Rp578
ag14
((lp579
tp580
Rp581
ag14
((lp582
tp583
Rp584
ag14
((lp585
tp586
Rp587
ag14
((lp588
tp589
Rp590
ag14
((lp591
tp592
Rp593
ag14
((lp594
I-62
atp595
Rp596
ag14
((lp597
I-61
atp598
Rp599
ag14
((lp600
I-61
atp601
Rp602
ag14
((lp603
I70
atp604
Rp605
ag14
((lp606
tp607
Rp608
ag14
((lp609
I-64
aI66
aI67
aI68
aI-58
aI-21
aI-12
aI-42
aI-60
aI-37
atp610
Rp611
ag14
((lp612
I66
aI67
aI68
aI-58
aI-21
aI-12
aI-42
aI-60
aI-37
aI-65
atp613
Rp614
ag14
((lp615
tp616
Rp617
ag14
((lp618
I-70
atp619
Rp620
ag14
((lp621
I-69
aI-68
atp622
Rp623
ag14
((lp624
I-64
aI66
aI67
aI-58
aI-21
aI-12
aI-42
aI-65
atp625
Rp626
ag14
((lp627
I66
aI69
aI-58
atp628
Rp629
ag14
((lp630
I-64
aI66
aI67
aI68
aI-59
aI-21
aI-12
aI-42
aI-60
aI-37
aI-65
aI69
atp631
Rp632
ag14
((lp633
I58
aI61
aI62
atp634
Rp635
ag14
((lp636
tp637
Rp638
ag14
((lp639
tp640
Rp641
ag14
((lp642
tp643
Rp644
ag14
((lp645
tp646
Rp647
ag14
((lp648
tp649
Rp650
ag14
((lp651
tp652
Rp653
ag14
((lp654
tp655
Rp656
ag14
((lp657
tp658
Rp659
ag14
((lp660
tp661
Rp662
ag14
((lp663
tp664
Rp665
ag14
((lp666
tp667
Rp668
ag14
((lp669
tp670
Rp671
ag14
((lp672
I-41
atp673
Rp674
ag14
((lp675
tp676
Rp677
ag14
((lp678
I-64
aI66
aI67
aI68
aI-58
aI-21
aI-12
aI-60
aI-37
aI-65
atp679
Rp680
ag14
((lp681
I-44
atp682
Rp683
ag14
((lp684
I41
aI42
aI-27
atp685
Rp686
ag14
((lp687
tp688
Rp689
ag14
((lp690
tp691
Rp692
ag14
((lp693
I-64
aI66
aI67
aI68
aI-58
aI-42
aI-65
atp694
Rp695
ag14
((lp696
tp697
Rp698
ag14
((lp699
tp700
Rp701
ag14
((lp702
tp703
Rp704
ag14
((lp705
tp706
Rp707
ag14
((lp708
tp709
Rp710
ag14
((lp711
tp712
Rp713
ag14
((lp714
tp715
Rp716
ag14
((lp717
tp718
Rp719
ag14
((lp720
tp721
Rp722
ag14
((lp723
I-40
aI41
aI42
atp724
Rp725
ag14
((lp726
tp727
Rp728
ag14
((lp729
tp730
Rp731
ag14
((lp732
tp733
Rp734
ag14
((lp735
I31
atp736
Rp737
ag14
((lp738
I23
aI24
aI25
aI27
aI28
aI29
aI30
atp739
Rp740
ag14
((lp741
I-64
aI66
aI67
aI-60
aI-58
aI-12
aI-42
aI-65
atp742
Rp743
ag14
((lp744
tp745
Rp746
ag14
((lp747
tp748
Rp749
ag14
((lp750
tp751
Rp752
ag14
((lp753
tp754
Rp755
ag14
((lp756
tp757
Rp758
ag14
((lp759
tp760
Rp761
ag14
((lp762
tp763
Rp764
ag14
((lp765
tp766
Rp767
ag14
((lp768
I-64
aI66
aI67
aI-60
aI-58
aI-21
aI-42
aI-65
atp769
Rp770
ag14
((lp771
tp772
Rp773
ag14
((lp774
tp775
Rp776
ag14
((lp777
tp778
Rp779
ag14
((lp780
tp781
Rp782
ag14
((lp783
tp784
Rp785
ag14
((lp786
tp787
Rp788
ag14
((lp789
I7
atp790
Rp791
ag14
((lp792
tp793
Rp794
ag14
((lp795
tp796
Rp797
ag14
((lp798
tp799
Rp800
ag14
((lp801
tp802
Rp803
atp804
b.