cnumpy.core.multiarray
_reconstruct
p0
(cnumpy
ndarray
p1
(I0
tp2
S'b'
p3
tp4
Rp5
(I1
(I665
tp6
cnumpy
dtype
p7
(S'O8'
p8
I0
I1
tp9
Rp10
(I3
S'|'
p11
NNNI-1
I-1
I63
tp12
bI00
(lp13
c__builtin__
set
p14
((lp15
tp16
Rp17
ag14
((lp18
tp19
Rp20
ag14
((lp21
I4
atp22
Rp23
ag14
((lp24
tp25
Rp26
ag14
((lp27
I2
atp28
Rp29
ag14
((lp30
tp31
Rp32
ag14
((lp33
tp34
Rp35
ag14
((lp36
I9
atp37
Rp38
ag14
((lp39
tp40
Rp41
ag14
((lp42
I7
atp43
Rp44
ag14
((lp45
tp46
Rp47
ag14
((lp48
I12
atp49
Rp50
ag14
((lp51
I11
atp52
Rp53
ag14
((lp54
tp55
Rp56
ag14
((lp57
tp58
Rp59
ag14
((lp60
I16
atp61
Rp62
ag14
((lp63
I15
atp64
Rp65
ag14
((lp66
tp67
Rp68
ag14
((lp69
tp70
Rp71
ag14
((lp72
tp73
Rp74
ag14
((lp75
tp76
Rp77
ag14
((lp78
tp79
Rp80
ag14
((lp81
tp82
Rp83
ag14
((lp84
tp85
Rp86
ag14
((lp87
tp88
Rp89
ag14
((lp90
tp91
Rp92
ag14
((lp93
I-20
atp94
Rp95
ag14
((lp96
tp97
Rp98
ag14
((lp99
I29
aI30
aI31
atp100
Rp101
ag14
((lp102
I28
aI31
atp103
Rp104
ag14
((lp105
I28
aI-27
atp106
Rp107
ag14
((lp108
I28
aI29
atp109
Rp110
ag14
((lp111
tp112
Rp113
ag14
((lp114
tp115
Rp116
ag14
((lp117
tp118
Rp119
ag14
((lp120
I-34
atp121
Rp122
ag14
((lp123
I-30
aI-29
aI37
atp124
Rp125
ag14
((lp126
I-30
aI-29
aI36
atp127
Rp128
ag14
((lp129
tp130
Rp131
ag14
((lp132
tp133
Rp134
ag14
((lp135
tp136
Rp137
ag14
((lp138
tp139
Rp140
ag14
((lp141
tp142
Rp143
ag14
((lp144
tp145
Rp146
ag14
((lp147
I45
atp148
Rp149
ag14
((lp150
I44
atp151
Rp152
ag14
((lp153
I47
atp154
Rp155
ag14
((lp156
I46
atp157
Rp158
ag14
((lp159
I49
atp160
Rp161
ag14
((lp162
I48
atp163
Rp164
ag14
((lp165
tp166
Rp167
ag14
((lp168
tp169
Rp170
ag14
((lp171
tp172
Rp173
ag14
((lp174
tp175
Rp176
ag14
((lp177
tp178
Rp179
ag14
((lp180
tp181
Rp182
ag14
((lp183
tp184
Rp185
ag14
((lp186
tp187
Rp188
ag14
((lp189
tp190
Rp191
ag14
((lp192
tp193
Rp194
ag14
((lp195
tp196
Rp197
ag14
((lp198
tp199
Rp200
ag14
((lp201
I63
atp202
Rp203
ag14
((lp204
I62
atp205
Rp206
ag14
((lp207
tp208
Rp209
ag14
((lp210
tp211
Rp212
ag14
((lp213
tp214
Rp215
ag14
((lp216
I-50
atp217
Rp218
ag14
((lp219
tp220
Rp221
ag14
((lp222
tp223
Rp224
ag14
((lp225
tp226
Rp227
ag14
((lp228
tp229
Rp230
ag14
((lp231
I-61
atp232
Rp233
ag14
((lp234
tp235
Rp236
ag14
((lp237
tp238
Rp239
ag14
((lp240
tp241
Rp242
ag14
((lp243
I78
atp244
Rp245
ag14
((lp246
tp247
Rp248
ag14
((lp249
I76
atp250
Rp251
ag14
((lp252
I-54
aI-77
aI-76
atp253
Rp254
ag14
((lp255
I-77
atp256
Rp257
ag14
((lp258
tp259
Rp260
ag14
((lp261
tp262
Rp263
ag14
((lp264
tp265
Rp266
ag14
((lp267
tp268
Rp269
ag14
((lp270
tp271
Rp272
ag14
((lp273
tp274
Rp275
ag14
((lp276
tp277
Rp278
ag14
((lp279
tp280
Rp281
ag14
((lp282
tp283
Rp284
ag14
((lp285
tp286
Rp287
ag14
((lp288
tp289
Rp290
ag14
((lp291
tp292
Rp293
ag14
((lp294
tp295
Rp296
ag14
((lp297
tp298
Rp299
ag14
((lp300
tp301
Rp302
ag14
((lp303
tp304
Rp305
ag14
((lp306
tp307
Rp308
ag14
((lp309
tp310
Rp311
ag14
((lp312
tp313
Rp314
ag14
((lp315
tp316
Rp317
ag14
((lp318
tp319
Rp320
ag14
((lp321
tp322
Rp323
ag14
((lp324
tp325
Rp326
ag14
((lp327
tp328
Rp329
ag14
((lp330
tp331
Rp332
ag14
((lp333
tp334
Rp335
ag14
((lp336
tp337
Rp338
ag14
((lp339
tp340
Rp341
ag14
((lp342
tp343
Rp344
ag14
((lp345
tp346
Rp347
ag14
((lp348
tp349
Rp350
ag14
((lp351
tp352
Rp353
ag14
((lp354
tp355
Rp356
ag14
((lp357
tp358
Rp359
ag14
((lp360
tp361
Rp362
ag14
((lp363
tp364
Rp365
ag14
((lp366
tp367
Rp368
ag14
((lp369
tp370
Rp371
ag14
((lp372
tp373
Rp374
ag14
((lp375
tp376
Rp377
ag14
((lp378
tp379
Rp380
ag14
((lp381
tp382
Rp383
ag14
((lp384
tp385
Rp386
ag14
((lp387
tp388
Rp389
ag14
((lp390
tp391
Rp392
ag14
((lp393
tp394
Rp395
ag14
((lp396
tp397
Rp398
ag14
((lp399
I-126
atp400
Rp401
ag14
((lp402
I130
aI131
aI-127
atp403
Rp404
ag14
((lp405
I-127
aI131
aI129
atp406
Rp407
ag14
((lp408
I-127
aI130
aI129
atp409
Rp410
ag14
((lp411
tp412
Rp413
ag14
((lp414
tp415
Rp416
ag14
((lp417
I-131
atp418
Rp419
ag14
((lp420
tp421
Rp422
ag14
((lp423
tp424
Rp425
ag14
((lp426
tp427
Rp428
ag14
((lp429
I-124
aI-123
atp430
Rp431
ag14
((lp432
I-124
aI-123
aI-106
aI-105
aI-136
aI-134
atp433
Rp434
ag14
((lp435
I-137
atp436
Rp437
ag14
((lp438
tp439
Rp440
ag14
((lp441
I143
atp442
Rp443
ag14
((lp444
I142
atp445
Rp446
ag14
((lp447
tp448
Rp449
ag14
((lp450
tp451
Rp452
ag14
((lp453
tp454
Rp455
ag14
((lp456
tp457
Rp458
ag14
((lp459
tp460
Rp461
ag14
((lp462
tp463
Rp464
ag14
((lp465
tp466
Rp467
ag14
((lp468
I-149
atp469
Rp470
ag14
((lp471
tp472
Rp473
ag14
((lp474
tp475
Rp476
ag14
((lp477
tp478
Rp479
ag14
((lp480
tp481
Rp482
ag14
((lp483
tp484
Rp485
ag14
((lp486
tp487
Rp488
ag14
((lp489
tp490
Rp491
ag14
((lp492
I160
atp493
Rp494
ag14
((lp495
I159
atp496
Rp497
ag14
((lp498
tp499
Rp500
ag14
((lp501
tp502
Rp503
ag14
((lp504
tp505
Rp506
ag14
((lp507
tp508
Rp509
ag14
((lp510
tp511
Rp512
ag14
((lp513
tp514
Rp515
ag14
((lp516
tp517
Rp518
ag14
((lp519
tp520
Rp521
ag14
((lp522
I-168
atp523
Rp524
ag14
((lp525
tp526
Rp527
ag14
((lp528
I-170
atp529
Rp530
ag14
((lp531
tp532
Rp533
ag14
((lp534
tp535
Rp536
ag14
((lp537
tp538
Rp539
ag14
((lp540
tp541
Rp542
ag14
((lp543
I-175
atp544
Rp545
ag14
((lp546
tp547
Rp548
ag14
((lp549
I-159
aI179
aI-177
atp550
Rp551
ag14
((lp552
I-159
aI178
aI-177
atp553
Rp554
ag14
((lp555
tp556
Rp557
ag14
((lp558
I-176
atp559
Rp560
ag14
((lp561
tp562
Rp563
ag14
((lp564
tp565
Rp566
ag14
((lp567
I-160
aI-181
aI-179
aI-171
aI185
aI186
aI187
atp568
Rp569
ag14
((lp570
I-160
aI-181
aI-179
aI-171
aI184
aI186
aI187
atp571
Rp572
ag14
((lp573
I-160
aI-181
aI-179
aI-171
aI184
aI185
aI187
atp574
Rp575
ag14
((lp576
I-160
aI-181
aI-179
aI-171
aI184
aI185
aI186
atp577
Rp578
ag14
((lp579
tp580
Rp581
ag14
((lp582
tp583
Rp584
ag14
((lp585
I-180
atp586
Rp587
ag14
((lp588
tp589
Rp590
ag14
((lp591
tp592
Rp593
ag14
((lp594
tp595
Rp596
ag14
((lp597
tp598
Rp599
ag14
((lp600
tp601
Rp602
ag14
((lp603
tp604
Rp605
ag14
((lp606
tp607
Rp608
ag14
((lp609
tp610
Rp611
ag14
((lp612
tp613
Rp614
ag14
((lp615
tp616
Rp617
ag14
((lp618
tp619
Rp620
ag14
((lp621
tp622
Rp623
ag14
((lp624
tp625
Rp626
ag14
((lp627
tp628
Rp629
ag14
((lp630
tp631
Rp632
ag14
((lp633
tp634
Rp635
ag14
((lp636
tp637
Rp638
ag14
((lp639
tp640
Rp641
ag14
((lp642
tp643
Rp644
ag14
((lp645
tp646
Rp647
ag14
((lp648
tp649
Rp650
ag14
((lp651
tp652
Rp653
ag14
((lp654
tp655
Rp656
ag14
((lp657
tp658
Rp659
ag14
((lp660
tp661
Rp662
ag14
((lp663
I-215
atp664
Rp665
ag14
((lp666
I218
atp667
Rp668
ag14
((lp669
I217
atp670
Rp671
ag14
((lp672
tp673
Rp674
ag14
((lp675
tp676
Rp677
ag14
((lp678
tp679
Rp680
ag14
((lp681
tp682
Rp683
ag14
((lp684
tp685
Rp686
ag14
((lp687
tp688
Rp689
ag14
((lp690
tp691
Rp692
ag14
((lp693
tp694
Rp695
ag14
((lp696
tp697
Rp698
ag14
((lp699
I-192
atp700
Rp701
ag14
((lp702
tp703
Rp704
ag14
((lp705
tp706
Rp707
ag14
((lp708
tp709
Rp710
ag14
((lp711
tp712
Rp713
ag14
((lp714
tp715
Rp716
ag14
((lp717
tp718
Rp719
ag14
((lp720
tp721
Rp722
ag14
((lp723
tp724
Rp725
ag14
((lp726
tp727
Rp728
ag14
((lp729
I-235
atp730
Rp731
ag14
((lp732
tp733
Rp734
ag14
((lp735
tp736
Rp737
ag14
((lp738
tp739
Rp740
ag14
((lp741
tp742
Rp743
ag14
((lp744
I-209
atp745
Rp746
ag14
((lp747
I245
atp748
Rp749
ag14
((lp750
I244
atp751
Rp752
ag14
((lp753
tp754
Rp755
ag14
((lp756
tp757
Rp758
ag14
((lp759
tp760
Rp761
ag14
((lp762
tp763
Rp764
ag14
((lp765
tp766
Rp767
ag14
((lp768
I252
atp769
Rp770
ag14
((lp771
I251
atp772
Rp773
ag14
((lp774
tp775
Rp776
ag14
((lp777
tp778
Rp779
ag14
((lp780
I-250
atp781
Rp782
ag14
((lp783
tp784
Rp785
ag14
((lp786
tp787
Rp788
ag14
((lp789
tp790
Rp791
ag14
((lp792
I260
aI-258
atp793
Rp794
ag14
((lp795
I259
aI-258
atp796
Rp797
ag14
((lp798
tp799
Rp800
ag14
((lp801
I-244
aI-259
atp802
Rp803
ag14
((lp804
tp805
Rp806
ag14
((lp807
tp808
Rp809
ag14
((lp810
tp811
Rp812
ag14
((lp813
tp814
Rp815
ag14
((lp816
tp817
Rp818
ag14
((lp819
tp820
Rp821
ag14
((lp822
tp823
Rp824
ag14
((lp825
tp826
Rp827
ag14
((lp828
tp829
Rp830
ag14
((lp831
tp832
Rp833
ag14
((lp834
tp835
Rp836
ag14
((lp837
tp838
Rp839
ag14
((lp840
tp841
Rp842
ag14
((lp843
tp844
Rp845
ag14
((lp846
tp847
Rp848
ag14
((lp849
tp850
Rp851
ag14
((lp852
tp853
Rp854
ag14
((lp855
tp856
Rp857
ag14
((lp858
I-197
atp859
Rp860
ag14
((lp861
tp862
Rp863
ag14
((lp864
tp865
Rp866
ag14
((lp867
tp868
Rp869
ag14
((lp870
tp871
Rp872
ag14
((lp873
tp874
Rp875
ag14
((lp876
tp877
Rp878
ag14
((lp879
I289
atp880
Rp881
ag14
((lp882
I288
atp883
Rp884
ag14
((lp885
I291
atp886
Rp887
ag14
((lp888
I290
atp889
Rp890
ag14
((lp891
I-290
atp892
Rp893
ag14
((lp894
tp895
Rp896
ag14
((lp897
tp898
Rp899
ag14
((lp900
tp901
Rp902
ag14
((lp903
tp904
Rp905
ag14
((lp906
tp907
Rp908
ag14
((lp909
tp910
Rp911
ag14
((lp912
tp913
Rp914
ag14
((lp915
tp916
Rp917
ag14
((lp918
tp919
Rp920
ag14
((lp921
tp922
Rp923
ag14
((lp924
tp925
Rp926
ag14
((lp927
tp928
Rp929
ag14
((lp930
tp931
Rp932
ag14
((lp933
tp934
Rp935
ag14
((lp936
tp937
Rp938
ag14
((lp939
tp940
Rp941
ag14
((lp942
tp943
Rp944
ag14
((lp945
tp946
Rp947
ag14
((lp948
tp949
Rp950
ag14
((lp951
I-306
atp952
Rp953
ag14
((lp954
tp955
Rp956
ag14
((lp957
tp958
Rp959
ag14
((lp960
tp961
Rp962
ag14
((lp963
tp964
Rp965
ag14
((lp966
tp967
Rp968
ag14
((lp969
tp970
Rp971
ag14
((lp972
tp973
Rp974
ag14
((lp975
tp976
Rp977
ag14
((lp978
tp979
Rp980
ag14
((lp981
tp982
Rp983
ag14
((lp984
tp985
Rp986
ag14
((lp987
tp988
Rp989
ag14
((lp990
tp991
Rp992
ag14
((lp993
tp994
Rp995
ag14
((lp996
tp997
Rp998
ag14
((lp999
tp1000
Rp1001
ag14
((lp1002
tp1003
Rp1004
ag14
((lp1005
tp1006
Rp1007
ag14
((lp1008
tp1009
Rp1010
ag14
((lp1011
tp1012
Rp1013
ag14
((lp1014
tp1015
Rp1016
ag14
((lp1017
tp1018
Rp1019
ag14
((lp1020
tp1021
Rp1022
ag14
((lp1023
tp1024
Rp1025
ag14
((lp1026
tp1027
Rp1028
ag14
((lp1029
tp1030
Rp1031
ag14
((lp1032
tp1033
Rp1034
ag14
((lp1035
tp1036
Rp1037
ag14
((lp1038
tp1039
Rp1040
ag14
((lp1041
tp1042
Rp1043
ag14
((lp1044
tp1045
Rp1046
ag14
((lp1047
tp1048
Rp1049
ag14
((lp1050
tp1051
Rp1052
ag14
((lp1053
tp1054
Rp1055
ag14
((lp1056
tp1057
Rp1058
ag14
((lp1059
tp1060
Rp1061
ag14
((lp1062
tp1063
Rp1064
ag14
((lp1065
tp1066
Rp1067
ag14
((lp1068
tp1069
Rp1070
ag14
((lp1071
I-312
atp1072
Rp1073
ag14
((lp1074
I-313
atp1075
Rp1076
ag14
((lp1077
tp1078
Rp1079
ag14
((lp1080
tp1081
Rp1082
ag14
((lp1083
tp1084
Rp1085
ag14
((lp1086
tp1087
Rp1088
ag14
((lp1089
tp1090
Rp1091
ag14
((lp1092
I312
atp1093
Rp1094
ag14
((lp1095
tp1096
Rp1097
ag14
((lp1098
tp1099
Rp1100
ag14
((lp1101
tp1102
Rp1103
ag14
((lp1104
tp1105
Rp1106
ag14
((lp1107
tp1108
Rp1109
ag14
((lp1110
tp1111
Rp1112
ag14
((lp1113
tp1114
Rp1115
ag14
((lp1116
tp1117
Rp1118
ag14
((lp1119
tp1120
Rp1121
ag14
((lp1122
tp1123
Rp1124
ag14
((lp1125
tp1126
Rp1127
ag14
((lp1128
tp1129
Rp1130
ag14
((lp1131
tp1132
Rp1133
ag14
((lp1134
tp1135
Rp1136
ag14
((lp1137
tp1138
Rp1139
ag14
((lp1140
I292
atp1141
Rp1142
ag14
((lp1143
tp1144
Rp1145
ag14
((lp1146
tp1147
Rp1148
ag14
((lp1149
tp1150
Rp1151
ag14
((lp1152
tp1153
Rp1154
ag14
((lp1155
tp1156
Rp1157
ag14
((lp1158
I-85
atp1159
Rp1160
ag14
((lp1161
tp1162
Rp1163
ag14
((lp1164
tp1165
Rp1166
ag14
((lp1167
tp1168
Rp1169
ag14
((lp1170
tp1171
Rp1172
ag14
((lp1173
tp1174
Rp1175
ag14
((lp1176
tp1177
Rp1178
ag14
((lp1179
tp1180
Rp1181
ag14
((lp1182
tp1183
Rp1184
ag14
((lp1185
tp1186
Rp1187
ag14
((lp1188
tp1189
Rp1190
ag14
((lp1191
tp1192
Rp1193
ag14
((lp1194
tp1195
Rp1196
ag14
((lp1197
tp1198
Rp1199
ag14
((lp1200
tp1201
Rp1202
ag14
((lp1203
tp1204
Rp1205
ag14
((lp1206
tp1207
Rp1208
ag14
((lp1209
tp1210
Rp1211
ag14
((lp1212
tp1213
Rp1214
ag14
((lp1215
tp1216
Rp1217
ag14
((lp1218
tp1219
Rp1220
ag14
((lp1221
tp1222
Rp1223
ag14
((lp1224
tp1225
Rp1226
ag14
((lp1227
tp1228
Rp1229
ag14
((lp1230
I-237
atp1231
Rp1232
ag14
((lp1233
I262
atp1234
Rp1235
ag14
((lp1236
I259
aI260
atp1237
Rp1238
ag14
((lp1239
tp1240
Rp1241
ag14
((lp1242
tp1243
Rp1244
ag14
((lp1245
tp1246
Rp1247
ag14
((lp1248
tp1249
Rp1250
ag14
((lp1251
I-252
atp1252
Rp1253
ag14
((lp1254
I-253
atp1255
Rp1256
ag14
((lp1257
tp1258
Rp1259
ag14
((lp1260
I255
atp1261
Rp1262
ag14
((lp1263
tp1264
Rp1265
ag14
((lp1266
tp1267
Rp1268
ag14
((lp1269
tp1270
Rp1271
ag14
((lp1272
tp1273
Rp1274
ag14
((lp1275
tp1276
Rp1277
ag14
((lp1278
I262
atp1279
Rp1280
ag14
((lp1281
tp1282
Rp1283
ag14
((lp1284
tp1285
Rp1286
ag14
((lp1287
tp1288
Rp1289
ag14
((lp1290
tp1291
Rp1292
ag14
((lp1293
tp1294
Rp1295
ag14
((lp1296
tp1297
Rp1298
ag14
((lp1299
I-260
atp1300
Rp1301
ag14
((lp1302
tp1303
Rp1304
ag14
((lp1305
I238
atp1306
Rp1307
ag14
((lp1308
tp1309
Rp1310
ag14
((lp1311
tp1312
Rp1313
ag14
((lp1314
tp1315
Rp1316
ag14
((lp1317
tp1318
Rp1319
ag14
((lp1320
tp1321
Rp1322
ag14
((lp1323
tp1324
Rp1325
ag14
((lp1326
tp1327
Rp1328
ag14
((lp1329
tp1330
Rp1331
ag14
((lp1332
tp1333
Rp1334
ag14
((lp1335
tp1336
Rp1337
ag14
((lp1338
tp1339
Rp1340
ag14
((lp1341
tp1342
Rp1343
ag14
((lp1344
tp1345
Rp1346
ag14
((lp1347
tp1348
Rp1349
ag14
((lp1350
tp1351
Rp1352
ag14
((lp1353
I-216
atp1354
Rp1355
ag14
((lp1356
tp1357
Rp1358
ag14
((lp1359
tp1360
Rp1361
ag14
((lp1362
I-219
atp1363
Rp1364
ag14
((lp1365
I216
atp1366
Rp1367
ag14
((lp1368
tp1369
Rp1370
ag14
((lp1371
tp1372
Rp1373
ag14
((lp1374
tp1375
Rp1376
ag14
((lp1377
tp1378
Rp1379
ag14
((lp1380
tp1381
Rp1382
ag14
((lp1383
I243
atp1384
Rp1385
ag14
((lp1386
tp1387
Rp1388
ag14
((lp1389
tp1390
Rp1391
ag14
((lp1392
tp1393
Rp1394
ag14
((lp1395
tp1396
Rp1397
ag14
((lp1398
tp1399
Rp1400
ag14
((lp1401
tp1402
Rp1403
ag14
((lp1404
tp1405
Rp1406
ag14
((lp1407
tp1408
Rp1409
ag14
((lp1410
tp1411
Rp1412
ag14
((lp1413
tp1414
Rp1415
ag14
((lp1416
tp1417
Rp1418
ag14
((lp1419
I281
atp1420
Rp1421
ag14
((lp1422
tp1423
Rp1424
ag14
((lp1425
tp1426
Rp1427
ag14
((lp1428
tp1429
Rp1430
ag14
((lp1431
tp1432
Rp1433
ag14
((lp1434
I228
atp1435
Rp1436
ag14
((lp1437
tp1438
Rp1439
ag14
((lp1440
tp1441
Rp1442
ag14
((lp1443
tp1444
Rp1445
ag14
((lp1446
tp1447
Rp1448
ag14
((lp1449
tp1450
Rp1451
ag14
((lp1452
tp1453
Rp1454
ag14
((lp1455
tp1456
Rp1457
ag14
((lp1458
tp1459
Rp1460
ag14
((lp1461
tp1462
Rp1463
ag14
((lp1464
tp1465
Rp1466
ag14
((lp1467
I-160
aI-179
aI-171
aI184
aI185
aI186
aI187
atp1468
Rp1469
ag14
((lp1470
I190
atp1471
Rp1472
ag14
((lp1473
I-160
aI-181
aI-171
aI184
aI185
aI186
aI187
atp1474
Rp1475
ag14
((lp1476
tp1477
Rp1478
ag14
((lp1479
I-159
aI178
aI179
atp1480
Rp1481
ag14
((lp1482
I181
atp1483
Rp1484
ag14
((lp1485
I176
atp1486
Rp1487
ag14
((lp1488
I-163
atp1489
Rp1490
ag14
((lp1491
tp1492
Rp1493
ag14
((lp1494
tp1495
Rp1496
ag14
((lp1497
I-160
aI-181
aI-179
aI184
aI185
aI186
aI187
atp1498
Rp1499
ag14
((lp1500
I171
atp1501
Rp1502
ag14
((lp1503
tp1504
Rp1505
ag14
((lp1506
I169
atp1507
Rp1508
ag14
((lp1509
tp1510
Rp1511
ag14
((lp1512
tp1513
Rp1514
ag14
((lp1515
tp1516
Rp1517
ag14
((lp1518
tp1519
Rp1520
ag14
((lp1521
I-174
atp1522
Rp1523
ag14
((lp1524
tp1525
Rp1526
ag14
((lp1527
tp1528
Rp1529
ag14
((lp1530
I-181
aI-179
aI-171
aI184
aI185
aI186
aI187
atp1531
Rp1532
ag14
((lp1533
I178
aI179
aI-177
atp1534
Rp1535
ag14
((lp1536
tp1537
Rp1538
ag14
((lp1539
tp1540
Rp1541
ag14
((lp1542
tp1543
Rp1544
ag14
((lp1545
tp1546
Rp1547
ag14
((lp1548
tp1549
Rp1550
ag14
((lp1551
tp1552
Rp1553
ag14
((lp1554
tp1555
Rp1556
ag14
((lp1557
tp1558
Rp1559
ag14
((lp1560
tp1561
Rp1562
ag14
((lp1563
I151
atp1564
Rp1565
ag14
((lp1566
I-146
atp1567
Rp1568
ag14
((lp1569
tp1570
Rp1571
ag14
((lp1572
I-148
atp1573
Rp1574
ag14
((lp1575
tp1576
Rp1577
ag14
((lp1578
tp1579
Rp1580
ag14
((lp1581
tp1582
Rp1583
ag14
((lp1584
tp1585
Rp1586
ag14
((lp1587
I-139
atp1588
Rp1589
ag14
((lp1590
I-139
atp1591
Rp1592
ag14
((lp1593
I-141
aI-140
atp1594
Rp1595
ag14
((lp1596
I-132
atp1597
Rp1598
ag14
((lp1599
I140
atp1600
Rp1601
ag14
((lp1602
I-124
aI-123
aI-106
aI-105
aI-134
aI139
atp1603
Rp1604
ag14
((lp1605
tp1606
Rp1607
ag14
((lp1608
I-124
aI-123
aI-106
aI-105
aI-136
aI139
atp1609
Rp1610
ag14
((lp1611
tp1612
Rp1613
ag14
((lp1614
I-138
atp1615
Rp1616
ag14
((lp1617
I134
atp1618
Rp1619
ag14
((lp1620
tp1621
Rp1622
ag14
((lp1623
tp1624
Rp1625
ag14
((lp1626
tp1627
Rp1628
ag14
((lp1629
I129
aI130
aI131
atp1630
Rp1631
ag14
((lp1632
I128
atp1633
Rp1634
ag14
((lp1635
tp1636
Rp1637
ag14
((lp1638
I-123
aI138
aI139
aI-106
aI-105
aI-136
aI-134
atp1639
Rp1640
ag14
((lp1641
I-124
aI-136
aI138
aI139
aI-134
atp1642
Rp1643
ag14
((lp1644
tp1645
Rp1646
ag14
((lp1647
tp1648
Rp1649
ag14
((lp1650
tp1651
Rp1652
ag14
((lp1653
tp1654
Rp1655
ag14
((lp1656
tp1657
Rp1658
ag14
((lp1659
tp1660
Rp1661
ag14
((lp1662
tp1663
Rp1664
ag14
((lp1665
tp1666
Rp1667
ag14
((lp1668
tp1669
Rp1670
ag14
((lp1671
tp1672
Rp1673
ag14
((lp1674
tp1675
Rp1676
ag14
((lp1677
tp1678
Rp1679
ag14
((lp1680
tp1681
Rp1682
ag14
((lp1683
tp1684
Rp1685
ag14
((lp1686
tp1687
Rp1688
ag14
((lp1689
tp1690
Rp1691
ag14
((lp1692
I-124
aI-105
aI-136
aI-134
aI139
atp1693
Rp1694
ag14
((lp1695
I-124
aI-106
aI-136
aI-134
aI139
atp1696
Rp1697
ag14
((lp1698
tp1699
Rp1700
ag14
((lp1701
tp1702
Rp1703
ag14
((lp1704
tp1705
Rp1706
ag14
((lp1707
tp1708
Rp1709
ag14
((lp1710
tp1711
Rp1712
ag14
((lp1713
tp1714
Rp1715
ag14
((lp1716
tp1717
Rp1718
ag14
((lp1719
tp1720
Rp1721
ag14
((lp1722
tp1723
Rp1724
ag14
((lp1725
tp1726
Rp1727
ag14
((lp1728
tp1729
Rp1730
ag14
((lp1731
tp1732
Rp1733
ag14
((lp1734
tp1735
Rp1736
ag14
((lp1737
tp1738
Rp1739
ag14
((lp1740
tp1741
Rp1742
ag14
((lp1743
tp1744
Rp1745
ag14
((lp1746
tp1747
Rp1748
ag14
((lp1749
tp1750
Rp1751
ag14
((lp1752
tp1753
Rp1754
ag14
((lp1755
I-284
atp1756
Rp1757
ag14
((lp1758
tp1759
Rp1760
ag14
((lp1761
tp1762
Rp1763
ag14
((lp1764
tp1765
Rp1766
ag14
((lp1767
tp1768
Rp1769
ag14
((lp1770
tp1771
Rp1772
ag14
((lp1773
I-74
aI-49
atp1774
Rp1775
ag14
((lp1776
tp1777
Rp1778
ag14
((lp1779
I80
aI79
atp1780
Rp1781
ag14
((lp1782
I-54
aI79
atp1783
Rp1784
ag14
((lp1785
tp1786
Rp1787
ag14
((lp1788
I-79
aI-49
atp1789
Rp1790
ag14
((lp1791
tp1792
Rp1793
ag14
((lp1794
tp1795
Rp1796
ag14
((lp1797
I-46
atp1798
Rp1799
ag14
((lp1800
tp1801
Rp1802
ag14
((lp1803
tp1804
Rp1805
ag14
((lp1806
tp1807
Rp1808
ag14
((lp1809
tp1810
Rp1811
ag14
((lp1812
tp1813
Rp1814
ag14
((lp1815
tp1816
Rp1817
ag14
((lp1818
I-63
atp1819
Rp1820
ag14
((lp1821
I-64
atp1822
Rp1823
ag14
((lp1824
tp1825
Rp1826
ag14
((lp1827
I72
atp1828
Rp1829
ag14
((lp1830
tp1831
Rp1832
ag14
((lp1833
tp1834
Rp1835
ag14
((lp1836
tp1837
Rp1838
ag14
((lp1839
tp1840
Rp1841
ag14
((lp1842
I-53
atp1843
Rp1844
ag14
((lp1845
tp1846
Rp1847
ag14
((lp1848
I-76
aI79
atp1849
Rp1850
ag14
((lp1851
I-56
atp1852
Rp1853
ag14
((lp1854
tp1855
Rp1856
ag14
((lp1857
tp1858
Rp1859
ag14
((lp1860
I67
atp1861
Rp1862
ag14
((lp1863
I-79
aI-74
atp1864
Rp1865
ag14
((lp1866
tp1867
Rp1868
ag14
((lp1869
tp1870
Rp1871
ag14
((lp1872
I-71
atp1873
Rp1874
ag14
((lp1875
tp1876
Rp1877
ag14
((lp1878
tp1879
Rp1880
ag14
((lp1881
tp1882
Rp1883
ag14
((lp1884
tp1885
Rp1886
ag14
((lp1887
tp1888
Rp1889
ag14
((lp1890
tp1891
Rp1892
ag14
((lp1893
tp1894
Rp1895
ag14
((lp1896
tp1897
Rp1898
ag14
((lp1899
tp1900
Rp1901
ag14
((lp1902
tp1903
Rp1904
ag14
((lp1905
tp1906
Rp1907
ag14
((lp1908
I35
atp1909
Rp1910
ag14
((lp1911
tp1912
Rp1913
ag14
((lp1914
tp1915
Rp1916
ag14
((lp1917
tp1918
Rp1919
ag14
((lp1920
I-29
aI36
aI37
atp1921
Rp1922
ag14
((lp1923
I-30
aI36
aI37
atp1924
Rp1925
ag14
((lp1926
tp1927
Rp1928
ag14
((lp1929
I30
atp1930
Rp1931
ag14
((lp1932
tp1933
Rp1934
ag14
((lp1935
tp1936
Rp1937
ag14
((lp1938
tp1939
Rp1940
ag14
((lp1941
tp1942
Rp1943
ag14
((lp1944
tp1945
Rp1946
ag14
((lp1947
tp1948
Rp1949
ag14
((lp1950
I26
atp1951
Rp1952
ag14
((lp1953
tp1954
Rp1955
ag14
((lp1956
tp1957
Rp1958
ag14
((lp1959
tp1960
Rp1961
ag14
((lp1962
tp1963
Rp1964
ag14
((lp1965
I-5
atp1966
Rp1967
ag14
((lp1968
I-13
atp1969
Rp1970
ag14
((lp1971
I-14
atp1972
Rp1973
ag14
((lp1974
tp1975
Rp1976
ag14
((lp1977
tp1978
Rp1979
ag14
((lp1980
tp1981
Rp1982
ag14
((lp1983
tp1984
Rp1985
ag14
((lp1986
tp1987
Rp1988
ag14
((lp1989
tp1990
Rp1991
ag14
((lp1992
tp1993
Rp1994
ag14
((lp1995
I-15
atp1996
Rp1997
ag14
((lp1998
I-3
atp1999
Rp2000
ag14
((lp2001
I-4
atp2002
Rp2003
ag14
((lp2004
tp2005
Rp2006
ag14
((lp2007
tp2008
Rp2009
atp2010
b.