cnumpy.core.multiarray
_reconstruct
p0
(cnumpy
ndarray
p1
(I0
tp2
S'b'
p3
tp4
Rp5
(I1
(I137
tp6
cnumpy
dtype
p7
(S'O8'
p8
I0
I1
tp9
Rp10
(I3
S'|'
p11
NNNI-1
I-1
I63
tp12
bI00
(lp13
c__builtin__
set
p14
((lp15
tp16
Rp17
ag14
((lp18
tp19
Rp20
ag14
((lp21
tp22
Rp23
ag14
((lp24
tp25
Rp26
ag14
((lp27
tp28
Rp29
ag14
((lp30
I-3
atp31
Rp32
ag14
((lp33
I8
atp34
Rp35
ag14
((lp36
tp37
Rp38
ag14
((lp39
I6
atp40
Rp41
ag14
((lp42
tp43
Rp44
ag14
((lp45
tp46
Rp47
ag14
((lp48
tp49
Rp50
ag14
((lp51
tp52
Rp53
ag14
((lp54
tp55
Rp56
ag14
((lp57
tp58
Rp59
ag14
((lp60
tp61
Rp62
ag14
((lp63
tp64
Rp65
ag14
((lp66
tp67
Rp68
ag14
((lp69
I19
aI20
aI-11
atp70
Rp71
ag14
((lp72
I18
aI20
aI-11
atp73
Rp74
ag14
((lp75
I18
aI19
aI-11
atp76
Rp77
ag14
((lp78
I-6
aI22
atp79
Rp80
ag14
((lp81
I-6
aI21
atp82
Rp83
ag14
((lp84
tp85
Rp86
ag14
((lp87
I-18
atp88
Rp89
ag14
((lp90
I-22
aI26
aI-19
atp91
Rp92
ag14
((lp93
I25
aI-22
aI-19
atp94
Rp95
ag14
((lp96
tp97
Rp98
ag14
((lp99
tp100
Rp101
ag14
((lp102
tp103
Rp104
ag14
((lp105
tp106
Rp107
ag14
((lp108
tp109
Rp110
ag14
((lp111
tp112
Rp113
ag14
((lp114
tp115
Rp116
ag14
((lp117
tp118
Rp119
ag14
((lp120
tp121
Rp122
ag14
((lp123
tp124
Rp125
ag14
((lp126
tp127
Rp128
ag14
((lp129
I-31
aI-37
aI-34
aI39
atp130
Rp131
ag14
((lp132
I-31
aI-37
aI-34
aI38
atp133
Rp134
ag14
((lp135
tp136
Rp137
ag14
((lp138
tp139
Rp140
ag14
((lp141
tp142
Rp143
ag14
((lp144
tp145
Rp146
ag14
((lp147
tp148
Rp149
ag14
((lp150
tp151
Rp152
ag14
((lp153
tp154
Rp155
ag14
((lp156
I-46
atp157
Rp158
ag14
((lp159
tp160
Rp161
ag14
((lp162
tp163
Rp164
ag14
((lp165
tp166
Rp167
ag14
((lp168
tp169
Rp170
ag14
((lp171
tp172
Rp173
ag14
((lp174
tp175
Rp176
ag14
((lp177
tp178
Rp179
ag14
((lp180
tp181
Rp182
ag14
((lp183
tp184
Rp185
ag14
((lp186
tp187
Rp188
ag14
((lp189
tp190
Rp191
ag14
((lp192
tp193
Rp194
ag14
((lp195
tp196
Rp197
ag14
((lp198
tp199
Rp200
ag14
((lp201
tp202
Rp203
ag14
((lp204
tp205
Rp206
ag14
((lp207
tp208
Rp209
ag14
((lp210
tp211
Rp212
ag14
((lp213
tp214
Rp215
ag14
((lp216
tp217
Rp218
ag14
((lp219
tp220
Rp221
ag14
((lp222
tp223
Rp224
ag14
((lp225
tp226
Rp227
ag14
((lp228
tp229
Rp230
ag14
((lp231
tp232
Rp233
ag14
((lp234
tp235
Rp236
ag14
((lp237
tp238
Rp239
ag14
((lp240
tp241
Rp242
ag14
((lp243
tp244
Rp245
ag14
((lp246
tp247
Rp248
ag14
((lp249
tp250
Rp251
ag14
((lp252
tp253
Rp254
ag14
((lp255
tp256
Rp257
ag14
((lp258
tp259
Rp260
ag14
((lp261
tp262
Rp263
ag14
((lp264
tp265
Rp266
ag14
((lp267
tp268
Rp269
ag14
((lp270
tp271
Rp272
ag14
((lp273
tp274
Rp275
ag14
((lp276
tp277
Rp278
ag14
((lp279
tp280
Rp281
ag14
((lp282
tp283
Rp284
ag14
((lp285
tp286
Rp287
ag14
((lp288
I47
atp289
Rp290
ag14
((lp291
tp292
Rp293
ag14
((lp294
tp295
Rp296
ag14
((lp297
tp298
Rp299
ag14
((lp300
tp301
Rp302
ag14
((lp303
tp304
Rp305
ag14
((lp306
tp307
Rp308
ag14
((lp309
tp310
Rp311
ag14
((lp312
tp313
Rp314
ag14
((lp315
I-31
aI-34
aI38
aI39
atp316
Rp317
ag14
((lp318
tp319
Rp320
ag14
((lp321
tp322
Rp323
ag14
((lp324
I-31
aI-37
aI38
aI39
atp325
Rp326
ag14
((lp327
tp328
Rp329
ag14
((lp330
tp331
Rp332
ag14
((lp333
I-37
aI38
aI-34
aI39
atp334
Rp335
ag14
((lp336
tp337
Rp338
ag14
((lp339
tp340
Rp341
ag14
((lp342
tp343
Rp344
ag14
((lp345
tp346
Rp347
ag14
((lp348
tp349
Rp350
ag14
((lp351
I-20
atp352
Rp353
ag14
((lp354
tp355
Rp356
ag14
((lp357
tp358
Rp359
ag14
((lp360
I25
aI26
aI-19
atp361
Rp362
ag14
((lp363
tp364
Rp365
ag14
((lp366
I-25
atp367
Rp368
ag14
((lp369
I25
aI26
aI-22
atp370
Rp371
ag14
((lp372
I24
atp373
Rp374
ag14
((lp375
tp376
Rp377
ag14
((lp378
tp379
Rp380
ag14
((lp381
I-4
atp382
Rp383
ag14
((lp384
tp385
Rp386
ag14
((lp387
tp388
Rp389
ag14
((lp390
tp391
Rp392
ag14
((lp393
I18
aI19
aI20
atp394
Rp395
ag14
((lp396
tp397
Rp398
ag14
((lp399
tp400
Rp401
ag14
((lp402
tp403
Rp404
ag14
((lp405
tp406
Rp407
ag14
((lp408
I21
aI22
atp409
Rp410
ag14
((lp411
tp412
Rp413
ag14
((lp414
I-15
atp415
Rp416
ag14
((lp417
I5
atp418
Rp419
ag14
((lp420
tp421
Rp422
ag14
((lp423
tp424
Rp425
atp426
b.