cnumpy.core.multiarray
_reconstruct
p0
(cnumpy
ndarray
p1
(I0
tp2
S'b'
p3
tp4
Rp5
(I1
(I191
tp6
cnumpy
dtype
p7
(S'O8'
p8
I0
I1
tp9
Rp10
(I3
S'|'
p11
NNNI-1
I-1
I63
tp12
bI00
(lp13
c__builtin__
set
p14
((lp15
tp16
Rp17
ag14
((lp18
tp19
Rp20
ag14
((lp21
tp22
Rp23
ag14
((lp24
I4
aI5
atp25
Rp26
ag14
((lp27
I3
aI5
atp28
Rp29
ag14
((lp30
I3
aI4
atp31
Rp32
ag14
((lp33
tp34
Rp35
ag14
((lp36
I-3
atp37
Rp38
ag14
((lp39
I-7
atp40
Rp41
ag14
((lp42
tp43
Rp44
ag14
((lp45
tp46
Rp47
ag14
((lp48
tp49
Rp50
ag14
((lp51
I-1
aI-2
atp52
Rp53
ag14
((lp54
tp55
Rp56
ag14
((lp57
tp58
Rp59
ag14
((lp60
tp61
Rp62
ag14
((lp63
tp64
Rp65
ag14
((lp66
tp67
Rp68
ag14
((lp69
tp70
Rp71
ag14
((lp72
I20
aI-11
atp73
Rp74
ag14
((lp75
I19
aI-11
atp76
Rp77
ag14
((lp78
tp79
Rp80
ag14
((lp81
tp82
Rp83
ag14
((lp84
I-16
aI-15
aI24
aI-21
aI-20
atp85
Rp86
ag14
((lp87
I-16
aI-15
aI23
aI-21
aI-20
atp88
Rp89
ag14
((lp90
tp91
Rp92
ag14
((lp93
tp94
Rp95
ag14
((lp96
tp97
Rp98
ag14
((lp99
tp100
Rp101
ag14
((lp102
tp103
Rp104
ag14
((lp105
tp106
Rp107
ag14
((lp108
tp109
Rp110
ag14
((lp111
tp112
Rp113
ag14
((lp114
tp115
Rp116
ag14
((lp117
tp118
Rp119
ag14
((lp120
tp121
Rp122
ag14
((lp123
tp124
Rp125
ag14
((lp126
tp127
Rp128
ag14
((lp129
tp130
Rp131
ag14
((lp132
I40
atp133
Rp134
ag14
((lp135
I39
atp136
Rp137
ag14
((lp138
I42
aI-39
atp139
Rp140
ag14
((lp141
I41
aI-39
atp142
Rp143
ag14
((lp144
tp145
Rp146
ag14
((lp147
tp148
Rp149
ag14
((lp150
tp151
Rp152
ag14
((lp153
I-45
aI47
atp154
Rp155
ag14
((lp156
I-45
aI46
atp157
Rp158
ag14
((lp159
tp160
Rp161
ag14
((lp162
I50
atp163
Rp164
ag14
((lp165
I49
atp166
Rp167
ag14
((lp168
tp169
Rp170
ag14
((lp171
tp172
Rp173
ag14
((lp174
tp175
Rp176
ag14
((lp177
tp178
Rp179
ag14
((lp180
tp181
Rp182
ag14
((lp183
tp184
Rp185
ag14
((lp186
tp187
Rp188
ag14
((lp189
tp190
Rp191
ag14
((lp192
tp193
Rp194
ag14
((lp195
tp196
Rp197
ag14
((lp198
I62
atp199
Rp200
ag14
((lp201
I61
atp202
Rp203
ag14
((lp204
tp205
Rp206
ag14
((lp207
tp208
Rp209
ag14
((lp210
tp211
Rp212
ag14
((lp213
tp214
Rp215
ag14
((lp216
tp217
Rp218
ag14
((lp219
tp220
Rp221
ag14
((lp222
tp223
Rp224
ag14
((lp225
tp226
Rp227
ag14
((lp228
tp229
Rp230
ag14
((lp231
tp232
Rp233
ag14
((lp234
tp235
Rp236
ag14
((lp237
I-72
aI-66
atp238
Rp239
ag14
((lp240
tp241
Rp242
ag14
((lp243
tp244
Rp245
ag14
((lp246
tp247
Rp248
ag14
((lp249
tp250
Rp251
ag14
((lp252
tp253
Rp254
ag14
((lp255
I82
aI83
atp256
Rp257
ag14
((lp258
I82
aI83
atp259
Rp260
ag14
((lp261
I80
aI81
aI83
atp262
Rp263
ag14
((lp264
I80
aI81
aI82
atp265
Rp266
ag14
((lp267
I-80
atp268
Rp269
ag14
((lp270
I86
atp271
Rp272
ag14
((lp273
I85
atp274
Rp275
ag14
((lp276
tp277
Rp278
ag14
((lp279
I89
atp280
Rp281
ag14
((lp282
I88
atp283
Rp284
ag14
((lp285
tp286
Rp287
ag14
((lp288
tp289
Rp290
ag14
((lp291
tp292
Rp293
ag14
((lp294
tp295
Rp296
ag14
((lp297
tp298
Rp299
ag14
((lp300
tp301
Rp302
ag14
((lp303
tp304
Rp305
ag14
((lp306
tp307
Rp308
ag14
((lp309
tp310
Rp311
ag14
((lp312
I-82
atp313
Rp314
ag14
((lp315
tp316
Rp317
ag14
((lp318
I-81
atp319
Rp320
ag14
((lp321
tp322
Rp323
ag14
((lp324
tp325
Rp326
ag14
((lp327
tp328
Rp329
ag14
((lp330
tp331
Rp332
ag14
((lp333
tp334
Rp335
ag14
((lp336
tp337
Rp338
ag14
((lp339
tp340
Rp341
ag14
((lp342
I-92
atp343
Rp344
ag14
((lp345
I-90
atp346
Rp347
ag14
((lp348
I84
atp349
Rp350
ag14
((lp351
tp352
Rp353
ag14
((lp354
tp355
Rp356
ag14
((lp357
tp358
Rp359
ag14
((lp360
tp361
Rp362
ag14
((lp363
tp364
Rp365
ag14
((lp366
tp367
Rp368
ag14
((lp369
I-72
aI-66
atp370
Rp371
ag14
((lp372
I74
aI-66
aI-73
atp373
Rp374
ag14
((lp375
tp376
Rp377
ag14
((lp378
I-69
atp379
Rp380
ag14
((lp381
I-70
atp382
Rp383
ag14
((lp384
tp385
Rp386
ag14
((lp387
tp388
Rp389
ag14
((lp390
I-72
aI74
aI-73
atp391
Rp392
ag14
((lp393
tp394
Rp395
ag14
((lp396
tp397
Rp398
ag14
((lp399
tp400
Rp401
ag14
((lp402
tp403
Rp404
ag14
((lp405
tp406
Rp407
ag14
((lp408
tp409
Rp410
ag14
((lp411
tp412
Rp413
ag14
((lp414
tp415
Rp416
ag14
((lp417
tp418
Rp419
ag14
((lp420
tp421
Rp422
ag14
((lp423
tp424
Rp425
ag14
((lp426
tp427
Rp428
ag14
((lp429
tp430
Rp431
ag14
((lp432
tp433
Rp434
ag14
((lp435
tp436
Rp437
ag14
((lp438
tp439
Rp440
ag14
((lp441
tp442
Rp443
ag14
((lp444
tp445
Rp446
ag14
((lp447
tp448
Rp449
ag14
((lp450
tp451
Rp452
ag14
((lp453
I46
aI47
atp454
Rp455
ag14
((lp456
tp457
Rp458
ag14
((lp459
tp460
Rp461
ag14
((lp462
tp463
Rp464
ag14
((lp465
tp466
Rp467
ag14
((lp468
tp469
Rp470
ag14
((lp471
I41
aI42
atp472
Rp473
ag14
((lp474
tp475
Rp476
ag14
((lp477
tp478
Rp479
ag14
((lp480
tp481
Rp482
ag14
((lp483
tp484
Rp485
ag14
((lp486
tp487
Rp488
ag14
((lp489
tp490
Rp491
ag14
((lp492
tp493
Rp494
ag14
((lp495
tp496
Rp497
ag14
((lp498
tp499
Rp500
ag14
((lp501
tp502
Rp503
ag14
((lp504
tp505
Rp506
ag14
((lp507
tp508
Rp509
ag14
((lp510
tp511
Rp512
ag14
((lp513
tp514
Rp515
ag14
((lp516
tp517
Rp518
ag14
((lp519
tp520
Rp521
ag14
((lp522
tp523
Rp524
ag14
((lp525
I-16
aI-15
aI23
aI24
aI-20
atp526
Rp527
ag14
((lp528
I-16
aI-15
aI23
aI24
aI-21
atp529
Rp530
ag14
((lp531
tp532
Rp533
ag14
((lp534
tp535
Rp536
ag14
((lp537
tp538
Rp539
ag14
((lp540
I-15
aI23
aI24
aI-21
aI-20
atp541
Rp542
ag14
((lp543
I-16
aI23
aI24
aI-21
aI-20
atp544
Rp545
ag14
((lp546
tp547
Rp548
ag14
((lp549
tp550
Rp551
ag14
((lp552
tp553
Rp554
ag14
((lp555
I19
aI20
atp556
Rp557
ag14
((lp558
tp559
Rp560
ag14
((lp561
tp562
Rp563
ag14
((lp564
tp565
Rp566
ag14
((lp567
I8
atp568
Rp569
ag14
((lp570
tp571
Rp572
ag14
((lp573
tp574
Rp575
ag14
((lp576
tp577
Rp578
ag14
((lp579
I7
atp580
Rp581
ag14
((lp582
I12
atp583
Rp584
ag14
((lp585
I12
atp586
Rp587
atp588
b.