cnumpy.core.multiarray
_reconstruct
p0
(cnumpy
ndarray
p1
(I0
tp2
S'b'
p3
tp4
Rp5
(I1
(I137
tp6
cnumpy
dtype
p7
(S'O8'
p8
I0
I1
tp9
Rp10
(I3
S'|'
p11
NNNI-1
I-1
I63
tp12
bI00
(lp13
c__builtin__
set
p14
((lp15
tp16
Rp17
ag14
((lp18
I3
aI5
atp19
Rp20
ag14
((lp21
I4
atp22
Rp23
ag14
((lp24
I1
aI4
aI5
atp25
Rp26
ag14
((lp27
I2
aI3
atp28
Rp29
ag14
((lp30
I1
aI3
atp31
Rp32
ag14
((lp33
I8
aI7
atp34
Rp35
ag14
((lp36
I8
aI6
atp37
Rp38
ag14
((lp39
I6
aI7
atp40
Rp41
ag14
((lp42
tp43
Rp44
ag14
((lp45
I-1
aI-6
aI-2
atp46
Rp47
ag14
((lp48
tp49
Rp50
ag14
((lp51
tp52
Rp53
ag14
((lp54
tp55
Rp56
ag14
((lp57
tp58
Rp59
ag14
((lp60
I16
aI-4
atp61
Rp62
ag14
((lp63
I-4
aI15
atp64
Rp65
ag14
((lp66
tp67
Rp68
ag14
((lp69
tp70
Rp71
ag14
((lp72
tp73
Rp74
ag14
((lp75
tp76
Rp77
ag14
((lp78
tp79
Rp80
ag14
((lp81
tp82
Rp83
ag14
((lp84
tp85
Rp86
ag14
((lp87
tp88
Rp89
ag14
((lp90
I-24
aI-22
atp91
Rp92
ag14
((lp93
tp94
Rp95
ag14
((lp96
tp97
Rp98
ag14
((lp99
tp100
Rp101
ag14
((lp102
I32
aI33
aI-28
aI30
aI31
atp103
Rp104
ag14
((lp105
I32
aI33
aI-28
aI29
aI31
atp106
Rp107
ag14
((lp108
I32
aI33
aI-28
aI29
aI30
atp109
Rp110
ag14
((lp111
I33
aI-28
aI29
aI30
aI31
atp112
Rp113
ag14
((lp114
I32
aI-28
aI29
aI30
aI31
atp115
Rp116
ag14
((lp117
tp118
Rp119
ag14
((lp120
tp121
Rp122
ag14
((lp123
tp124
Rp125
ag14
((lp126
tp127
Rp128
ag14
((lp129
tp130
Rp131
ag14
((lp132
tp133
Rp134
ag14
((lp135
tp136
Rp137
ag14
((lp138
tp139
Rp140
ag14
((lp141
tp142
Rp143
ag14
((lp144
tp145
Rp146
ag14
((lp147
tp148
Rp149
ag14
((lp150
tp151
Rp152
ag14
((lp153
tp154
Rp155
ag14
((lp156
I-46
aI48
aI49
aI50
aI51
aI52
aI53
aI54
aI55
aI56
aI57
aI58
atp157
Rp158
ag14
((lp159
I-46
aI47
aI49
aI50
aI51
aI52
aI53
aI54
aI55
aI56
aI57
aI58
atp160
Rp161
ag14
((lp162
I50
aI47
aI48
aI-46
aI51
aI52
aI53
aI54
aI55
aI56
aI57
aI58
atp163
Rp164
ag14
((lp165
I-46
aI47
aI48
aI49
aI51
aI52
aI53
aI55
aI57
aI58
atp166
Rp167
ag14
((lp168
I-46
aI47
aI48
aI49
aI50
aI52
aI53
aI54
aI55
aI56
aI57
aI58
atp169
Rp170
ag14
((lp171
I50
aI47
aI48
aI49
aI-46
aI51
aI53
aI54
aI55
aI56
aI57
aI58
atp172
Rp173
ag14
((lp174
I-46
aI47
aI48
aI49
aI50
aI51
aI52
aI54
aI55
aI56
aI57
aI58
atp175
Rp176
ag14
((lp177
I47
aI48
aI49
aI-46
aI51
aI52
aI53
aI55
aI56
atp178
Rp179
ag14
((lp180
I-46
aI47
aI48
aI49
aI50
aI51
aI52
aI53
aI54
aI56
aI57
aI58
atp181
Rp182
ag14
((lp183
I47
aI48
aI49
aI-46
aI51
aI52
aI53
aI54
aI55
atp184
Rp185
ag14
((lp186
I50
aI47
aI48
aI49
aI-46
aI51
aI52
aI53
aI55
aI58
atp187
Rp188
ag14
((lp189
I50
aI47
aI48
aI49
aI-46
aI51
aI52
aI53
aI55
aI57
atp190
Rp191
ag14
((lp192
tp193
Rp194
ag14
((lp195
I-47
atp196
Rp197
ag14
((lp198
tp199
Rp200
ag14
((lp201
tp202
Rp203
ag14
((lp204
I-62
aI-53
atp205
Rp206
ag14
((lp207
tp208
Rp209
ag14
((lp210
tp211
Rp212
ag14
((lp213
I-65
atp214
Rp215
ag14
((lp216
tp217
Rp218
ag14
((lp219
tp220
Rp221
ag14
((lp222
tp223
Rp224
ag14
((lp225
tp226
Rp227
ag14
((lp228
I-64
aI-63
aI-61
aI-55
atp229
Rp230
ag14
((lp231
I66
atp232
Rp233
ag14
((lp234
I-55
aI-61
aI-66
aI-63
atp235
Rp236
ag14
((lp237
I-64
aI-55
aI-61
aI-66
atp238
Rp239
ag14
((lp240
I-53
aI63
atp241
Rp242
ag14
((lp243
I-64
aI-63
aI-66
aI-55
atp244
Rp245
ag14
((lp246
I-59
aI-50
aI-49
atp247
Rp248
ag14
((lp249
I-60
aI-50
atp250
Rp251
ag14
((lp252
tp253
Rp254
ag14
((lp255
tp256
Rp257
ag14
((lp258
tp259
Rp260
ag14
((lp261
I-64
aI-63
aI-61
aI-66
atp262
Rp263
ag14
((lp264
tp265
Rp266
ag14
((lp267
I-62
aI63
atp268
Rp269
ag14
((lp270
tp271
Rp272
ag14
((lp273
tp274
Rp275
ag14
((lp276
I-60
aI-59
atp277
Rp278
ag14
((lp279
I-60
atp280
Rp281
ag14
((lp282
tp283
Rp284
ag14
((lp285
I60
atp286
Rp287
ag14
((lp288
I50
aI47
aI48
aI49
aI51
aI52
aI53
aI54
aI55
aI56
aI57
aI58
atp289
Rp290
ag14
((lp291
tp292
Rp293
ag14
((lp294
tp295
Rp296
ag14
((lp297
tp298
Rp299
ag14
((lp300
tp301
Rp302
ag14
((lp303
tp304
Rp305
ag14
((lp306
tp307
Rp308
ag14
((lp309
tp310
Rp311
ag14
((lp312
tp313
Rp314
ag14
((lp315
tp316
Rp317
ag14
((lp318
tp319
Rp320
ag14
((lp321
tp322
Rp323
ag14
((lp324
I-32
atp325
Rp326
ag14
((lp327
tp328
Rp329
ag14
((lp330
I-34
atp331
Rp332
ag14
((lp333
tp334
Rp335
ag14
((lp336
tp337
Rp338
ag14
((lp339
tp340
Rp341
ag14
((lp342
I32
aI33
aI29
aI30
aI31
atp343
Rp344
ag14
((lp345
tp346
Rp347
ag14
((lp348
tp349
Rp350
ag14
((lp351
tp352
Rp353
ag14
((lp354
I25
aI-22
atp355
Rp356
ag14
((lp357
tp358
Rp359
ag14
((lp360
I-24
aI25
atp361
Rp362
ag14
((lp363
tp364
Rp365
ag14
((lp366
tp367
Rp368
ag14
((lp369
tp370
Rp371
ag14
((lp372
tp373
Rp374
ag14
((lp375
tp376
Rp377
ag14
((lp378
tp379
Rp380
ag14
((lp381
tp382
Rp383
ag14
((lp384
tp385
Rp386
ag14
((lp387
tp388
Rp389
ag14
((lp390
I-8
atp391
Rp392
ag14
((lp393
tp394
Rp395
ag14
((lp396
tp397
Rp398
ag14
((lp399
tp400
Rp401
ag14
((lp402
I-12
atp403
Rp404
ag14
((lp405
tp406
Rp407
ag14
((lp408
I-1
aI10
aI-2
atp409
Rp410
ag14
((lp411
tp412
Rp413
ag14
((lp414
I16
aI15
atp415
Rp416
ag14
((lp417
tp418
Rp419
ag14
((lp420
I-1
aI10
aI-6
atp421
Rp422
ag14
((lp423
I-2
aI10
aI-6
atp424
Rp425
atp426
b.