cnumpy.core.multiarray
_reconstruct
p0
(cnumpy
ndarray
p1
(I0
tp2
S'b'
p3
tp4
Rp5
(I1
(I407
tp6
cnumpy
dtype
p7
(S'O8'
p8
I0
I1
tp9
Rp10
(I3
S'|'
p11
NNNI-1
I-1
I63
tp12
bI00
(lp13
c__builtin__
set
p14
((lp15
tp16
Rp17
ag14
((lp18
tp19
Rp20
ag14
((lp21
tp22
Rp23
ag14
((lp24
tp25
Rp26
ag14
((lp27
I5
aI6
aI7
aI9
aI10
aI-1
aI-3
aI-2
atp28
Rp29
ag14
((lp30
I4
aI6
aI7
aI9
aI10
aI-1
aI-3
aI-2
atp31
Rp32
ag14
((lp33
I4
aI5
aI7
aI9
aI10
aI-2
aI-3
aI-1
atp34
Rp35
ag14
((lp36
I4
aI5
aI6
aI9
aI10
aI-1
aI-3
aI-2
atp37
Rp38
ag14
((lp39
tp40
Rp41
ag14
((lp42
I4
aI5
aI6
aI7
aI10
aI-2
aI-3
aI-1
atp43
Rp44
ag14
((lp45
I4
aI5
aI6
aI7
aI9
aI-1
aI-3
aI-2
atp46
Rp47
ag14
((lp48
I-4
atp49
Rp50
ag14
((lp51
tp52
Rp53
ag14
((lp54
I-6
aI14
atp55
Rp56
ag14
((lp57
I-6
aI13
atp58
Rp59
ag14
((lp60
tp61
Rp62
ag14
((lp63
I-14
atp64
Rp65
ag14
((lp66
tp67
Rp68
ag14
((lp69
tp70
Rp71
ag14
((lp72
I-16
aI20
aI21
aI-9
atp73
Rp74
ag14
((lp75
I-16
aI19
aI21
aI-9
atp76
Rp77
ag14
((lp78
I-16
aI19
aI20
aI-9
atp79
Rp80
ag14
((lp81
I23
atp82
Rp83
ag14
((lp84
I22
atp85
Rp86
ag14
((lp87
I-23
atp88
Rp89
ag14
((lp90
tp91
Rp92
ag14
((lp93
tp94
Rp95
ag14
((lp96
tp97
Rp98
ag14
((lp99
tp100
Rp101
ag14
((lp102
tp103
Rp104
ag14
((lp105
tp106
Rp107
ag14
((lp108
I33
aI34
aI35
aI36
aI37
aI38
aI39
aI40
atp109
Rp110
ag14
((lp111
I40
aI36
aI38
aI39
atp112
Rp113
ag14
((lp114
I34
aI35
aI36
aI37
aI38
aI39
aI40
aI31
atp115
Rp116
ag14
((lp117
I33
aI35
aI36
aI37
aI38
aI39
aI40
aI31
atp118
Rp119
ag14
((lp120
I33
aI34
aI36
aI37
aI38
aI39
aI31
atp121
Rp122
ag14
((lp123
I32
aI33
aI34
aI35
aI37
aI38
aI39
aI40
aI31
atp124
Rp125
ag14
((lp126
I33
aI34
aI35
aI36
aI38
aI39
aI40
aI31
atp127
Rp128
ag14
((lp129
I32
aI33
aI34
aI35
aI36
aI37
aI39
aI40
aI31
atp130
Rp131
ag14
((lp132
I32
aI33
aI34
aI35
aI36
aI37
aI38
aI40
aI31
atp133
Rp134
ag14
((lp135
I32
aI33
aI34
aI36
aI37
aI38
aI39
aI31
atp136
Rp137
ag14
((lp138
tp139
Rp140
ag14
((lp141
tp142
Rp143
ag14
((lp144
tp145
Rp146
ag14
((lp147
tp148
Rp149
ag14
((lp150
tp151
Rp152
ag14
((lp153
tp154
Rp155
ag14
((lp156
tp157
Rp158
ag14
((lp159
tp160
Rp161
ag14
((lp162
I-48
aI50
aI51
aI52
aI53
aI54
aI55
aI56
aI57
aI58
atp163
Rp164
ag14
((lp165
I-48
aI49
aI51
aI52
aI53
aI54
aI55
aI56
aI57
aI58
aI59
atp166
Rp167
ag14
((lp168
I-48
aI49
aI50
aI52
aI53
aI54
aI55
aI56
aI57
aI58
atp169
Rp170
ag14
((lp171
I-48
aI49
aI50
aI51
aI53
aI54
aI55
aI56
aI57
aI58
aI59
atp172
Rp173
ag14
((lp174
I-48
aI49
aI50
aI51
aI52
aI54
aI55
aI56
aI57
aI58
atp175
Rp176
ag14
((lp177
I-48
aI49
aI50
aI51
aI52
aI53
aI55
aI56
aI57
aI58
atp178
Rp179
ag14
((lp180
I-48
aI49
aI50
aI51
aI52
aI53
aI54
aI56
aI57
aI58
aI59
atp181
Rp182
ag14
((lp183
I-48
aI49
aI50
aI51
aI52
aI53
aI54
aI55
aI57
aI58
atp184
Rp185
ag14
((lp186
I-48
aI49
aI50
aI51
aI52
aI53
aI54
aI55
aI56
aI58
aI59
atp187
Rp188
ag14
((lp189
I-48
aI49
aI50
aI51
aI52
aI53
aI54
aI55
aI56
aI57
aI59
atp190
Rp191
ag14
((lp192
I50
aI52
aI55
aI57
aI58
atp193
Rp194
ag14
((lp195
tp196
Rp197
ag14
((lp198
tp199
Rp200
ag14
((lp201
I66
aI68
aI-51
aI63
atp202
Rp203
ag14
((lp204
I66
aI68
aI-51
aI62
atp205
Rp206
ag14
((lp207
I65
aI67
atp208
Rp209
ag14
((lp210
I64
aI67
atp211
Rp212
ag14
((lp213
I68
aI-51
aI62
aI63
atp214
Rp215
ag14
((lp216
I64
aI65
atp217
Rp218
ag14
((lp219
I66
aI-51
aI62
aI63
atp220
Rp221
ag14
((lp222
I-64
aI-63
atp223
Rp224
ag14
((lp225
tp226
Rp227
ag14
((lp228
tp229
Rp230
ag14
((lp231
tp232
Rp233
ag14
((lp234
I-52
aI-66
atp235
Rp236
ag14
((lp237
I-60
aI75
aI-52
aI-70
aI-69
aI-67
aI-66
atp238
Rp239
ag14
((lp240
I-60
aI74
aI-52
aI-70
aI-69
aI-67
aI-66
atp241
Rp242
ag14
((lp243
tp244
Rp245
ag14
((lp246
I-76
aI-68
aI-75
atp247
Rp248
ag14
((lp249
tp250
Rp251
ag14
((lp252
tp253
Rp254
ag14
((lp255
tp256
Rp257
ag14
((lp258
I-56
aI-71
atp259
Rp260
ag14
((lp261
I-77
aI-57
atp262
Rp263
ag14
((lp264
tp265
Rp266
ag14
((lp267
tp268
Rp269
ag14
((lp270
tp271
Rp272
ag14
((lp273
tp274
Rp275
ag14
((lp276
tp277
Rp278
ag14
((lp279
tp280
Rp281
ag14
((lp282
tp283
Rp284
ag14
((lp285
I91
atp286
Rp287
ag14
((lp288
I90
atp289
Rp290
ag14
((lp291
I98
aI93
atp292
Rp293
ag14
((lp294
I98
aI92
atp295
Rp296
ag14
((lp297
tp298
Rp299
ag14
((lp300
tp301
Rp302
ag14
((lp303
tp304
Rp305
ag14
((lp306
I-90
atp307
Rp308
ag14
((lp309
I92
aI93
atp310
Rp311
ag14
((lp312
tp313
Rp314
ag14
((lp315
tp316
Rp317
ag14
((lp318
tp319
Rp320
ag14
((lp321
tp322
Rp323
ag14
((lp324
I104
atp325
Rp326
ag14
((lp327
I103
atp328
Rp329
ag14
((lp330
tp331
Rp332
ag14
((lp333
tp334
Rp335
ag14
((lp336
tp337
Rp338
ag14
((lp339
tp340
Rp341
ag14
((lp342
I111
atp343
Rp344
ag14
((lp345
tp346
Rp347
ag14
((lp348
I109
atp349
Rp350
ag14
((lp351
tp352
Rp353
ag14
((lp354
I-103
atp355
Rp356
ag14
((lp357
tp358
Rp359
ag14
((lp360
tp361
Rp362
ag14
((lp363
tp364
Rp365
ag14
((lp366
I-116
aI118
atp367
Rp368
ag14
((lp369
I-116
aI117
atp370
Rp371
ag14
((lp372
I120
aI122
atp373
Rp374
ag14
((lp375
I122
aI-114
aI119
atp376
Rp377
ag14
((lp378
tp379
Rp380
ag14
((lp381
I120
aI119
atp382
Rp383
ag14
((lp384
tp385
Rp386
ag14
((lp387
tp388
Rp389
ag14
((lp390
I-119
aI-124
atp391
Rp392
ag14
((lp393
I127
atp394
Rp395
ag14
((lp396
I126
atp397
Rp398
ag14
((lp399
tp400
Rp401
ag14
((lp402
tp403
Rp404
ag14
((lp405
tp406
Rp407
ag14
((lp408
tp409
Rp410
ag14
((lp411
tp412
Rp413
ag14
((lp414
tp415
Rp416
ag14
((lp417
tp418
Rp419
ag14
((lp420
I-128
aI-127
aI-125
aI-123
aI-121
aI-120
aI137
aI138
aI139
aI140
aI142
aI143
aI-112
aI-110
aI-109
aI148
aI149
aI150
aI-105
aI-104
aI-102
aI-101
aI-100
aI-99
aI-98
aI-97
aI-96
aI-95
aI-94
aI-91
aI-89
aI-88
aI-87
aI-86
aI-85
aI-80
aI136
aI-118
aI-59
aI-113
aI144
aI146
aI-106
aI147
aI-107
aI-133
aI-132
aI-131
aI-130
aI-129
atp421
Rp422
ag14
((lp423
I-128
aI-127
aI-125
aI150
aI135
aI-120
aI137
aI-118
aI139
aI140
aI142
aI143
aI144
aI-110
aI147
aI148
aI149
aI-106
aI-105
aI-104
aI-102
aI-101
aI-100
aI-99
aI-98
aI-123
aI-96
aI-95
aI-94
aI-91
aI-89
aI-88
aI-87
aI-86
aI-85
aI-80
aI-97
aI138
aI-59
aI-121
aI-113
aI-112
aI146
aI-109
aI-107
aI-133
aI-132
aI-131
aI-130
aI-129
atp424
Rp425
ag14
((lp426
I-128
aI-127
aI-125
aI150
aI-121
aI136
aI-118
aI139
aI140
aI142
aI143
aI-112
aI-110
aI147
aI148
aI149
aI-106
aI-105
aI-104
aI-102
aI-101
aI-100
aI-99
aI-98
aI-123
aI-96
aI-95
aI-94
aI-91
aI-89
aI-88
aI-87
aI-86
aI-85
aI-80
aI-120
aI-97
aI138
aI-59
aI-113
aI135
aI144
aI146
aI-109
aI-107
aI-133
aI-132
aI-131
aI-130
aI-129
atp427
Rp428
ag14
((lp429
I-128
aI-127
aI-125
aI-106
aI-121
aI136
aI137
aI-118
aI139
aI140
aI142
aI-113
aI144
aI-110
aI-109
aI148
aI149
aI150
aI-105
aI-104
aI-102
aI-101
aI-100
aI-99
aI-98
aI-123
aI-96
aI-95
aI-94
aI-91
aI-89
aI-88
aI-87
aI-86
aI-85
aI-80
aI-120
aI-97
aI-59
aI143
aI135
aI-112
aI146
aI147
aI-107
aI-133
aI-132
aI-131
aI-130
aI-129
atp430
Rp431
ag14
((lp432
I-128
aI-127
aI-125
aI-106
aI-121
aI-120
aI137
aI-118
aI140
aI142
aI-113
aI-112
aI-110
aI-109
aI148
aI149
aI150
aI-105
aI-104
aI-102
aI-101
aI-100
aI-99
aI-98
aI-123
aI-96
aI-95
aI-94
aI-91
aI-89
aI-88
aI-87
aI-86
aI-85
aI-80
aI136
aI-97
aI138
aI-59
aI143
aI135
aI144
aI-129
aI146
aI147
aI-133
aI-132
aI-131
aI-130
aI-107
atp433
Rp434
ag14
((lp435
I-128
aI-127
aI-125
aI-123
aI135
aI136
aI137
aI138
aI139
aI142
aI-113
aI144
aI-110
aI-109
aI148
aI149
aI-106
aI-105
aI-104
aI-102
aI-101
aI-100
aI-99
aI-98
aI-97
aI-96
aI-95
aI-94
aI-91
aI-89
aI-88
aI-87
aI-86
aI-85
aI-80
aI-120
aI-118
aI-59
aI-121
aI143
aI-112
aI-129
aI146
aI147
aI150
aI-133
aI-132
aI-131
aI-130
aI-107
atp436
Rp437
ag14
((lp438
tp439
Rp440
ag14
((lp441
I-128
aI-127
aI-125
aI-123
aI-121
aI-120
aI137
aI-118
aI139
aI140
aI-113
aI-112
aI146
aI147
aI148
aI149
aI150
aI-105
aI-104
aI-102
aI-101
aI-100
aI-99
aI-98
aI-97
aI-96
aI-95
aI-94
aI-91
aI-89
aI-88
aI-87
aI-86
aI-85
aI-80
aI136
aI138
aI-59
aI143
aI135
aI144
aI-110
aI-106
aI-109
aI-107
aI-133
aI-132
aI-131
aI-130
aI-129
atp442
Rp443
ag14
((lp444
I-128
aI-127
aI-125
aI-106
aI135
aI-120
aI137
aI-118
aI139
aI140
aI142
aI-113
aI144
aI146
aI147
aI148
aI149
aI150
aI-105
aI-104
aI-102
aI-101
aI-100
aI-99
aI-98
aI-97
aI-96
aI-95
aI-94
aI-91
aI-89
aI-88
aI-87
aI-86
aI-85
aI-80
aI136
aI138
aI-59
aI-121
aI-112
aI-129
aI-110
aI-109
aI-123
aI-133
aI-132
aI-131
aI-130
aI-107
atp445
Rp446
ag14
((lp447
I-128
aI-127
aI-125
aI-123
aI-121
aI136
aI137
aI138
aI139
aI140
aI142
aI-113
aI-112
aI146
aI147
aI148
aI149
aI-106
aI-105
aI-104
aI-102
aI-101
aI-100
aI-99
aI-98
aI-97
aI-96
aI-95
aI-94
aI-91
aI-89
aI-88
aI-87
aI-86
aI-85
aI-80
aI-120
aI-118
aI-59
aI143
aI135
aI-110
aI-109
aI150
aI-107
aI-133
aI-132
aI-131
aI-130
aI-129
atp448
Rp449
ag14
((lp450
I-134
atp451
Rp452
ag14
((lp453
I-128
aI-127
aI-125
aI-123
aI-121
aI-120
aI137
aI138
aI139
aI140
aI142
aI143
aI144
aI-110
aI-109
aI148
aI149
aI-106
aI-105
aI-104
aI-102
aI-101
aI-100
aI-99
aI150
aI-97
aI-96
aI-95
aI-94
aI-91
aI-89
aI-88
aI-87
aI-86
aI-85
aI-80
aI136
aI-98
aI-118
aI-59
aI-113
aI135
aI-112
aI147
aI-107
aI-133
aI-132
aI-131
aI-130
aI-129
atp454
Rp455
ag14
((lp456
I-128
aI-127
aI-125
aI-106
aI-121
aI-120
aI137
aI-118
aI139
aI140
aI142
aI143
aI144
aI-110
aI-109
aI148
aI149
aI150
aI-105
aI-104
aI-102
aI-101
aI-100
aI-99
aI-98
aI-123
aI-96
aI-95
aI-94
aI-91
aI-89
aI-88
aI-87
aI-86
aI-85
aI-80
aI136
aI-97
aI138
aI-59
aI-113
aI135
aI-112
aI146
aI-107
aI-133
aI-132
aI-131
aI-130
aI-129
atp457
Rp458
ag14
((lp459
I-128
aI-127
aI-125
aI-123
aI135
aI136
aI137
aI-118
aI139
aI140
aI142
aI143
aI144
aI146
aI147
aI-107
aI150
aI-105
aI-104
aI-102
aI-101
aI-100
aI-99
aI-98
aI-97
aI-96
aI-95
aI-94
aI-91
aI-89
aI-88
aI-87
aI-86
aI-85
aI-80
aI-120
aI138
aI-59
aI-121
aI-113
aI-112
aI-110
aI-106
aI-109
aI-133
aI-132
aI-131
aI-130
aI-129
atp460
Rp461
ag14
((lp462
I-128
aI-127
aI-125
aI150
aI135
aI136
aI137
aI138
aI139
aI140
aI142
aI-113
aI144
aI-110
aI-109
aI-106
aI-105
aI-104
aI-102
aI-101
aI-100
aI-99
aI-98
aI-97
aI-96
aI-95
aI-91
aI-89
aI-88
aI-87
aI-86
aI-85
aI-80
aI-120
aI-118
aI-59
aI-121
aI143
aI-112
aI-129
aI146
aI147
aI-123
aI-133
aI-132
aI-131
aI-130
aI-107
atp463
Rp464
ag14
((lp465
I-128
aI-127
aI-125
aI-123
aI-121
aI-120
aI137
aI-118
aI139
aI140
aI142
aI143
aI144
aI-110
aI147
aI148
aI149
aI-106
aI-105
aI-104
aI-102
aI-101
aI-100
aI-99
aI-98
aI-97
aI-96
aI-95
aI-94
aI-91
aI-89
aI-88
aI-87
aI-86
aI-85
aI-80
aI136
aI138
aI-59
aI-113
aI135
aI-112
aI146
aI-109
aI-107
aI-133
aI-132
aI-131
aI-130
aI-129
atp466
Rp467
ag14
((lp468
I-136
atp469
Rp470
ag14
((lp471
I-141
aI-138
atp472
Rp473
ag14
((lp474
I-149
atp475
Rp476
ag14
((lp477
I-149
aI-148
atp478
Rp479
ag14
((lp480
tp481
Rp482
ag14
((lp483
I160
aI161
aI157
aI158
aI159
atp484
Rp485
ag14
((lp486
I160
aI161
aI-153
aI156
aI158
aI159
atp487
Rp488
ag14
((lp489
I160
aI161
aI-153
aI156
aI157
aI159
atp490
Rp491
ag14
((lp492
I160
aI161
aI156
aI157
aI158
atp493
Rp494
ag14
((lp495
I161
aI156
aI157
aI158
aI159
atp496
Rp497
ag14
((lp498
I160
aI156
aI157
aI158
aI159
atp499
Rp500
ag14
((lp501
tp502
Rp503
ag14
((lp504
tp505
Rp506
ag14
((lp507
tp508
Rp509
ag14
((lp510
tp511
Rp512
ag14
((lp513
tp514
Rp515
ag14
((lp516
I168
atp517
Rp518
ag14
((lp519
I167
atp520
Rp521
ag14
((lp522
tp523
Rp524
ag14
((lp525
tp526
Rp527
ag14
((lp528
tp529
Rp530
ag14
((lp531
I-170
atp532
Rp533
ag14
((lp534
I-167
aI-171
atp535
Rp536
ag14
((lp537
tp538
Rp539
ag14
((lp540
tp541
Rp542
ag14
((lp543
tp544
Rp545
ag14
((lp546
tp547
Rp548
ag14
((lp549
tp550
Rp551
ag14
((lp552
tp553
Rp554
ag14
((lp555
tp556
Rp557
ag14
((lp558
tp559
Rp560
ag14
((lp561
tp562
Rp563
ag14
((lp564
tp565
Rp566
ag14
((lp567
tp568
Rp569
ag14
((lp570
tp571
Rp572
ag14
((lp573
tp574
Rp575
ag14
((lp576
tp577
Rp578
ag14
((lp579
tp580
Rp581
ag14
((lp582
I-187
aI190
atp583
Rp584
ag14
((lp585
I189
aI-187
atp586
Rp587
ag14
((lp588
tp589
Rp590
ag14
((lp591
tp592
Rp593
ag14
((lp594
tp595
Rp596
ag14
((lp597
tp598
Rp599
ag14
((lp600
tp601
Rp602
ag14
((lp603
tp604
Rp605
ag14
((lp606
tp607
Rp608
ag14
((lp609
tp610
Rp611
ag14
((lp612
I200
aI201
atp613
Rp614
ag14
((lp615
I201
aI199
atp616
Rp617
ag14
((lp618
I200
aI199
atp619
Rp620
ag14
((lp621
tp622
Rp623
ag14
((lp624
tp625
Rp626
ag14
((lp627
tp628
Rp629
ag14
((lp630
tp631
Rp632
ag14
((lp633
tp634
Rp635
ag14
((lp636
tp637
Rp638
ag14
((lp639
tp640
Rp641
ag14
((lp642
tp643
Rp644
ag14
((lp645
tp646
Rp647
ag14
((lp648
tp649
Rp650
ag14
((lp651
I-45
aI-122
atp652
Rp653
ag14
((lp654
tp655
Rp656
ag14
((lp657
tp658
Rp659
ag14
((lp660
tp661
Rp662
ag14
((lp663
tp664
Rp665
ag14
((lp666
tp667
Rp668
ag14
((lp669
tp670
Rp671
ag14
((lp672
tp673
Rp674
ag14
((lp675
I190
aI189
atp676
Rp677
ag14
((lp678
tp679
Rp680
ag14
((lp681
tp682
Rp683
ag14
((lp684
tp685
Rp686
ag14
((lp687
tp688
Rp689
ag14
((lp690
tp691
Rp692
ag14
((lp693
tp694
Rp695
ag14
((lp696
tp697
Rp698
ag14
((lp699
tp700
Rp701
ag14
((lp702
tp703
Rp704
ag14
((lp705
tp706
Rp707
ag14
((lp708
tp709
Rp710
ag14
((lp711
tp712
Rp713
ag14
((lp714
tp715
Rp716
ag14
((lp717
tp718
Rp719
ag14
((lp720
tp721
Rp722
ag14
((lp723
I-167
aI173
atp724
Rp725
ag14
((lp726
I172
atp727
Rp728
ag14
((lp729
tp730
Rp731
ag14
((lp732
tp733
Rp734
ag14
((lp735
I-171
aI173
atp736
Rp737
ag14
((lp738
tp739
Rp740
ag14
((lp741
tp742
Rp743
ag14
((lp744
tp745
Rp746
ag14
((lp747
tp748
Rp749
ag14
((lp750
tp751
Rp752
ag14
((lp753
tp754
Rp755
ag14
((lp756
tp757
Rp758
ag14
((lp759
I-150
atp760
Rp761
ag14
((lp762
tp763
Rp764
ag14
((lp765
tp766
Rp767
ag14
((lp768
tp769
Rp770
ag14
((lp771
I-154
atp772
Rp773
ag14
((lp774
I-155
atp775
Rp776
ag14
((lp777
I157
aI158
atp778
Rp779
ag14
((lp780
I-144
atp781
Rp782
ag14
((lp783
tp784
Rp785
ag14
((lp786
I-159
atp787
Rp788
ag14
((lp789
I153
aI154
aI-148
atp790
Rp791
ag14
((lp792
I154
aI-149
atp793
Rp794
ag14
((lp795
tp796
Rp797
ag14
((lp798
tp799
Rp800
ag14
((lp801
tp802
Rp803
ag14
((lp804
I-152
atp805
Rp806
ag14
((lp807
tp808
Rp809
ag14
((lp810
tp811
Rp812
ag14
((lp813
I152
aI-138
atp814
Rp815
ag14
((lp816
tp817
Rp818
ag14
((lp819
tp820
Rp821
ag14
((lp822
I152
aI-141
atp823
Rp824
ag14
((lp825
tp826
Rp827
ag14
((lp828
I151
atp829
Rp830
ag14
((lp831
tp832
Rp833
ag14
((lp834
I145
atp835
Rp836
ag14
((lp837
I-128
aI-127
aI-125
aI150
aI-121
aI136
aI137
aI-118
aI139
aI140
aI142
aI-113
aI144
aI146
aI-109
aI148
aI149
aI-106
aI-105
aI-104
aI-102
aI-101
aI-100
aI-99
aI-98
aI-97
aI-96
aI-95
aI-94
aI-91
aI-89
aI-88
aI-87
aI-86
aI-85
aI-80
aI-120
aI138
aI-59
aI143
aI135
aI-112
aI-129
aI-110
aI147
aI-123
aI-132
aI-131
aI-130
aI-107
atp838
Rp839
ag14
((lp840
I-128
aI-127
aI-125
aI-123
aI135
aI136
aI137
aI-118
aI139
aI140
aI142
aI143
aI144
aI146
aI147
aI148
aI149
aI-106
aI-105
aI-104
aI-102
aI-101
aI-100
aI-99
aI-98
aI-97
aI-96
aI-95
aI-94
aI-91
aI-89
aI-88
aI-87
aI-86
aI-85
aI-80
aI-120
aI138
aI-59
aI-121
aI-113
aI-112
aI-110
aI-109
aI150
aI-107
aI-133
aI-131
aI-130
aI-129
atp841
Rp842
ag14
((lp843
I-128
aI-127
aI-125
aI-106
aI135
aI-120
aI137
aI-118
aI139
aI140
aI142
aI-113
aI144
aI-110
aI-109
aI148
aI149
aI150
aI-105
aI-104
aI-102
aI-101
aI-100
aI-99
aI-98
aI-97
aI-96
aI-95
aI-94
aI-91
aI-89
aI-88
aI-87
aI-86
aI-85
aI-80
aI136
aI138
aI-59
aI-121
aI143
aI-112
aI-129
aI146
aI147
aI-123
aI-133
aI-132
aI-130
aI-107
atp844
Rp845
ag14
((lp846
I-128
aI-127
aI-125
aI-123
aI135
aI136
aI137
aI138
aI139
aI140
aI142
aI143
aI-112
aI146
aI-109
aI148
aI149
aI150
aI-105
aI-104
aI-102
aI-101
aI-100
aI-99
aI-98
aI-97
aI-96
aI-95
aI-94
aI-91
aI-89
aI-88
aI-87
aI-86
aI-85
aI-80
aI-120
aI-118
aI-59
aI-121
aI-113
aI144
aI-129
aI-110
aI-106
aI147
aI-133
aI-132
aI-131
aI-107
atp847
Rp848
ag14
((lp849
I-128
aI-127
aI-125
aI150
aI-121
aI136
aI137
aI-118
aI139
aI140
aI142
aI-113
aI-112
aI-110
aI-109
aI148
aI149
aI-106
aI-105
aI-104
aI-102
aI-101
aI-100
aI-99
aI-98
aI-123
aI-96
aI-95
aI-94
aI-91
aI-89
aI-88
aI-87
aI-86
aI-85
aI-80
aI-120
aI-97
aI138
aI-59
aI143
aI135
aI144
aI146
aI147
aI-107
aI-133
aI-132
aI-131
aI-130
atp850
Rp851
ag14
((lp852
I-127
aI-125
aI-106
aI135
aI-120
aI137
aI138
aI139
aI140
aI142
aI-113
aI-112
aI146
aI147
aI148
aI149
aI150
aI-105
aI-104
aI-102
aI-101
aI-100
aI-99
aI-98
aI-97
aI-96
aI-95
aI-94
aI-91
aI-89
aI-88
aI-87
aI-86
aI-85
aI-80
aI136
aI-118
aI-59
aI-121
aI143
aI144
aI-129
aI-110
aI-109
aI-123
aI-133
aI-132
aI-131
aI-130
aI-107
atp853
Rp854
ag14
((lp855
I-128
aI-125
aI-123
aI-121
aI136
aI137
aI-118
aI139
aI140
aI142
aI-113
aI144
aI-110
aI-109
aI148
aI149
aI-106
aI-105
aI-104
aI-102
aI-101
aI-100
aI-99
aI-98
aI-97
aI-96
aI-95
aI-94
aI-91
aI-89
aI-88
aI-87
aI-86
aI-85
aI-80
aI-120
aI138
aI-59
aI143
aI135
aI-112
aI146
aI147
aI150
aI-107
aI-133
aI-132
aI-131
aI-130
aI-129
atp856
Rp857
ag14
((lp858
tp859
Rp860
ag14
((lp861
I-128
aI-127
aI-123
aI135
aI-120
aI137
aI-118
aI139
aI140
aI142
aI-113
aI144
aI146
aI147
aI148
aI149
aI-106
aI-105
aI-104
aI-102
aI-101
aI-100
aI-99
aI-98
aI-97
aI-96
aI-95
aI-94
aI-91
aI-89
aI-88
aI-87
aI-86
aI-85
aI-80
aI136
aI138
aI-59
aI-121
aI143
aI-112
aI-129
aI-110
aI-109
aI150
aI-133
aI-132
aI-131
aI-130
aI-107
atp862
Rp863
ag14
((lp864
I-119
aI125
atp865
Rp866
ag14
((lp867
I-128
aI-127
aI-125
aI-106
aI135
aI-120
aI137
aI-118
aI139
aI140
aI142
aI-113
aI144
aI146
aI-109
aI148
aI149
aI150
aI-105
aI-104
aI-102
aI-101
aI-100
aI-99
aI-98
aI-97
aI-96
aI-95
aI-94
aI-91
aI-89
aI-88
aI-87
aI-86
aI-85
aI-80
aI136
aI138
aI-59
aI-121
aI143
aI-112
aI-129
aI-110
aI147
aI-133
aI-132
aI-131
aI-130
aI-107
atp868
Rp869
ag14
((lp870
I-45
aI-195
atp871
Rp872
ag14
((lp873
I-128
aI-127
aI-125
aI150
aI135
aI136
aI137
aI138
aI139
aI140
aI142
aI143
aI-112
aI-110
aI147
aI148
aI149
aI-106
aI-105
aI-104
aI-102
aI-101
aI-100
aI-99
aI-98
aI-123
aI-96
aI-95
aI-94
aI-91
aI-89
aI-88
aI-87
aI-86
aI-85
aI-80
aI-120
aI-97
aI-118
aI-59
aI-113
aI144
aI-129
aI146
aI-109
aI-133
aI-132
aI-131
aI-130
aI-107
atp874
Rp875
ag14
((lp876
I-128
aI-127
aI-125
aI150
aI135
aI136
aI137
aI-118
aI139
aI140
aI142
aI143
aI-112
aI146
aI147
aI148
aI149
aI-106
aI-105
aI-104
aI-102
aI-101
aI-100
aI-99
aI-98
aI-97
aI-96
aI-95
aI-94
aI-91
aI-89
aI-88
aI-87
aI-86
aI-85
aI-80
aI138
aI-59
aI-121
aI-107
aI-113
aI144
aI-110
aI-109
aI-123
aI-133
aI-132
aI-131
aI-130
aI-129
atp877
Rp878
ag14
((lp879
I-124
aI125
atp880
Rp881
ag14
((lp882
I-128
aI-127
aI-125
aI-106
aI-121
aI-120
aI137
aI138
aI139
aI140
aI142
aI143
aI-112
aI146
aI147
aI148
aI149
aI150
aI-105
aI-104
aI-102
aI-101
aI-100
aI-99
aI-98
aI-97
aI-96
aI-95
aI-94
aI-91
aI-89
aI-88
aI-87
aI-86
aI-85
aI-80
aI136
aI-59
aI-113
aI135
aI144
aI-129
aI-110
aI-109
aI-123
aI-133
aI-132
aI-131
aI-130
aI-107
atp883
Rp884
ag14
((lp885
tp886
Rp887
ag14
((lp888
I117
aI118
atp889
Rp890
ag14
((lp891
tp892
Rp893
ag14
((lp894
I120
atp895
Rp896
ag14
((lp897
I-128
aI-127
aI-125
aI-106
aI-121
aI136
aI137
aI138
aI139
aI140
aI142
aI143
aI144
aI-110
aI-109
aI148
aI149
aI150
aI-105
aI-104
aI-102
aI-101
aI-100
aI-99
aI-98
aI-123
aI-96
aI-95
aI-94
aI-91
aI-89
aI-88
aI-87
aI-86
aI-85
aI-80
aI-120
aI-97
aI-118
aI-59
aI135
aI-112
aI146
aI147
aI-107
aI-133
aI-132
aI-131
aI-130
aI-129
atp898
Rp899
ag14
((lp900
I-128
aI-127
aI-125
aI-123
aI-121
aI-120
aI137
aI-118
aI139
aI140
aI142
aI143
aI144
aI-110
aI-109
aI148
aI149
aI-106
aI-105
aI-104
aI-102
aI-101
aI-100
aI-99
aI-98
aI-97
aI-96
aI-95
aI-94
aI-91
aI-89
aI-88
aI-87
aI-86
aI-85
aI-80
aI136
aI138
aI-59
aI-113
aI135
aI146
aI147
aI150
aI-107
aI-133
aI-132
aI-131
aI-130
aI-129
atp901
Rp902
ag14
((lp903
tp904
Rp905
ag14
((lp906
I-128
aI-127
aI-125
aI-106
aI135
aI136
aI137
aI138
aI139
aI140
aI142
aI143
aI-112
aI146
aI-109
aI148
aI149
aI150
aI-105
aI-104
aI-102
aI-101
aI-100
aI-99
aI-98
aI-97
aI-96
aI-95
aI-94
aI-91
aI-89
aI-88
aI-87
aI-86
aI-85
aI-80
aI-120
aI-118
aI-59
aI-121
aI-107
aI-113
aI144
aI147
aI-123
aI-133
aI-132
aI-131
aI-130
aI-129
atp907
Rp908
ag14
((lp909
I-128
aI-127
aI-125
aI-123
aI135
aI-120
aI137
aI138
aI139
aI140
aI142
aI143
aI-112
aI146
aI147
aI148
aI149
aI-106
aI-105
aI-104
aI-102
aI-101
aI-100
aI-99
aI-98
aI-97
aI-96
aI-95
aI-94
aI-91
aI-89
aI-88
aI-87
aI-86
aI-85
aI-80
aI136
aI-118
aI-59
aI-121
aI-113
aI144
aI-129
aI-110
aI150
aI-133
aI-132
aI-131
aI-130
aI-107
atp910
Rp911
ag14
((lp912
tp913
Rp914
ag14
((lp915
I-128
aI-127
aI-125
aI-106
aI-121
aI136
aI137
aI138
aI139
aI140
aI142
aI-113
aI144
aI146
aI-109
aI148
aI149
aI150
aI-105
aI-104
aI-102
aI-101
aI-100
aI-99
aI-98
aI-97
aI-96
aI-95
aI-94
aI-91
aI-89
aI-88
aI-87
aI-86
aI-85
aI-80
aI-120
aI-118
aI-59
aI143
aI135
aI-112
aI-129
aI-110
aI147
aI-123
aI-133
aI-132
aI-131
aI-130
atp916
Rp917
ag14
((lp918
I-128
aI-127
aI-125
aI-123
aI-121
aI-120
aI137
aI-118
aI139
aI140
aI142
aI143
aI-112
aI-110
aI147
aI148
aI149
aI150
aI-105
aI-104
aI-102
aI-101
aI-100
aI-99
aI-98
aI-97
aI-96
aI-95
aI-94
aI-91
aI-89
aI-88
aI-87
aI-86
aI-85
aI-80
aI136
aI138
aI-59
aI-113
aI135
aI144
aI-129
aI146
aI-109
aI-133
aI-132
aI-131
aI-130
aI-107
atp919
Rp920
ag14
((lp921
I-128
aI-127
aI-125
aI-123
aI-121
aI136
aI137
aI138
aI139
aI140
aI142
aI143
aI-112
aI-110
aI-109
aI148
aI149
aI150
aI-104
aI-102
aI-101
aI-100
aI-99
aI-98
aI-97
aI-96
aI-95
aI-94
aI-91
aI-89
aI-88
aI-87
aI-86
aI-85
aI-80
aI-120
aI-118
aI-59
aI-113
aI135
aI144
aI-129
aI146
aI-106
aI147
aI-133
aI-132
aI-131
aI-130
aI-107
atp922
Rp923
ag14
((lp924
I-128
aI-127
aI-125
aI-123
aI135
aI-120
aI137
aI-118
aI139
aI140
aI142
aI143
aI-112
aI-110
aI-109
aI148
aI149
aI-106
aI-105
aI-102
aI-101
aI-100
aI-99
aI150
aI-97
aI-96
aI-95
aI-94
aI-91
aI-89
aI-88
aI-87
aI-86
aI-85
aI-80
aI136
aI-98
aI138
aI-59
aI-121
aI-113
aI144
aI-129
aI146
aI147
aI-133
aI-132
aI-131
aI-130
aI-107
atp925
Rp926
ag14
((lp927
I113
atp928
Rp929
ag14
((lp930
I-128
aI-127
aI-125
aI150
aI-121
aI-120
aI137
aI138
aI139
aI140
aI142
aI143
aI-112
aI-110
aI147
aI148
aI149
aI-106
aI-105
aI-104
aI-101
aI-100
aI-99
aI-98
aI-97
aI-96
aI-95
aI-94
aI-91
aI-89
aI-88
aI-87
aI-86
aI-85
aI-80
aI136
aI-118
aI-59
aI-113
aI135
aI144
aI-129
aI146
aI-109
aI-123
aI-133
aI-132
aI-131
aI-130
aI-107
atp931
Rp932
ag14
((lp933
I-128
aI-127
aI-125
aI-123
aI-121
aI136
aI137
aI-118
aI139
aI140
aI142
aI143
aI-112
aI-110
aI-109
aI148
aI149
aI150
aI-105
aI-104
aI-102
aI-100
aI-99
aI-98
aI-97
aI-96
aI-95
aI-94
aI-91
aI-89
aI-88
aI-87
aI-86
aI-85
aI-80
aI-120
aI138
aI-59
aI-113
aI135
aI144
aI-129
aI146
aI-106
aI147
aI-133
aI-132
aI-131
aI-130
aI-107
atp934
Rp935
ag14
((lp936
I-128
aI-127
aI-125
aI-123
aI135
aI-120
aI137
aI-118
aI139
aI140
aI142
aI-113
aI-112
aI146
aI-109
aI148
aI149
aI-106
aI-105
aI-104
aI-102
aI-101
aI-99
aI-98
aI-97
aI-96
aI-95
aI-94
aI-91
aI-89
aI-88
aI-87
aI-86
aI-85
aI-80
aI136
aI138
aI-59
aI-121
aI143
aI144
aI-110
aI147
aI150
aI-107
aI-133
aI-132
aI-131
aI-130
aI-129
atp937
Rp938
ag14
((lp939
I-128
aI-127
aI-125
aI-123
aI135
aI-120
aI137
aI138
aI139
aI140
aI142
aI143
aI144
aI-110
aI-109
aI148
aI149
aI-106
aI-105
aI-104
aI-102
aI-101
aI-100
aI-98
aI-97
aI-96
aI-95
aI-94
aI-91
aI-89
aI-88
aI-87
aI-86
aI-85
aI-80
aI136
aI-118
aI-59
aI-121
aI-113
aI-112
aI-129
aI146
aI147
aI150
aI-133
aI-132
aI-131
aI-130
aI-107
atp940
Rp941
ag14
((lp942
I-128
aI-127
aI-125
aI-123
aI135
aI-120
aI137
aI-118
aI139
aI140
aI142
aI-113
aI-112
aI-110
aI147
aI148
aI149
aI150
aI-105
aI-104
aI-102
aI-101
aI-100
aI-99
aI-97
aI-96
aI-95
aI-94
aI-91
aI-89
aI-88
aI-87
aI-86
aI-85
aI-80
aI136
aI138
aI-59
aI-121
aI143
aI144
aI146
aI-106
aI-109
aI-107
aI-133
aI-132
aI-131
aI-130
aI-129
atp943
Rp944
ag14
((lp945
I-128
aI-127
aI-125
aI-123
aI135
aI136
aI137
aI-118
aI139
aI140
aI142
aI143
aI144
aI146
aI-109
aI148
aI149
aI-106
aI-105
aI-104
aI-102
aI-101
aI-100
aI-99
aI-98
aI-96
aI-95
aI-94
aI-91
aI-89
aI-88
aI-87
aI-86
aI-85
aI-80
aI-120
aI138
aI-59
aI-121
aI-113
aI-112
aI-110
aI147
aI150
aI-107
aI-133
aI-132
aI-131
aI-130
aI-129
atp946
Rp947
ag14
((lp948
I-128
aI-127
aI-125
aI-106
aI-121
aI-120
aI137
aI138
aI139
aI140
aI142
aI143
aI144
aI146
aI147
aI148
aI149
aI150
aI-105
aI-104
aI-102
aI-101
aI-100
aI-99
aI-98
aI-97
aI-95
aI-94
aI-91
aI-89
aI-88
aI-87
aI-86
aI-85
aI-80
aI136
aI-118
aI-59
aI-107
aI-113
aI135
aI-112
aI-110
aI-109
aI-123
aI-133
aI-132
aI-131
aI-130
aI-129
atp949
Rp950
ag14
((lp951
I-128
aI-127
aI-125
aI-123
aI-121
aI-120
aI137
aI-118
aI139
aI140
aI142
aI-113
aI144
aI146
aI-109
aI148
aI149
aI-106
aI-105
aI-104
aI-102
aI-101
aI-100
aI-99
aI-98
aI-97
aI-96
aI-94
aI-91
aI-89
aI-88
aI-87
aI-86
aI-85
aI-80
aI136
aI138
aI-59
aI143
aI135
aI-112
aI-110
aI147
aI150
aI-107
aI-133
aI-132
aI-131
aI-130
aI-129
atp952
Rp953
ag14
((lp954
I-128
aI-127
aI-125
aI-123
aI-121
aI-120
aI137
aI138
aI139
aI140
aI142
aI-113
aI-112
aI146
aI-109
aI148
aI-107
aI-106
aI-105
aI-104
aI-102
aI-101
aI-100
aI-99
aI-98
aI-97
aI-96
aI-95
aI-91
aI-89
aI-88
aI-87
aI-86
aI-85
aI-80
aI136
aI-118
aI-59
aI143
aI135
aI144
aI-110
aI147
aI150
aI-133
aI-132
aI-131
aI-130
aI-129
atp955
Rp956
ag14
((lp957
tp958
Rp959
ag14
((lp960
tp961
Rp962
ag14
((lp963
I-128
aI-127
aI-125
aI-123
aI-121
aI136
aI137
aI-118
aI139
aI140
aI142
aI-113
aI-112
aI-110
aI-109
aI148
aI149
aI150
aI-105
aI-104
aI-102
aI-101
aI-100
aI-99
aI-98
aI-97
aI-96
aI-95
aI-94
aI-89
aI-88
aI-87
aI-86
aI-85
aI-80
aI-120
aI138
aI-59
aI143
aI135
aI144
aI-129
aI146
aI-106
aI147
aI-133
aI-132
aI-131
aI-130
aI-107
atp964
Rp965
ag14
((lp966
I97
atp967
Rp968
ag14
((lp969
I-128
aI-127
aI-125
aI150
aI-121
aI136
aI137
aI-118
aI139
aI140
aI142
aI-113
aI-112
aI146
aI147
aI148
aI149
aI-106
aI-105
aI-104
aI-102
aI-101
aI-100
aI-99
aI-98
aI-97
aI-96
aI-95
aI-94
aI-91
aI-88
aI-87
aI-86
aI-85
aI-80
aI-120
aI138
aI-59
aI143
aI135
aI144
aI-129
aI-110
aI-109
aI-123
aI-133
aI-132
aI-131
aI-130
aI-107
atp970
Rp971
ag14
((lp972
I-128
aI-127
aI-125
aI-123
aI149
aI135
aI-120
aI137
aI-118
aI139
aI140
aI142
aI-113
aI-112
aI-110
aI147
aI148
aI-107
aI150
aI-105
aI-104
aI-102
aI-101
aI-100
aI-99
aI-98
aI-97
aI-96
aI-95
aI-94
aI-91
aI-89
aI-87
aI-86
aI-85
aI-80
aI136
aI138
aI-59
aI-121
aI143
aI144
aI146
aI-106
aI-109
aI-133
aI-132
aI-131
aI-130
aI-129
atp973
Rp974
ag14
((lp975
I-128
aI-127
aI-125
aI-123
aI135
aI136
aI137
aI-118
aI139
aI140
aI142
aI-113
aI-112
aI146
aI147
aI148
aI149
aI-106
aI-105
aI-104
aI-102
aI-101
aI-100
aI-99
aI150
aI-97
aI-96
aI-95
aI-94
aI-91
aI-89
aI-88
aI-86
aI-85
aI-80
aI-120
aI-98
aI138
aI-59
aI-121
aI143
aI144
aI-129
aI-110
aI-109
aI-133
aI-132
aI-131
aI-130
aI-107
atp976
Rp977
ag14
((lp978
I-128
aI-127
aI-125
aI-123
aI149
aI-121
aI136
aI137
aI138
aI139
aI140
aI142
aI143
aI-112
aI-110
aI147
aI148
aI-107
aI-106
aI-105
aI-104
aI-102
aI-101
aI-100
aI-99
aI150
aI-97
aI-96
aI-95
aI-94
aI-91
aI-89
aI-88
aI-87
aI-85
aI-80
aI-120
aI-98
aI-118
aI-59
aI-113
aI135
aI144
aI146
aI-109
aI-133
aI-132
aI-131
aI-130
aI-129
atp979
Rp980
ag14
((lp981
I-128
aI-127
aI-125
aI-106
aI-121
aI-120
aI137
aI138
aI139
aI140
aI142
aI-113
aI-112
aI-110
aI147
aI148
aI149
aI150
aI-105
aI-104
aI-102
aI-101
aI-100
aI-99
aI-98
aI-97
aI-96
aI-95
aI-94
aI-91
aI-89
aI-88
aI-87
aI-86
aI-80
aI136
aI-118
aI-59
aI-107
aI143
aI135
aI144
aI146
aI-109
aI-123
aI-133
aI-132
aI-131
aI-130
aI-129
atp982
Rp983
ag14
((lp984
tp985
Rp986
ag14
((lp987
I-82
atp988
Rp989
ag14
((lp990
I-83
atp991
Rp992
ag14
((lp993
tp994
Rp995
ag14
((lp996
I-128
aI-127
aI-125
aI-123
aI135
aI136
aI137
aI138
aI139
aI140
aI142
aI143
aI-112
aI146
aI147
aI148
aI149
aI-106
aI-105
aI-104
aI-102
aI-101
aI-100
aI-99
aI150
aI-97
aI-96
aI-95
aI-94
aI-91
aI-89
aI-88
aI-87
aI-86
aI-85
aI-120
aI-98
aI-118
aI-59
aI-121
aI-113
aI144
aI-110
aI-109
aI-107
aI-133
aI-132
aI-131
aI-130
aI-129
atp997
Rp998
ag14
((lp999
tp1000
Rp1001
ag14
((lp1002
tp1003
Rp1004
ag14
((lp1005
I82
aI-57
atp1006
Rp1007
ag14
((lp1008
I-68
aI77
atp1009
Rp1010
ag14
((lp1011
I-68
aI77
atp1012
Rp1013
ag14
((lp1014
tp1015
Rp1016
ag14
((lp1017
tp1018
Rp1019
ag14
((lp1020
tp1021
Rp1022
ag14
((lp1023
I-56
aI81
atp1024
Rp1025
ag14
((lp1026
I-60
aI74
aI75
aI-52
aI-69
aI-67
aI-66
atp1027
Rp1028
ag14
((lp1029
I-60
aI74
aI75
aI-52
aI-70
aI-67
aI-66
atp1030
Rp1031
ag14
((lp1032
I-76
aI77
aI-75
atp1033
Rp1034
ag14
((lp1035
I-60
aI74
aI75
aI-52
aI-70
aI-69
aI-66
atp1036
Rp1037
ag14
((lp1038
I-60
aI73
aI74
aI75
aI-52
aI-70
aI-69
aI-67
atp1039
Rp1040
ag14
((lp1041
tp1042
Rp1043
ag14
((lp1044
I-63
aI69
atp1045
Rp1046
ag14
((lp1047
I-64
aI69
atp1048
Rp1049
ag14
((lp1050
tp1051
Rp1052
ag14
((lp1053
tp1054
Rp1055
ag14
((lp1056
I74
aI75
aI-52
aI-70
aI-69
aI-67
aI-66
atp1057
Rp1058
ag14
((lp1059
I-128
aI-127
aI-125
aI-123
aI135
aI136
aI137
aI-118
aI139
aI140
aI142
aI-113
aI144
aI146
aI-109
aI148
aI149
aI-106
aI-105
aI-104
aI-102
aI-101
aI-100
aI-99
aI-98
aI-97
aI-96
aI-95
aI-94
aI-91
aI-89
aI-88
aI-87
aI-86
aI-85
aI-80
aI-120
aI138
aI-121
aI143
aI-112
aI-110
aI147
aI150
aI-107
aI-133
aI-132
aI-131
aI-130
aI-129
atp1060
Rp1061
ag14
((lp1062
tp1063
Rp1064
ag14
((lp1065
I82
aI-77
atp1066
Rp1067
ag14
((lp1068
I81
aI-71
atp1069
Rp1070
ag14
((lp1071
tp1072
Rp1073
ag14
((lp1074
tp1075
Rp1076
ag14
((lp1077
tp1078
Rp1079
ag14
((lp1080
I-60
aI73
aI74
aI75
aI-70
aI-69
aI-67
aI-66
atp1081
Rp1082
ag14
((lp1083
I66
aI68
aI62
aI63
atp1084
Rp1085
ag14
((lp1086
tp1087
Rp1088
ag14
((lp1089
tp1090
Rp1091
ag14
((lp1092
I49
aI50
aI51
aI52
aI53
aI54
aI55
aI56
aI57
aI58
atp1093
Rp1094
ag14
((lp1095
tp1096
Rp1097
ag14
((lp1098
tp1099
Rp1100
ag14
((lp1101
I-195
aI-122
atp1102
Rp1103
ag14
((lp1104
tp1105
Rp1106
ag14
((lp1107
tp1108
Rp1109
ag14
((lp1110
tp1111
Rp1112
ag14
((lp1113
tp1114
Rp1115
ag14
((lp1116
tp1117
Rp1118
ag14
((lp1119
tp1120
Rp1121
ag14
((lp1122
tp1123
Rp1124
ag14
((lp1125
tp1126
Rp1127
ag14
((lp1128
tp1129
Rp1130
ag14
((lp1131
tp1132
Rp1133
ag14
((lp1134
tp1135
Rp1136
ag14
((lp1137
tp1138
Rp1139
ag14
((lp1140
I-31
atp1141
Rp1142
ag14
((lp1143
I-32
atp1144
Rp1145
ag14
((lp1146
tp1147
Rp1148
ag14
((lp1149
tp1150
Rp1151
ag14
((lp1152
tp1153
Rp1154
ag14
((lp1155
tp1156
Rp1157
ag14
((lp1158
tp1159
Rp1160
ag14
((lp1161
tp1162
Rp1163
ag14
((lp1164
tp1165
Rp1166
ag14
((lp1167
I24
atp1168
Rp1169
ag14
((lp1170
I-21
atp1171
Rp1172
ag14
((lp1173
I-22
atp1174
Rp1175
ag14
((lp1176
tp1177
Rp1178
ag14
((lp1179
tp1180
Rp1181
ag14
((lp1182
tp1183
Rp1184
ag14
((lp1185
I-8
atp1186
Rp1187
ag14
((lp1188
I19
aI20
aI21
aI-9
atp1189
Rp1190
ag14
((lp1191
tp1192
Rp1193
ag14
((lp1194
I16
atp1195
Rp1196
ag14
((lp1197
tp1198
Rp1199
ag14
((lp1200
tp1201
Rp1202
ag14
((lp1203
tp1204
Rp1205
ag14
((lp1206
tp1207
Rp1208
ag14
((lp1209
I-16
aI19
aI20
aI21
atp1210
Rp1211
ag14
((lp1212
I-17
atp1213
Rp1214
ag14
((lp1215
tp1216
Rp1217
ag14
((lp1218
I13
aI14
atp1219
Rp1220
ag14
((lp1221
tp1222
Rp1223
ag14
((lp1224
I11
atp1225
Rp1226
ag14
((lp1227
I4
aI5
aI6
aI7
aI9
aI10
aI-1
aI-2
atp1228
Rp1229
ag14
((lp1230
I4
aI5
aI6
aI7
aI9
aI10
aI-1
aI-3
atp1231
Rp1232
ag14
((lp1233
I4
aI5
aI6
aI7
aI9
aI10
aI-2
aI-3
atp1234
Rp1235
atp1236
b.