cnumpy.core.multiarray
_reconstruct
p0
(cnumpy
ndarray
p1
(I0
tp2
S'b'
p3
tp4
Rp5
(I1
(I283
tp6
cnumpy
dtype
p7
(S'O8'
p8
I0
I1
tp9
Rp10
(I3
S'|'
p11
NNNI-1
I-1
I63
tp12
bI00
(lp13
c__builtin__
set
p14
((lp15
tp16
Rp17
ag14
((lp18
tp19
Rp20
ag14
((lp21
tp22
Rp23
ag14
((lp24
tp25
Rp26
ag14
((lp27
I5
aI6
aI7
aI8
aI9
aI-3
aI-2
atp28
Rp29
ag14
((lp30
I4
aI6
aI7
aI8
aI9
aI-3
aI-2
atp31
Rp32
ag14
((lp33
I4
aI5
aI7
aI8
aI9
aI-3
aI-2
atp34
Rp35
ag14
((lp36
I4
aI5
aI6
aI8
aI9
aI-3
aI-2
atp37
Rp38
ag14
((lp39
I4
aI5
aI6
aI7
aI9
aI-3
aI-2
atp40
Rp41
ag14
((lp42
I4
aI5
aI6
aI7
aI8
aI-3
aI-2
atp43
Rp44
ag14
((lp45
I-7
atp46
Rp47
ag14
((lp48
tp49
Rp50
ag14
((lp51
I-11
atp52
Rp53
ag14
((lp54
tp55
Rp56
ag14
((lp57
tp58
Rp59
ag14
((lp60
tp61
Rp62
ag14
((lp63
tp64
Rp65
ag14
((lp66
tp67
Rp68
ag14
((lp69
tp70
Rp71
ag14
((lp72
tp73
Rp74
ag14
((lp75
I-19
aI-18
aI21
aI22
aI23
aI24
aI25
aI26
aI27
aI28
aI29
atp76
Rp77
ag14
((lp78
I-19
aI20
aI22
aI23
aI24
aI25
aI26
aI27
aI28
aI29
atp79
Rp80
ag14
((lp81
I-19
aI20
aI21
aI23
aI24
aI25
aI26
aI27
aI28
aI29
atp82
Rp83
ag14
((lp84
I-19
aI-18
aI20
aI21
aI22
aI24
aI25
aI26
aI27
aI28
aI29
atp85
Rp86
ag14
((lp87
I-19
aI-18
aI20
aI21
aI22
aI23
aI25
aI26
aI27
aI28
aI29
atp88
Rp89
ag14
((lp90
I-19
aI20
aI21
aI22
aI23
aI24
aI26
aI27
aI28
aI29
atp91
Rp92
ag14
((lp93
I-19
aI20
aI21
aI22
aI23
aI24
aI25
aI27
aI28
aI29
atp94
Rp95
ag14
((lp96
I-19
aI20
aI21
aI22
aI23
aI24
aI25
aI26
aI28
aI29
atp97
Rp98
ag14
((lp99
I-19
aI20
aI21
aI22
aI23
aI24
aI25
aI26
aI27
aI29
atp100
Rp101
ag14
((lp102
I-19
aI-18
aI20
aI21
aI22
aI23
aI24
aI25
aI26
aI27
aI28
atp103
Rp104
ag14
((lp105
I-20
atp106
Rp107
ag14
((lp108
tp109
Rp110
ag14
((lp111
tp112
Rp113
ag14
((lp114
tp115
Rp116
ag14
((lp117
tp118
Rp119
ag14
((lp120
tp121
Rp122
ag14
((lp123
tp124
Rp125
ag14
((lp126
tp127
Rp128
ag14
((lp129
I40
aI41
aI42
aI39
atp130
Rp131
ag14
((lp132
I40
aI41
aI42
aI38
atp133
Rp134
ag14
((lp135
I42
aI38
aI39
atp136
Rp137
ag14
((lp138
I42
aI38
aI39
atp139
Rp140
ag14
((lp141
I40
aI41
aI38
aI39
atp142
Rp143
ag14
((lp144
tp145
Rp146
ag14
((lp147
I48
aI-43
aI-38
aI-37
aI45
aI46
atp148
Rp149
ag14
((lp150
I48
aI-43
aI-38
aI-37
aI44
aI46
atp151
Rp152
ag14
((lp153
I48
aI-43
aI-38
aI-37
aI44
aI45
atp154
Rp155
ag14
((lp156
tp157
Rp158
ag14
((lp159
I-43
aI-38
aI-37
aI44
aI45
aI46
atp160
Rp161
ag14
((lp162
tp163
Rp164
ag14
((lp165
tp166
Rp167
ag14
((lp168
I-50
aI-49
aI-47
aI-46
aI52
aI53
aI54
aI55
aI-39
atp169
Rp170
ag14
((lp171
I-50
aI-49
aI-47
aI-46
aI51
aI53
aI54
aI55
aI-39
atp172
Rp173
ag14
((lp174
I-50
aI-49
aI-47
aI-46
aI51
aI52
aI54
aI55
aI-39
atp175
Rp176
ag14
((lp177
I-50
aI-49
aI-47
aI-46
aI51
aI52
aI53
aI55
aI-39
atp178
Rp179
ag14
((lp180
I-50
aI-49
aI-47
aI-46
aI51
aI52
aI53
aI54
aI-39
atp181
Rp182
ag14
((lp183
I-40
aI57
aI-53
atp184
Rp185
ag14
((lp186
I56
aI-40
aI-53
atp187
Rp188
ag14
((lp189
tp190
Rp191
ag14
((lp192
tp193
Rp194
ag14
((lp195
tp196
Rp197
ag14
((lp198
tp199
Rp200
ag14
((lp201
tp202
Rp203
ag14
((lp204
tp205
Rp206
ag14
((lp207
tp208
Rp209
ag14
((lp210
I-57
atp211
Rp212
ag14
((lp213
tp214
Rp215
ag14
((lp216
tp217
Rp218
ag14
((lp219
tp220
Rp221
ag14
((lp222
tp223
Rp224
ag14
((lp225
tp226
Rp227
ag14
((lp228
tp229
Rp230
ag14
((lp231
I75
atp232
Rp233
ag14
((lp234
I74
atp235
Rp236
ag14
((lp237
I73
atp238
Rp239
ag14
((lp240
I72
atp241
Rp242
ag14
((lp243
tp244
Rp245
ag14
((lp246
tp247
Rp248
ag14
((lp249
tp250
Rp251
ag14
((lp252
tp253
Rp254
ag14
((lp255
tp256
Rp257
ag14
((lp258
tp259
Rp260
ag14
((lp261
tp262
Rp263
ag14
((lp264
tp265
Rp266
ag14
((lp267
tp268
Rp269
ag14
((lp270
tp271
Rp272
ag14
((lp273
tp274
Rp275
ag14
((lp276
tp277
Rp278
ag14
((lp279
tp280
Rp281
ag14
((lp282
tp283
Rp284
ag14
((lp285
tp286
Rp287
ag14
((lp288
tp289
Rp290
ag14
((lp291
tp292
Rp293
ag14
((lp294
tp295
Rp296
ag14
((lp297
tp298
Rp299
ag14
((lp300
tp301
Rp302
ag14
((lp303
I-94
atp304
Rp305
ag14
((lp306
tp307
Rp308
ag14
((lp309
tp310
Rp311
ag14
((lp312
tp313
Rp314
ag14
((lp315
tp316
Rp317
ag14
((lp318
tp319
Rp320
ag14
((lp321
tp322
Rp323
ag14
((lp324
I-102
aI-101
aI-100
aI-99
aI-98
aI-97
aI-96
aI-95
aI-93
aI-92
aI-91
aI-90
aI-89
aI-88
aI-87
aI-86
aI-85
aI-83
aI-82
aI-81
aI-80
aI-79
aI-77
aI-76
aI-73
aI-72
aI-71
aI-70
aI-69
aI-68
aI-67
aI-66
aI-65
aI-64
aI-63
aI-62
aI-61
aI104
aI105
aI106
aI107
aI108
aI109
aI110
aI111
aI112
atp325
Rp326
ag14
((lp327
I-102
aI-101
aI-100
aI-99
aI-98
aI-97
aI-96
aI-95
aI-93
aI-92
aI-91
aI-90
aI-89
aI-88
aI-87
aI-86
aI-85
aI-83
aI-82
aI-81
aI-80
aI-79
aI-77
aI-76
aI-73
aI-72
aI-71
aI-70
aI-69
aI-68
aI-67
aI-66
aI-65
aI-64
aI-63
aI-62
aI-61
aI103
aI105
aI106
aI107
aI108
aI109
aI110
aI111
aI112
atp328
Rp329
ag14
((lp330
I-102
aI-101
aI-100
aI-99
aI-98
aI-97
aI-96
aI-95
aI-93
aI-92
aI-91
aI-90
aI-89
aI-88
aI-87
aI-86
aI-85
aI-83
aI-82
aI-81
aI-80
aI-79
aI-77
aI-76
aI-73
aI-72
aI-71
aI-70
aI-69
aI-68
aI-67
aI-66
aI-65
aI-64
aI-63
aI-62
aI-61
aI103
aI104
aI106
aI107
aI108
aI109
aI110
aI111
aI112
atp331
Rp332
ag14
((lp333
I-102
aI-101
aI-100
aI-99
aI-98
aI-97
aI-96
aI-95
aI-93
aI-92
aI-91
aI-90
aI-89
aI-88
aI-87
aI-86
aI-85
aI-83
aI-82
aI-81
aI-80
aI-79
aI-77
aI-76
aI-73
aI-72
aI-71
aI-70
aI-69
aI-68
aI-67
aI-66
aI-65
aI-64
aI-63
aI-62
aI-61
aI103
aI104
aI105
aI107
aI108
aI109
aI110
aI111
aI112
atp334
Rp335
ag14
((lp336
I-102
aI-101
aI-100
aI-99
aI-98
aI-97
aI-96
aI-95
aI-93
aI-92
aI-91
aI-90
aI-89
aI-88
aI-87
aI-86
aI-85
aI-83
aI-82
aI-81
aI-80
aI-79
aI-77
aI-76
aI-73
aI-72
aI-71
aI-70
aI-69
aI-68
aI-67
aI-66
aI-65
aI-64
aI-63
aI-62
aI-61
aI103
aI104
aI105
aI106
aI108
aI109
aI110
aI111
aI112
atp337
Rp338
ag14
((lp339
I-102
aI-101
aI-100
aI-99
aI-98
aI-97
aI-96
aI-95
aI-93
aI-92
aI-91
aI-90
aI-89
aI-88
aI-87
aI-86
aI-85
aI-83
aI-82
aI-81
aI-80
aI-79
aI-77
aI-76
aI-73
aI-72
aI-71
aI-70
aI-69
aI-68
aI-67
aI-66
aI-65
aI-64
aI-63
aI-62
aI-61
aI103
aI104
aI105
aI106
aI107
aI109
aI110
aI111
aI112
atp340
Rp341
ag14
((lp342
I-102
aI-101
aI-100
aI-99
aI-98
aI-97
aI-96
aI-95
aI-93
aI-92
aI-91
aI-90
aI-89
aI-88
aI-87
aI-86
aI-85
aI-83
aI-82
aI-81
aI-80
aI-79
aI-77
aI-76
aI-73
aI-72
aI-71
aI-70
aI-69
aI-68
aI-67
aI-66
aI-65
aI-64
aI-63
aI-62
aI-61
aI103
aI104
aI105
aI106
aI107
aI108
aI110
aI111
aI112
atp343
Rp344
ag14
((lp345
I-102
aI-101
aI-100
aI-99
aI-98
aI-97
aI-96
aI-95
aI-93
aI-92
aI-91
aI-90
aI-89
aI-88
aI-87
aI-86
aI-85
aI-83
aI-82
aI-81
aI-80
aI-79
aI-77
aI-76
aI-73
aI-72
aI-71
aI-70
aI-69
aI-68
aI-67
aI-66
aI-65
aI-64
aI-63
aI-62
aI-61
aI103
aI104
aI105
aI106
aI107
aI108
aI109
aI111
aI112
atp346
Rp347
ag14
((lp348
I-102
aI-101
aI-100
aI-99
aI-98
aI-97
aI-96
aI-95
aI-93
aI-92
aI-91
aI-90
aI-89
aI-88
aI-87
aI-86
aI-85
aI-83
aI-82
aI-81
aI-80
aI-79
aI-77
aI-76
aI-73
aI-72
aI-71
aI-70
aI-69
aI-68
aI-67
aI-66
aI-65
aI-64
aI-63
aI-62
aI-61
aI103
aI104
aI105
aI106
aI107
aI108
aI109
aI110
aI112
atp349
Rp350
ag14
((lp351
I-102
aI-101
aI-100
aI-99
aI-98
aI-97
aI-96
aI-95
aI-93
aI-92
aI-91
aI-90
aI-89
aI-88
aI-87
aI-86
aI-85
aI-83
aI-81
aI-80
aI-79
aI-77
aI-76
aI-73
aI-72
aI-71
aI-70
aI-69
aI-68
aI-67
aI-66
aI-65
aI-64
aI-63
aI-62
aI-61
aI103
aI104
aI105
aI106
aI107
aI108
aI109
aI110
aI111
atp352
Rp353
ag14
((lp354
tp355
Rp356
ag14
((lp357
tp358
Rp359
ag14
((lp360
tp361
Rp362
ag14
((lp363
I-74
aI-115
aI-114
aI-113
aI117
aI118
aI119
aI120
atp364
Rp365
ag14
((lp366
I118
aI-115
aI-114
aI-113
aI116
aI-74
aI119
aI120
atp367
Rp368
ag14
((lp369
I-74
aI-115
aI-114
aI-113
aI116
aI117
aI119
aI120
atp370
Rp371
ag14
((lp372
I-74
aI-115
aI-114
aI-113
aI116
aI117
aI118
aI120
atp373
Rp374
ag14
((lp375
I-74
aI-115
aI-114
aI-113
aI116
aI117
aI118
aI119
atp376
Rp377
ag14
((lp378
I-120
aI122
atp379
Rp380
ag14
((lp381
I-120
aI121
atp382
Rp383
ag14
((lp384
tp385
Rp386
ag14
((lp387
tp388
Rp389
ag14
((lp390
tp391
Rp392
ag14
((lp393
tp394
Rp395
ag14
((lp396
tp397
Rp398
ag14
((lp399
tp400
Rp401
ag14
((lp402
tp403
Rp404
ag14
((lp405
tp406
Rp407
ag14
((lp408
tp409
Rp410
ag14
((lp411
tp412
Rp413
ag14
((lp414
tp415
Rp416
ag14
((lp417
tp418
Rp419
ag14
((lp420
tp421
Rp422
ag14
((lp423
tp424
Rp425
ag14
((lp426
tp427
Rp428
ag14
((lp429
tp430
Rp431
ag14
((lp432
tp433
Rp434
ag14
((lp435
tp436
Rp437
ag14
((lp438
tp439
Rp440
ag14
((lp441
tp442
Rp443
ag14
((lp444
tp445
Rp446
ag14
((lp447
tp448
Rp449
ag14
((lp450
tp451
Rp452
ag14
((lp453
tp454
Rp455
ag14
((lp456
tp457
Rp458
ag14
((lp459
tp460
Rp461
ag14
((lp462
tp463
Rp464
ag14
((lp465
tp466
Rp467
ag14
((lp468
tp469
Rp470
ag14
((lp471
tp472
Rp473
ag14
((lp474
tp475
Rp476
ag14
((lp477
tp478
Rp479
ag14
((lp480
tp481
Rp482
ag14
((lp483
tp484
Rp485
ag14
((lp486
tp487
Rp488
ag14
((lp489
tp490
Rp491
ag14
((lp492
tp493
Rp494
ag14
((lp495
tp496
Rp497
ag14
((lp498
tp499
Rp500
ag14
((lp501
tp502
Rp503
ag14
((lp504
I121
aI122
atp505
Rp506
ag14
((lp507
tp508
Rp509
ag14
((lp510
I-112
aI-75
atp511
Rp512
ag14
((lp513
tp514
Rp515
ag14
((lp516
tp517
Rp518
ag14
((lp519
I-74
aI-114
aI-113
aI116
aI117
aI118
aI119
aI120
atp520
Rp521
ag14
((lp522
I-74
aI-115
aI-113
aI116
aI117
aI118
aI119
aI120
atp523
Rp524
ag14
((lp525
I-74
aI-115
aI-114
aI116
aI117
aI118
aI119
aI120
atp526
Rp527
ag14
((lp528
I-118
aI-75
atp529
Rp530
ag14
((lp531
tp532
Rp533
ag14
((lp534
tp535
Rp536
ag14
((lp537
tp538
Rp539
ag14
((lp540
tp541
Rp542
ag14
((lp543
tp544
Rp545
ag14
((lp546
tp547
Rp548
ag14
((lp549
tp550
Rp551
ag14
((lp552
tp553
Rp554
ag14
((lp555
tp556
Rp557
ag14
((lp558
I-101
aI-100
aI-99
aI-98
aI-97
aI-96
aI-95
aI-93
aI-92
aI-91
aI-90
aI-89
aI-88
aI-87
aI-86
aI-85
aI-83
aI-82
aI-81
aI-80
aI-79
aI-77
aI-76
aI-73
aI-72
aI-71
aI-70
aI-69
aI-68
aI-67
aI-66
aI-65
aI-64
aI-63
aI-62
aI-61
aI103
aI104
aI105
aI106
aI107
aI108
aI109
aI110
aI111
aI112
atp559
Rp560
ag14
((lp561
I-102
aI-100
aI-99
aI-98
aI-97
aI-96
aI-95
aI-93
aI-92
aI-91
aI-90
aI-89
aI-88
aI-87
aI-86
aI-85
aI-83
aI-82
aI-81
aI-80
aI-79
aI-77
aI-76
aI-73
aI-72
aI-71
aI-70
aI-69
aI-68
aI-67
aI-66
aI-65
aI-64
aI-63
aI-62
aI-61
aI103
aI104
aI105
aI106
aI107
aI108
aI109
aI110
aI111
aI112
atp562
Rp563
ag14
((lp564
I-102
aI-101
aI-99
aI-98
aI-97
aI-96
aI-95
aI-93
aI-92
aI-91
aI-90
aI-89
aI-88
aI-87
aI-86
aI-85
aI-83
aI-82
aI-81
aI-80
aI-79
aI-77
aI-76
aI-73
aI-72
aI-71
aI-70
aI-69
aI-68
aI-67
aI-66
aI-65
aI-64
aI-63
aI-62
aI-61
aI103
aI104
aI105
aI106
aI107
aI108
aI109
aI110
aI111
aI112
atp565
Rp566
ag14
((lp567
I-102
aI-101
aI-100
aI-98
aI-97
aI-96
aI-95
aI-93
aI-92
aI-91
aI-90
aI-89
aI-88
aI-87
aI-86
aI-85
aI-83
aI-82
aI-81
aI-80
aI-79
aI-77
aI-76
aI-73
aI-72
aI-71
aI-70
aI-69
aI-68
aI-67
aI-66
aI-65
aI-64
aI-63
aI-62
aI-61
aI103
aI104
aI105
aI106
aI107
aI108
aI109
aI110
aI111
aI112
atp568
Rp569
ag14
((lp570
I-102
aI-101
aI-100
aI-99
aI-97
aI-96
aI-95
aI-93
aI-92
aI-91
aI-90
aI-89
aI-88
aI-87
aI-86
aI-85
aI-83
aI-82
aI-81
aI-80
aI-79
aI-77
aI-76
aI-73
aI-72
aI-71
aI-70
aI-69
aI-68
aI-67
aI-66
aI-65
aI-64
aI-63
aI-62
aI-61
aI103
aI104
aI105
aI106
aI107
aI108
aI109
aI110
aI111
aI112
atp571
Rp572
ag14
((lp573
I-102
aI-101
aI-100
aI-99
aI-98
aI-96
aI-95
aI-93
aI-92
aI-91
aI-90
aI-89
aI-88
aI-87
aI-86
aI-85
aI-83
aI-82
aI-81
aI-80
aI-79
aI-77
aI-76
aI-73
aI-72
aI-71
aI-70
aI-69
aI-68
aI-67
aI-66
aI-65
aI-64
aI-63
aI-62
aI-61
aI103
aI104
aI105
aI106
aI107
aI108
aI109
aI110
aI111
aI112
atp574
Rp575
ag14
((lp576
I-102
aI-101
aI-100
aI-99
aI-98
aI-97
aI-95
aI-93
aI-92
aI-91
aI-90
aI-89
aI-88
aI-87
aI-86
aI-85
aI-83
aI-82
aI-81
aI-80
aI-79
aI-77
aI-76
aI-73
aI-72
aI-71
aI-70
aI-69
aI-68
aI-67
aI-66
aI-65
aI-64
aI-63
aI-62
aI-61
aI103
aI104
aI105
aI106
aI107
aI108
aI109
aI110
aI111
aI112
atp577
Rp578
ag14
((lp579
I-102
aI-101
aI-100
aI-99
aI-98
aI-97
aI-96
aI-93
aI-92
aI-91
aI-90
aI-89
aI-88
aI-87
aI-86
aI-85
aI-83
aI-82
aI-81
aI-80
aI-79
aI-77
aI-76
aI-73
aI-72
aI-71
aI-70
aI-69
aI-68
aI-67
aI-66
aI-65
aI-64
aI-63
aI-62
aI-61
aI103
aI104
aI105
aI106
aI107
aI108
aI109
aI110
aI111
aI112
atp580
Rp581
ag14
((lp582
I96
atp583
Rp584
ag14
((lp585
I-102
aI-101
aI-100
aI-99
aI-98
aI-97
aI-96
aI-95
aI-92
aI-91
aI-90
aI-89
aI-88
aI-87
aI-86
aI-85
aI-83
aI-82
aI-81
aI-80
aI-79
aI-77
aI-76
aI-73
aI-72
aI-71
aI-70
aI-69
aI-68
aI-67
aI-66
aI-65
aI-64
aI-63
aI-62
aI-61
aI103
aI104
aI105
aI106
aI107
aI108
aI109
aI110
aI111
aI112
atp586
Rp587
ag14
((lp588
I-102
aI-101
aI-100
aI-99
aI-98
aI-97
aI-96
aI-95
aI-93
aI-91
aI-90
aI-89
aI-88
aI-87
aI-86
aI-85
aI-83
aI-82
aI-81
aI-80
aI-79
aI-77
aI-76
aI-73
aI-72
aI-71
aI-70
aI-69
aI-68
aI-67
aI-66
aI-65
aI-64
aI-63
aI-62
aI-61
aI103
aI104
aI105
aI106
aI107
aI108
aI109
aI110
aI111
aI112
atp589
Rp590
ag14
((lp591
I-102
aI-101
aI-100
aI-99
aI-98
aI-97
aI-96
aI-95
aI-93
aI-92
aI-90
aI-89
aI-88
aI-87
aI-86
aI-85
aI-83
aI-82
aI-81
aI-80
aI-79
aI-77
aI-76
aI-73
aI-72
aI-71
aI-70
aI-69
aI-68
aI-67
aI-66
aI-65
aI-64
aI-63
aI-62
aI-61
aI103
aI104
aI105
aI106
aI107
aI108
aI109
aI110
aI111
aI112
atp592
Rp593
ag14
((lp594
I-102
aI-101
aI-100
aI-99
aI-98
aI-97
aI-96
aI-95
aI-93
aI-92
aI-91
aI-89
aI-88
aI-87
aI-86
aI-85
aI-83
aI-82
aI-81
aI-80
aI-79
aI-77
aI-76
aI-73
aI-72
aI-71
aI-70
aI-69
aI-68
aI-67
aI-66
aI-65
aI-64
aI-63
aI-62
aI-61
aI103
aI104
aI105
aI106
aI107
aI108
aI109
aI110
aI111
aI112
atp595
Rp596
ag14
((lp597
I-102
aI-101
aI-100
aI-99
aI-98
aI-97
aI-96
aI-95
aI-93
aI-92
aI-91
aI-90
aI-88
aI-87
aI-86
aI-85
aI-83
aI-82
aI-81
aI-80
aI-79
aI-77
aI-76
aI-73
aI-72
aI-71
aI-70
aI-69
aI-68
aI-67
aI-66
aI-65
aI-64
aI-63
aI-62
aI-61
aI103
aI104
aI105
aI106
aI107
aI108
aI109
aI110
aI111
aI112
atp598
Rp599
ag14
((lp600
I-102
aI-101
aI-100
aI-99
aI-98
aI-97
aI-96
aI-95
aI-93
aI-92
aI-91
aI-90
aI-89
aI-87
aI-86
aI-85
aI-83
aI-82
aI-81
aI-80
aI-79
aI-77
aI-76
aI-73
aI-72
aI-71
aI-70
aI-69
aI-68
aI-67
aI-66
aI-65
aI-64
aI-63
aI-62
aI-61
aI103
aI104
aI105
aI106
aI107
aI108
aI109
aI110
aI111
aI112
atp601
Rp602
ag14
((lp603
I-102
aI-101
aI-100
aI-99
aI-98
aI-97
aI-96
aI-95
aI-93
aI-92
aI-91
aI-90
aI-89
aI-88
aI-86
aI-85
aI-83
aI-82
aI-81
aI-80
aI-79
aI-77
aI-76
aI-73
aI-72
aI-71
aI-70
aI-69
aI-68
aI-67
aI-66
aI-65
aI-64
aI-63
aI-62
aI-61
aI103
aI104
aI105
aI106
aI107
aI108
aI109
aI110
aI111
aI112
atp604
Rp605
ag14
((lp606
I-102
aI-101
aI-100
aI-99
aI-98
aI-97
aI-96
aI-95
aI-93
aI-92
aI-91
aI-90
aI-89
aI-88
aI-87
aI-85
aI-83
aI-82
aI-81
aI-80
aI-79
aI-77
aI-76
aI-73
aI-72
aI-71
aI-70
aI-69
aI-68
aI-67
aI-66
aI-65
aI-64
aI-63
aI-62
aI-61
aI103
aI104
aI105
aI106
aI107
aI108
aI109
aI110
aI111
aI112
atp607
Rp608
ag14
((lp609
I-102
aI-101
aI-100
aI-99
aI-98
aI-97
aI-96
aI-95
aI-93
aI-92
aI-91
aI-90
aI-89
aI-88
aI-87
aI-86
aI-83
aI-82
aI-81
aI-80
aI-79
aI-77
aI-76
aI-73
aI-72
aI-71
aI-70
aI-69
aI-68
aI-67
aI-66
aI-65
aI-64
aI-63
aI-62
aI-61
aI103
aI104
aI105
aI106
aI107
aI108
aI109
aI110
aI111
aI112
atp610
Rp611
ag14
((lp612
tp613
Rp614
ag14
((lp615
I-102
aI-101
aI-100
aI-99
aI-98
aI-97
aI-96
aI-95
aI-93
aI-92
aI-91
aI-90
aI-89
aI-88
aI-87
aI-86
aI-85
aI-82
aI-81
aI-80
aI-79
aI-77
aI-76
aI-73
aI-72
aI-71
aI-70
aI-69
aI-68
aI-67
aI-66
aI-65
aI-64
aI-63
aI-62
aI-61
aI103
aI104
aI105
aI106
aI107
aI108
aI109
aI110
aI111
aI112
atp616
Rp617
ag14
((lp618
I-102
aI-101
aI-100
aI-99
aI-98
aI-97
aI-96
aI-95
aI-93
aI-92
aI-91
aI-90
aI-89
aI-88
aI-87
aI-86
aI-85
aI-83
aI-81
aI-80
aI-79
aI-77
aI-76
aI-73
aI-72
aI-71
aI-70
aI-69
aI-68
aI-67
aI-66
aI-65
aI-64
aI-63
aI-62
aI-61
aI103
aI104
aI105
aI106
aI107
aI108
aI109
aI110
aI111
atp619
Rp620
ag14
((lp621
I-102
aI-101
aI-100
aI-99
aI-98
aI-97
aI-96
aI-95
aI-93
aI-92
aI-91
aI-90
aI-89
aI-88
aI-87
aI-86
aI-85
aI-83
aI-82
aI-80
aI-79
aI-77
aI-76
aI-73
aI-72
aI-71
aI-70
aI-69
aI-68
aI-67
aI-66
aI-65
aI-64
aI-63
aI-62
aI-61
aI103
aI104
aI105
aI106
aI107
aI108
aI109
aI110
aI111
aI112
atp622
Rp623
ag14
((lp624
I-102
aI-101
aI-100
aI-99
aI-98
aI-97
aI-96
aI-95
aI-93
aI-92
aI-91
aI-90
aI-89
aI-88
aI-87
aI-86
aI-85
aI-83
aI-82
aI-81
aI-79
aI-77
aI-76
aI-73
aI-72
aI-71
aI-70
aI-69
aI-68
aI-67
aI-66
aI-65
aI-64
aI-63
aI-62
aI-61
aI103
aI104
aI105
aI106
aI107
aI108
aI109
aI110
aI111
aI112
atp625
Rp626
ag14
((lp627
I-102
aI-101
aI-100
aI-99
aI-98
aI-97
aI-96
aI-95
aI-93
aI-92
aI-91
aI-90
aI-89
aI-88
aI-87
aI-86
aI-85
aI-83
aI-82
aI-81
aI-80
aI-77
aI-76
aI-73
aI-72
aI-71
aI-70
aI-69
aI-68
aI-67
aI-66
aI-65
aI-64
aI-63
aI-62
aI-61
aI103
aI104
aI105
aI106
aI107
aI108
aI109
aI110
aI111
aI112
atp628
Rp629
ag14
((lp630
tp631
Rp632
ag14
((lp633
I-102
aI-101
aI-100
aI-99
aI-98
aI-97
aI-96
aI-95
aI-93
aI-92
aI-91
aI-90
aI-89
aI-88
aI-87
aI-86
aI-85
aI-83
aI-82
aI-81
aI-80
aI-79
aI-76
aI-73
aI-72
aI-71
aI-70
aI-69
aI-68
aI-67
aI-66
aI-65
aI-64
aI-63
aI-62
aI-61
aI103
aI104
aI105
aI106
aI107
aI108
aI109
aI110
aI111
aI112
atp634
Rp635
ag14
((lp636
I-102
aI-101
aI-100
aI-99
aI-98
aI-97
aI-96
aI-95
aI-93
aI-92
aI-91
aI-90
aI-89
aI-88
aI-87
aI-86
aI-85
aI-83
aI-82
aI-81
aI-80
aI-79
aI-77
aI-73
aI-72
aI-71
aI-70
aI-69
aI-68
aI-67
aI-66
aI-65
aI-64
aI-63
aI-62
aI-61
aI103
aI104
aI105
aI106
aI107
aI108
aI109
aI110
aI111
aI112
atp637
Rp638
ag14
((lp639
I-112
aI-118
atp640
Rp641
ag14
((lp642
I118
aI-115
aI-114
aI-113
aI116
aI117
aI119
aI120
atp643
Rp644
ag14
((lp645
I-102
aI-101
aI-100
aI-99
aI-98
aI-97
aI-96
aI-95
aI-93
aI-92
aI-91
aI-90
aI-89
aI-88
aI-87
aI-86
aI-85
aI-83
aI-82
aI-81
aI-80
aI-79
aI-77
aI-76
aI-72
aI-71
aI-70
aI-69
aI-68
aI-67
aI-66
aI-65
aI-64
aI-63
aI-62
aI-61
aI103
aI104
aI105
aI106
aI107
aI108
aI109
aI110
aI111
aI112
atp646
Rp647
ag14
((lp648
I-102
aI-101
aI-100
aI-99
aI-98
aI-97
aI-96
aI-95
aI-93
aI-92
aI-91
aI-90
aI-89
aI-88
aI-87
aI-86
aI-85
aI-83
aI-82
aI-81
aI-80
aI-79
aI-77
aI-76
aI-73
aI-71
aI-70
aI-69
aI-68
aI-67
aI-66
aI-65
aI-64
aI-63
aI-62
aI-61
aI103
aI104
aI105
aI106
aI107
aI108
aI109
aI110
aI111
aI112
atp649
Rp650
ag14
((lp651
I-102
aI-101
aI-100
aI-99
aI-98
aI-97
aI-96
aI-95
aI-93
aI-92
aI-91
aI-90
aI-89
aI-88
aI-87
aI-86
aI-85
aI-83
aI-82
aI-81
aI-80
aI-79
aI-77
aI-76
aI-73
aI-72
aI-70
aI-69
aI-68
aI-67
aI-66
aI-65
aI-64
aI-63
aI-62
aI-61
aI103
aI104
aI105
aI106
aI107
aI108
aI109
aI110
aI111
aI112
atp652
Rp653
ag14
((lp654
I-102
aI-101
aI-100
aI-99
aI-98
aI-97
aI-96
aI-95
aI-93
aI-92
aI-91
aI-90
aI-89
aI-88
aI-87
aI-86
aI-85
aI-83
aI-82
aI-81
aI-80
aI-79
aI-77
aI-76
aI-73
aI-72
aI-71
aI-69
aI-68
aI-67
aI-66
aI-65
aI-64
aI-63
aI-62
aI-61
aI103
aI104
aI105
aI106
aI107
aI108
aI109
aI110
aI111
aI112
atp655
Rp656
ag14
((lp657
I-102
aI-101
aI-100
aI-99
aI-98
aI-97
aI-96
aI-95
aI-93
aI-92
aI-91
aI-90
aI-89
aI-88
aI-87
aI-86
aI-85
aI-83
aI-82
aI-81
aI-80
aI-79
aI-77
aI-76
aI-73
aI-72
aI-71
aI-70
aI-68
aI-67
aI-66
aI-65
aI-64
aI-63
aI-62
aI-61
aI103
aI104
aI105
aI106
aI107
aI108
aI109
aI110
aI111
aI112
atp658
Rp659
ag14
((lp660
I-102
aI-101
aI-100
aI-99
aI-98
aI-97
aI-96
aI-95
aI-93
aI-92
aI-91
aI-90
aI-89
aI-88
aI-87
aI-86
aI-85
aI-83
aI-82
aI-81
aI-80
aI-79
aI-77
aI-76
aI-73
aI-72
aI-71
aI-70
aI-69
aI-67
aI-66
aI-65
aI-64
aI-63
aI-62
aI-61
aI103
aI104
aI105
aI106
aI107
aI108
aI109
aI110
aI111
aI112
atp661
Rp662
ag14
((lp663
I-102
aI-101
aI-100
aI-99
aI-98
aI-97
aI-96
aI-95
aI-93
aI-92
aI-91
aI-90
aI-89
aI-88
aI-87
aI-86
aI-85
aI-83
aI-82
aI-81
aI-80
aI-79
aI-77
aI-76
aI-73
aI-72
aI-71
aI-70
aI-69
aI-68
aI-66
aI-65
aI-64
aI-63
aI-62
aI-61
aI103
aI104
aI105
aI106
aI107
aI108
aI109
aI110
aI111
aI112
atp664
Rp665
ag14
((lp666
I-102
aI-101
aI-100
aI-99
aI-98
aI-97
aI-96
aI-95
aI-93
aI-92
aI-91
aI-90
aI-89
aI-88
aI-87
aI-86
aI-85
aI-83
aI-82
aI-81
aI-80
aI-79
aI-77
aI-76
aI-73
aI-72
aI-71
aI-70
aI-69
aI-68
aI-67
aI-65
aI-64
aI-63
aI-62
aI-61
aI103
aI104
aI105
aI106
aI107
aI108
aI109
aI110
aI111
aI112
atp667
Rp668
ag14
((lp669
I-102
aI-101
aI-100
aI-99
aI-98
aI-97
aI-96
aI-95
aI-93
aI-92
aI-91
aI-90
aI-89
aI-88
aI-87
aI-86
aI-85
aI-83
aI-82
aI-81
aI-80
aI-79
aI-77
aI-76
aI-73
aI-72
aI-71
aI-70
aI-69
aI-68
aI-67
aI-66
aI-64
aI-63
aI-62
aI-61
aI103
aI104
aI105
aI106
aI107
aI108
aI109
aI110
aI111
aI112
atp670
Rp671
ag14
((lp672
I-102
aI-101
aI-100
aI-99
aI-98
aI-97
aI-96
aI-95
aI-93
aI-92
aI-91
aI-90
aI-89
aI-88
aI-87
aI-86
aI-85
aI-83
aI-82
aI-81
aI-80
aI-79
aI-77
aI-76
aI-73
aI-72
aI-71
aI-70
aI-69
aI-68
aI-67
aI-66
aI-65
aI-63
aI-62
aI-61
aI103
aI104
aI105
aI106
aI107
aI108
aI109
aI110
aI111
aI112
atp673
Rp674
ag14
((lp675
I-102
aI-101
aI-100
aI-99
aI-98
aI-97
aI-96
aI-95
aI-93
aI-92
aI-91
aI-90
aI-89
aI-88
aI-87
aI-86
aI-85
aI-83
aI-82
aI-81
aI-80
aI-79
aI-77
aI-76
aI-73
aI-72
aI-71
aI-70
aI-69
aI-68
aI-67
aI-66
aI-65
aI-64
aI-62
aI-61
aI103
aI104
aI105
aI106
aI107
aI108
aI109
aI110
aI111
aI112
atp676
Rp677
ag14
((lp678
I-102
aI-101
aI-100
aI-99
aI-98
aI-97
aI-96
aI-95
aI-93
aI-92
aI-91
aI-90
aI-89
aI-88
aI-87
aI-86
aI-85
aI-83
aI-82
aI-81
aI-80
aI-79
aI-77
aI-76
aI-73
aI-72
aI-71
aI-70
aI-69
aI-68
aI-67
aI-66
aI-65
aI-64
aI-63
aI-61
aI103
aI104
aI105
aI106
aI107
aI108
aI109
aI110
aI111
aI112
atp679
Rp680
ag14
((lp681
I-102
aI-101
aI-100
aI-99
aI-98
aI-97
aI-96
aI-95
aI-93
aI-92
aI-91
aI-90
aI-89
aI-88
aI-87
aI-86
aI-85
aI-83
aI-82
aI-81
aI-80
aI-79
aI-77
aI-76
aI-73
aI-72
aI-71
aI-70
aI-69
aI-68
aI-67
aI-66
aI-65
aI-64
aI-63
aI-62
aI103
aI104
aI105
aI106
aI107
aI108
aI109
aI110
aI111
aI112
atp682
Rp683
ag14
((lp684
tp685
Rp686
ag14
((lp687
tp688
Rp689
ag14
((lp690
tp691
Rp692
ag14
((lp693
I65
atp694
Rp695
ag14
((lp696
tp697
Rp698
ag14
((lp699
I-42
atp700
Rp701
ag14
((lp702
tp703
Rp704
ag14
((lp705
I56
aI57
aI-40
atp706
Rp707
ag14
((lp708
I-40
atp709
Rp710
ag14
((lp711
tp712
Rp713
ag14
((lp714
I-49
aI-47
aI-46
aI51
aI52
aI53
aI54
aI55
aI-39
atp715
Rp716
ag14
((lp717
I-50
aI-47
aI-46
aI51
aI52
aI53
aI54
aI55
aI-39
atp718
Rp719
ag14
((lp720
tp721
Rp722
ag14
((lp723
I-50
aI-49
aI-46
aI51
aI52
aI53
aI54
aI55
aI-39
atp724
Rp725
ag14
((lp726
I-50
aI-49
aI-47
aI51
aI52
aI53
aI54
aI55
aI-39
atp727
Rp728
ag14
((lp729
tp730
Rp731
ag14
((lp732
tp733
Rp734
ag14
((lp735
I48
aI-38
aI-37
aI44
aI45
aI46
atp736
Rp737
ag14
((lp738
I-55
atp739
Rp740
ag14
((lp741
tp742
Rp743
ag14
((lp744
I56
aI57
aI-53
aI-52
atp745
Rp746
ag14
((lp747
I-50
aI-49
aI-47
aI-46
aI51
aI52
aI53
aI54
aI55
atp748
Rp749
ag14
((lp750
I48
aI-43
aI-37
aI44
aI45
aI46
atp751
Rp752
ag14
((lp753
I48
aI-43
aI-38
aI44
aI45
aI46
atp754
Rp755
ag14
((lp756
tp757
Rp758
ag14
((lp759
tp760
Rp761
ag14
((lp762
tp763
Rp764
ag14
((lp765
tp766
Rp767
ag14
((lp768
tp769
Rp770
ag14
((lp771
tp772
Rp773
ag14
((lp774
I-24
atp775
Rp776
ag14
((lp777
tp778
Rp779
ag14
((lp780
tp781
Rp782
ag14
((lp783
tp784
Rp785
ag14
((lp786
tp787
Rp788
ag14
((lp789
tp790
Rp791
ag14
((lp792
I-30
atp793
Rp794
ag14
((lp795
tp796
Rp797
ag14
((lp798
tp799
Rp800
ag14
((lp801
tp802
Rp803
ag14
((lp804
I30
atp805
Rp806
ag14
((lp807
I20
aI21
aI22
aI23
aI24
aI25
aI26
aI27
aI28
aI29
atp808
Rp809
ag14
((lp810
I24
aI20
aI29
aI23
atp811
Rp812
ag14
((lp813
tp814
Rp815
ag14
((lp816
tp817
Rp818
ag14
((lp819
tp820
Rp821
ag14
((lp822
I-8
aI-12
aI-10
atp823
Rp824
ag14
((lp825
tp826
Rp827
ag14
((lp828
I-8
aI-14
aI-10
atp829
Rp830
ag14
((lp831
I12
atp832
Rp833
ag14
((lp834
I-8
aI-14
aI-12
atp835
Rp836
ag14
((lp837
tp838
Rp839
ag14
((lp840
I-14
aI-12
aI-10
atp841
Rp842
ag14
((lp843
I10
atp844
Rp845
ag14
((lp846
tp847
Rp848
ag14
((lp849
tp850
Rp851
ag14
((lp852
tp853
Rp854
ag14
((lp855
I4
aI5
aI6
aI7
aI8
aI9
aI-2
atp856
Rp857
ag14
((lp858
I4
aI5
aI6
aI7
aI8
aI9
aI-3
atp859
Rp860
ag14
((lp861
tp862
Rp863
atp864
b.