cnumpy.core.multiarray
_reconstruct
p0
(cnumpy
ndarray
p1
(I0
tp2
S'b'
p3
tp4
Rp5
(I1
(I845
tp6
cnumpy
dtype
p7
(S'O8'
p8
I0
I1
tp9
Rp10
(I3
S'|'
p11
NNNI-1
I-1
I63
tp12
bI00
(lp13
c__builtin__
set
p14
((lp15
tp16
Rp17
ag14
((lp18
tp19
Rp20
ag14
((lp21
I9
aI6
aI-1
aI13
atp22
Rp23
ag14
((lp24
I4
aI5
aI8
aI10
aI12
atp25
Rp26
ag14
((lp27
I3
aI5
aI8
aI10
aI12
atp28
Rp29
ag14
((lp30
I3
aI4
aI8
aI10
aI12
atp31
Rp32
ag14
((lp33
I9
aI2
aI13
atp34
Rp35
ag14
((lp36
tp37
Rp38
ag14
((lp39
I3
aI4
aI5
aI10
aI12
atp40
Rp41
ag14
((lp42
I2
aI-1
aI13
aI6
atp43
Rp44
ag14
((lp45
I3
aI4
aI5
aI8
aI12
atp46
Rp47
ag14
((lp48
tp49
Rp50
ag14
((lp51
I3
aI4
aI5
aI8
aI10
atp52
Rp53
ag14
((lp54
I9
aI2
aI6
atp55
Rp56
ag14
((lp57
tp58
Rp59
ag14
((lp60
tp61
Rp62
ag14
((lp63
tp64
Rp65
ag14
((lp66
I18
atp67
Rp68
ag14
((lp69
I17
atp70
Rp71
ag14
((lp72
I-10
atp73
Rp74
ag14
((lp75
I-11
atp76
Rp77
ag14
((lp78
tp79
Rp80
ag14
((lp81
tp82
Rp83
ag14
((lp84
I24
aI-12
atp85
Rp86
ag14
((lp87
I-12
aI23
atp88
Rp89
ag14
((lp90
tp91
Rp92
ag14
((lp93
tp94
Rp95
ag14
((lp96
I-26
atp97
Rp98
ag14
((lp99
tp100
Rp101
ag14
((lp102
tp103
Rp104
ag14
((lp105
tp106
Rp107
ag14
((lp108
tp109
Rp110
ag14
((lp111
tp112
Rp113
ag14
((lp114
tp115
Rp116
ag14
((lp117
tp118
Rp119
ag14
((lp120
tp121
Rp122
ag14
((lp123
tp124
Rp125
ag14
((lp126
tp127
Rp128
ag14
((lp129
I39
atp130
Rp131
ag14
((lp132
I38
atp133
Rp134
ag14
((lp135
I41
aI42
atp136
Rp137
ag14
((lp138
I40
aI42
atp139
Rp140
ag14
((lp141
I40
aI41
atp142
Rp143
ag14
((lp144
I44
atp145
Rp146
ag14
((lp147
I43
atp148
Rp149
ag14
((lp150
tp151
Rp152
ag14
((lp153
tp154
Rp155
ag14
((lp156
tp157
Rp158
ag14
((lp159
tp160
Rp161
ag14
((lp162
I-47
atp163
Rp164
ag14
((lp165
tp166
Rp167
ag14
((lp168
tp169
Rp170
ag14
((lp171
tp172
Rp173
ag14
((lp174
I-45
aI-52
aI55
atp175
Rp176
ag14
((lp177
I-45
aI-52
aI-42
atp178
Rp179
ag14
((lp180
I-52
aI53
atp181
Rp182
ag14
((lp183
I60
atp184
Rp185
ag14
((lp186
tp187
Rp188
ag14
((lp189
tp190
Rp191
ag14
((lp192
tp193
Rp194
ag14
((lp195
I56
atp196
Rp197
ag14
((lp198
tp199
Rp200
ag14
((lp201
tp202
Rp203
ag14
((lp204
tp205
Rp206
ag14
((lp207
tp208
Rp209
ag14
((lp210
I-61
aI-60
aI69
aI71
aI-51
atp211
Rp212
ag14
((lp213
I-59
atp214
Rp215
ag14
((lp216
tp217
Rp218
ag14
((lp219
I-50
atp220
Rp221
ag14
((lp222
I65
aI-61
aI-60
aI71
aI-51
atp223
Rp224
ag14
((lp225
tp226
Rp227
ag14
((lp228
I65
aI-61
aI-60
aI69
aI-51
atp229
Rp230
ag14
((lp231
I73
aI75
aI-65
atp232
Rp233
ag14
((lp234
I72
aI75
aI-65
atp235
Rp236
ag14
((lp237
tp238
Rp239
ag14
((lp240
I72
aI73
aI-65
atp241
Rp242
ag14
((lp243
tp244
Rp245
ag14
((lp246
tp247
Rp248
ag14
((lp249
tp250
Rp251
ag14
((lp252
tp253
Rp254
ag14
((lp255
I81
atp256
Rp257
ag14
((lp258
I80
atp259
Rp260
ag14
((lp261
I-80
aI83
aI84
atp262
Rp263
ag14
((lp264
I-80
aI82
aI84
atp265
Rp266
ag14
((lp267
I-80
aI82
aI83
atp268
Rp269
ag14
((lp270
I-74
atp271
Rp272
ag14
((lp273
tp274
Rp275
ag14
((lp276
tp277
Rp278
ag14
((lp279
I-86
atp280
Rp281
ag14
((lp282
tp283
Rp284
ag14
((lp285
I-70
aI-69
aI-75
atp286
Rp287
ag14
((lp288
tp289
Rp290
ag14
((lp291
tp292
Rp293
ag14
((lp294
tp295
Rp296
ag14
((lp297
tp298
Rp299
ag14
((lp300
tp301
Rp302
ag14
((lp303
tp304
Rp305
ag14
((lp306
tp307
Rp308
ag14
((lp309
tp310
Rp311
ag14
((lp312
tp313
Rp314
ag14
((lp315
tp316
Rp317
ag14
((lp318
tp319
Rp320
ag14
((lp321
tp322
Rp323
ag14
((lp324
tp325
Rp326
ag14
((lp327
tp328
Rp329
ag14
((lp330
I106
atp331
Rp332
ag14
((lp333
I105
atp334
Rp335
ag14
((lp336
tp337
Rp338
ag14
((lp339
tp340
Rp341
ag14
((lp342
tp343
Rp344
ag14
((lp345
tp346
Rp347
ag14
((lp348
tp349
Rp350
ag14
((lp351
tp352
Rp353
ag14
((lp354
tp355
Rp356
ag14
((lp357
tp358
Rp359
ag14
((lp360
tp361
Rp362
ag14
((lp363
tp364
Rp365
ag14
((lp366
tp367
Rp368
ag14
((lp369
tp370
Rp371
ag14
((lp372
tp373
Rp374
ag14
((lp375
tp376
Rp377
ag14
((lp378
tp379
Rp380
ag14
((lp381
tp382
Rp383
ag14
((lp384
tp385
Rp386
ag14
((lp387
tp388
Rp389
ag14
((lp390
tp391
Rp392
ag14
((lp393
tp394
Rp395
ag14
((lp396
tp397
Rp398
ag14
((lp399
tp400
Rp401
ag14
((lp402
tp403
Rp404
ag14
((lp405
tp406
Rp407
ag14
((lp408
tp409
Rp410
ag14
((lp411
I133
atp412
Rp413
ag14
((lp414
I132
atp415
Rp416
ag14
((lp417
tp418
Rp419
ag14
((lp420
tp421
Rp422
ag14
((lp423
I137
aI138
aI139
aI140
atp424
Rp425
ag14
((lp426
I136
aI139
aI140
atp427
Rp428
ag14
((lp429
I136
aI139
atp430
Rp431
ag14
((lp432
I136
aI137
aI138
atp433
Rp434
ag14
((lp435
I136
aI137
atp436
Rp437
ag14
((lp438
I-136
atp439
Rp440
ag14
((lp441
tp442
Rp443
ag14
((lp444
tp445
Rp446
ag14
((lp447
tp448
Rp449
ag14
((lp450
tp451
Rp452
ag14
((lp453
tp454
Rp455
ag14
((lp456
tp457
Rp458
ag14
((lp459
tp460
Rp461
ag14
((lp462
tp463
Rp464
ag14
((lp465
tp466
Rp467
ag14
((lp468
tp469
Rp470
ag14
((lp471
tp472
Rp473
ag14
((lp474
I154
atp475
Rp476
ag14
((lp477
I153
atp478
Rp479
ag14
((lp480
tp481
Rp482
ag14
((lp483
tp484
Rp485
ag14
((lp486
tp487
Rp488
ag14
((lp489
I159
atp490
Rp491
ag14
((lp492
I158
atp493
Rp494
ag14
((lp495
I161
aI164
aI165
aI166
aI169
aI170
atp496
Rp497
ag14
((lp498
I160
aI170
aI164
aI166
atp499
Rp500
ag14
((lp501
tp502
Rp503
ag14
((lp504
I168
atp505
Rp506
ag14
((lp507
I160
aI161
aI165
aI166
aI169
aI170
atp508
Rp509
ag14
((lp510
I160
aI164
aI166
aI169
aI170
atp511
Rp512
ag14
((lp513
I160
aI161
aI164
aI165
aI170
atp514
Rp515
ag14
((lp516
tp517
Rp518
ag14
((lp519
I163
atp520
Rp521
ag14
((lp522
I160
aI164
aI165
atp523
Rp524
ag14
((lp525
I160
aI161
aI164
aI165
aI166
atp526
Rp527
ag14
((lp528
tp529
Rp530
ag14
((lp531
tp532
Rp533
ag14
((lp534
tp535
Rp536
ag14
((lp537
I-155
atp538
Rp539
ag14
((lp540
tp541
Rp542
ag14
((lp543
tp544
Rp545
ag14
((lp546
I-147
atp547
Rp548
ag14
((lp549
tp550
Rp551
ag14
((lp552
tp553
Rp554
ag14
((lp555
tp556
Rp557
ag14
((lp558
tp559
Rp560
ag14
((lp561
I-164
atp562
Rp563
ag14
((lp564
tp565
Rp566
ag14
((lp567
I-165
atp568
Rp569
ag14
((lp570
tp571
Rp572
ag14
((lp573
tp574
Rp575
ag14
((lp576
tp577
Rp578
ag14
((lp579
tp580
Rp581
ag14
((lp582
tp583
Rp584
ag14
((lp585
I-187
atp586
Rp587
ag14
((lp588
tp589
Rp590
ag14
((lp591
I-190
atp592
Rp593
ag14
((lp594
I-190
atp595
Rp596
ag14
((lp597
tp598
Rp599
ag14
((lp600
tp601
Rp602
ag14
((lp603
tp604
Rp605
ag14
((lp606
tp607
Rp608
ag14
((lp609
tp610
Rp611
ag14
((lp612
I-167
atp613
Rp614
ag14
((lp615
tp616
Rp617
ag14
((lp618
tp619
Rp620
ag14
((lp621
tp622
Rp623
ag14
((lp624
tp625
Rp626
ag14
((lp627
tp628
Rp629
ag14
((lp630
tp631
Rp632
ag14
((lp633
tp634
Rp635
ag14
((lp636
tp637
Rp638
ag14
((lp639
tp640
Rp641
ag14
((lp642
tp643
Rp644
ag14
((lp645
I-189
aI-209
aI-208
aI-207
aI211
aI212
aI213
aI214
aI215
aI216
aI217
aI218
atp646
Rp647
ag14
((lp648
I-189
aI-209
aI-208
aI210
aI213
aI214
aI215
aI216
aI217
aI218
atp649
Rp650
ag14
((lp651
I210
aI213
atp652
Rp653
ag14
((lp654
I-189
aI-209
aI-208
aI-207
aI210
aI211
aI212
aI214
aI215
aI216
aI217
aI218
atp655
Rp656
ag14
((lp657
I-189
aI-209
aI-208
aI-207
aI210
aI211
aI213
aI215
aI216
aI217
aI218
atp658
Rp659
ag14
((lp660
I-189
aI-209
aI-208
aI210
aI211
aI213
aI214
aI216
aI217
aI218
atp661
Rp662
ag14
((lp663
I-189
aI-209
aI-208
aI-207
aI210
aI211
aI213
aI214
aI215
aI217
aI218
atp664
Rp665
ag14
((lp666
I-189
aI-209
aI-208
aI210
aI211
aI213
aI214
aI215
aI216
aI218
atp667
Rp668
ag14
((lp669
I-189
aI-209
aI-208
aI210
aI211
aI213
aI214
aI215
aI216
aI217
atp670
Rp671
ag14
((lp672
I-202
atp673
Rp674
ag14
((lp675
I-216
atp676
Rp677
ag14
((lp678
I222
atp679
Rp680
ag14
((lp681
I221
atp682
Rp683
ag14
((lp684
tp685
Rp686
ag14
((lp687
tp688
Rp689
ag14
((lp690
I226
aI227
aI228
aI229
aI230
atp691
Rp692
ag14
((lp693
I225
aI227
aI228
aI229
aI230
atp694
Rp695
ag14
((lp696
I225
aI226
aI228
aI229
aI230
atp697
Rp698
ag14
((lp699
I225
aI226
aI227
aI229
aI230
atp700
Rp701
ag14
((lp702
I225
aI226
aI227
aI228
aI230
atp703
Rp704
ag14
((lp705
I225
aI226
aI227
aI228
aI229
atp706
Rp707
ag14
((lp708
tp709
Rp710
ag14
((lp711
tp712
Rp713
ag14
((lp714
tp715
Rp716
ag14
((lp717
I-204
aI-227
atp718
Rp719
ag14
((lp720
tp721
Rp722
ag14
((lp723
tp724
Rp725
ag14
((lp726
tp727
Rp728
ag14
((lp729
I-237
atp730
Rp731
ag14
((lp732
tp733
Rp734
ag14
((lp735
tp736
Rp737
ag14
((lp738
tp739
Rp740
ag14
((lp741
tp742
Rp743
ag14
((lp744
tp745
Rp746
ag14
((lp747
tp748
Rp749
ag14
((lp750
tp751
Rp752
ag14
((lp753
tp754
Rp755
ag14
((lp756
tp757
Rp758
ag14
((lp759
tp760
Rp761
ag14
((lp762
tp763
Rp764
ag14
((lp765
tp766
Rp767
ag14
((lp768
tp769
Rp770
ag14
((lp771
tp772
Rp773
ag14
((lp774
tp775
Rp776
ag14
((lp777
I-248
aI-247
atp778
Rp779
ag14
((lp780
tp781
Rp782
ag14
((lp783
tp784
Rp785
ag14
((lp786
tp787
Rp788
ag14
((lp789
tp790
Rp791
ag14
((lp792
tp793
Rp794
ag14
((lp795
tp796
Rp797
ag14
((lp798
tp799
Rp800
ag14
((lp801
tp802
Rp803
ag14
((lp804
tp805
Rp806
ag14
((lp807
tp808
Rp809
ag14
((lp810
tp811
Rp812
ag14
((lp813
tp814
Rp815
ag14
((lp816
tp817
Rp818
ag14
((lp819
tp820
Rp821
ag14
((lp822
tp823
Rp824
ag14
((lp825
tp826
Rp827
ag14
((lp828
tp829
Rp830
ag14
((lp831
tp832
Rp833
ag14
((lp834
tp835
Rp836
ag14
((lp837
tp838
Rp839
ag14
((lp840
tp841
Rp842
ag14
((lp843
I-275
atp844
Rp845
ag14
((lp846
tp847
Rp848
ag14
((lp849
tp850
Rp851
ag14
((lp852
I-268
atp853
Rp854
ag14
((lp855
tp856
Rp857
ag14
((lp858
tp859
Rp860
ag14
((lp861
tp862
Rp863
ag14
((lp864
tp865
Rp866
ag14
((lp867
tp868
Rp869
ag14
((lp870
tp871
Rp872
ag14
((lp873
tp874
Rp875
ag14
((lp876
tp877
Rp878
ag14
((lp879
tp880
Rp881
ag14
((lp882
I-284
atp883
Rp884
ag14
((lp885
tp886
Rp887
ag14
((lp888
tp889
Rp890
ag14
((lp891
tp892
Rp893
ag14
((lp894
I-292
aI-291
atp895
Rp896
ag14
((lp897
tp898
Rp899
ag14
((lp900
tp901
Rp902
ag14
((lp903
tp904
Rp905
ag14
((lp906
tp907
Rp908
ag14
((lp909
tp910
Rp911
ag14
((lp912
I-296
atp913
Rp914
ag14
((lp915
I-279
aI-294
aI301
atp916
Rp917
ag14
((lp918
I-294
aI300
atp919
Rp920
ag14
((lp921
tp922
Rp923
ag14
((lp924
I304
aI-300
atp925
Rp926
ag14
((lp927
I-300
aI303
atp928
Rp929
ag14
((lp930
tp931
Rp932
ag14
((lp933
I-304
aI-295
aI-283
atp934
Rp935
ag14
((lp936
I-302
atp937
Rp938
ag14
((lp939
tp940
Rp941
ag14
((lp942
tp943
Rp944
ag14
((lp945
tp946
Rp947
ag14
((lp948
tp949
Rp950
ag14
((lp951
I313
aI-309
atp952
Rp953
ag14
((lp954
I312
aI-309
atp955
Rp956
ag14
((lp957
tp958
Rp959
ag14
((lp960
tp961
Rp962
ag14
((lp963
tp964
Rp965
ag14
((lp966
tp967
Rp968
ag14
((lp969
tp970
Rp971
ag14
((lp972
tp973
Rp974
ag14
((lp975
tp976
Rp977
ag14
((lp978
I322
atp979
Rp980
ag14
((lp981
I321
atp982
Rp983
ag14
((lp984
tp985
Rp986
ag14
((lp987
tp988
Rp989
ag14
((lp990
I-320
atp991
Rp992
ag14
((lp993
tp994
Rp995
ag14
((lp996
tp997
Rp998
ag14
((lp999
tp1000
Rp1001
ag14
((lp1002
tp1003
Rp1004
ag14
((lp1005
tp1006
Rp1007
ag14
((lp1008
tp1009
Rp1010
ag14
((lp1011
tp1012
Rp1013
ag14
((lp1014
tp1015
Rp1016
ag14
((lp1017
I-159
aI-333
aI-332
atp1018
Rp1019
ag14
((lp1020
tp1021
Rp1022
ag14
((lp1023
tp1024
Rp1025
ag14
((lp1026
I338
aI-319
atp1027
Rp1028
ag14
((lp1029
I337
aI-319
atp1030
Rp1031
ag14
((lp1032
tp1033
Rp1034
ag14
((lp1035
tp1036
Rp1037
ag14
((lp1038
tp1039
Rp1040
ag14
((lp1041
I343
atp1042
Rp1043
ag14
((lp1044
I342
atp1045
Rp1046
ag14
((lp1047
tp1048
Rp1049
ag14
((lp1050
tp1051
Rp1052
ag14
((lp1053
tp1054
Rp1055
ag14
((lp1056
I348
atp1057
Rp1058
ag14
((lp1059
I347
atp1060
Rp1061
ag14
((lp1062
tp1063
Rp1064
ag14
((lp1065
I-277
atp1066
Rp1067
ag14
((lp1068
tp1069
Rp1070
ag14
((lp1071
tp1072
Rp1073
ag14
((lp1074
tp1075
Rp1076
ag14
((lp1077
tp1078
Rp1079
ag14
((lp1080
I-354
atp1081
Rp1082
ag14
((lp1083
I-351
atp1084
Rp1085
ag14
((lp1086
tp1087
Rp1088
ag14
((lp1089
tp1090
Rp1091
ag14
((lp1092
tp1093
Rp1094
ag14
((lp1095
tp1096
Rp1097
ag14
((lp1098
tp1099
Rp1100
ag14
((lp1101
tp1102
Rp1103
ag14
((lp1104
tp1105
Rp1106
ag14
((lp1107
tp1108
Rp1109
ag14
((lp1110
I-256
atp1111
Rp1112
ag14
((lp1113
tp1114
Rp1115
ag14
((lp1116
tp1117
Rp1118
ag14
((lp1119
tp1120
Rp1121
ag14
((lp1122
tp1123
Rp1124
ag14
((lp1125
tp1126
Rp1127
ag14
((lp1128
tp1129
Rp1130
ag14
((lp1131
tp1132
Rp1133
ag14
((lp1134
tp1135
Rp1136
ag14
((lp1137
I375
atp1138
Rp1139
ag14
((lp1140
I374
atp1141
Rp1142
ag14
((lp1143
tp1144
Rp1145
ag14
((lp1146
I-374
aI378
atp1147
Rp1148
ag14
((lp1149
I377
aI-374
atp1150
Rp1151
ag14
((lp1152
tp1153
Rp1154
ag14
((lp1155
tp1156
Rp1157
ag14
((lp1158
tp1159
Rp1160
ag14
((lp1161
tp1162
Rp1163
ag14
((lp1164
I-368
aI384
aI-382
aI385
atp1165
Rp1166
ag14
((lp1167
I-368
aI385
aI-382
aI383
atp1168
Rp1169
ag14
((lp1170
I384
aI-368
aI-382
aI383
atp1171
Rp1172
ag14
((lp1173
I-383
atp1174
Rp1175
ag14
((lp1176
tp1177
Rp1178
ag14
((lp1179
tp1180
Rp1181
ag14
((lp1182
I-259
atp1183
Rp1184
ag14
((lp1185
tp1186
Rp1187
ag14
((lp1188
tp1189
Rp1190
ag14
((lp1191
I393
atp1192
Rp1193
ag14
((lp1194
I392
atp1195
Rp1196
ag14
((lp1197
I-392
atp1198
Rp1199
ag14
((lp1200
tp1201
Rp1202
ag14
((lp1203
tp1204
Rp1205
ag14
((lp1206
tp1207
Rp1208
ag14
((lp1209
tp1210
Rp1211
ag14
((lp1212
tp1213
Rp1214
ag14
((lp1215
tp1216
Rp1217
ag14
((lp1218
tp1219
Rp1220
ag14
((lp1221
tp1222
Rp1223
ag14
((lp1224
tp1225
Rp1226
ag14
((lp1227
tp1228
Rp1229
ag14
((lp1230
tp1231
Rp1232
ag14
((lp1233
tp1234
Rp1235
ag14
((lp1236
tp1237
Rp1238
ag14
((lp1239
tp1240
Rp1241
ag14
((lp1242
tp1243
Rp1244
ag14
((lp1245
tp1246
Rp1247
ag14
((lp1248
tp1249
Rp1250
ag14
((lp1251
tp1252
Rp1253
ag14
((lp1254
tp1255
Rp1256
ag14
((lp1257
tp1258
Rp1259
ag14
((lp1260
tp1261
Rp1262
ag14
((lp1263
tp1264
Rp1265
ag14
((lp1266
tp1267
Rp1268
ag14
((lp1269
tp1270
Rp1271
ag14
((lp1272
tp1273
Rp1274
ag14
((lp1275
tp1276
Rp1277
ag14
((lp1278
tp1279
Rp1280
ag14
((lp1281
tp1282
Rp1283
ag14
((lp1284
tp1285
Rp1286
ag14
((lp1287
tp1288
Rp1289
ag14
((lp1290
tp1291
Rp1292
ag14
((lp1293
tp1294
Rp1295
ag14
((lp1296
tp1297
Rp1298
ag14
((lp1299
tp1300
Rp1301
ag14
((lp1302
tp1303
Rp1304
ag14
((lp1305
tp1306
Rp1307
ag14
((lp1308
tp1309
Rp1310
ag14
((lp1311
tp1312
Rp1313
ag14
((lp1314
tp1315
Rp1316
ag14
((lp1317
tp1318
Rp1319
ag14
((lp1320
tp1321
Rp1322
ag14
((lp1323
tp1324
Rp1325
ag14
((lp1326
tp1327
Rp1328
ag14
((lp1329
tp1330
Rp1331
ag14
((lp1332
tp1333
Rp1334
ag14
((lp1335
tp1336
Rp1337
ag14
((lp1338
tp1339
Rp1340
ag14
((lp1341
tp1342
Rp1343
ag14
((lp1344
tp1345
Rp1346
ag14
((lp1347
tp1348
Rp1349
ag14
((lp1350
I-376
atp1351
Rp1352
ag14
((lp1353
tp1354
Rp1355
ag14
((lp1356
tp1357
Rp1358
ag14
((lp1359
tp1360
Rp1361
ag14
((lp1362
tp1363
Rp1364
ag14
((lp1365
I-390
aI-389
aI-393
atp1366
Rp1367
ag14
((lp1368
tp1369
Rp1370
ag14
((lp1371
I-390
aI-389
aI-395
atp1372
Rp1373
ag14
((lp1374
I394
aI-379
atp1375
Rp1376
ag14
((lp1377
tp1378
Rp1379
ag14
((lp1380
I-389
aI-395
aI-393
atp1381
Rp1382
ag14
((lp1383
I-390
aI-395
aI-393
atp1384
Rp1385
ag14
((lp1386
tp1387
Rp1388
ag14
((lp1389
tp1390
Rp1391
ag14
((lp1392
tp1393
Rp1394
ag14
((lp1395
tp1396
Rp1397
ag14
((lp1398
tp1399
Rp1400
ag14
((lp1401
I386
atp1402
Rp1403
ag14
((lp1404
I384
aI385
aI-368
aI383
atp1405
Rp1406
ag14
((lp1407
tp1408
Rp1409
ag14
((lp1410
tp1411
Rp1412
ag14
((lp1413
I-392
atp1414
Rp1415
ag14
((lp1416
tp1417
Rp1418
ag14
((lp1419
tp1420
Rp1421
ag14
((lp1422
I-400
atp1423
Rp1424
ag14
((lp1425
tp1426
Rp1427
ag14
((lp1428
I377
aI378
atp1429
Rp1430
ag14
((lp1431
tp1432
Rp1433
ag14
((lp1434
tp1435
Rp1436
ag14
((lp1437
tp1438
Rp1439
ag14
((lp1440
tp1441
Rp1442
ag14
((lp1443
tp1444
Rp1445
ag14
((lp1446
I384
aI385
aI-382
aI383
atp1447
Rp1448
ag14
((lp1449
tp1450
Rp1451
ag14
((lp1452
tp1453
Rp1454
ag14
((lp1455
I-359
atp1456
Rp1457
ag14
((lp1458
tp1459
Rp1460
ag14
((lp1461
tp1462
Rp1463
ag14
((lp1464
tp1465
Rp1466
ag14
((lp1467
tp1468
Rp1469
ag14
((lp1470
tp1471
Rp1472
ag14
((lp1473
I-365
atp1474
Rp1475
ag14
((lp1476
tp1477
Rp1478
ag14
((lp1479
tp1480
Rp1481
ag14
((lp1482
tp1483
Rp1484
ag14
((lp1485
tp1486
Rp1487
ag14
((lp1488
I355
atp1489
Rp1490
ag14
((lp1491
tp1492
Rp1493
ag14
((lp1494
tp1495
Rp1496
ag14
((lp1497
I356
atp1498
Rp1499
ag14
((lp1500
I-343
atp1501
Rp1502
ag14
((lp1503
tp1504
Rp1505
ag14
((lp1506
tp1507
Rp1508
ag14
((lp1509
tp1510
Rp1511
ag14
((lp1512
tp1513
Rp1514
ag14
((lp1515
I-305
atp1516
Rp1517
ag14
((lp1518
tp1519
Rp1520
ag14
((lp1521
I-350
atp1522
Rp1523
ag14
((lp1524
tp1525
Rp1526
ag14
((lp1527
tp1528
Rp1529
ag14
((lp1530
tp1531
Rp1532
ag14
((lp1533
tp1534
Rp1535
ag14
((lp1536
tp1537
Rp1538
ag14
((lp1539
tp1540
Rp1541
ag14
((lp1542
tp1543
Rp1544
ag14
((lp1545
tp1546
Rp1547
ag14
((lp1548
tp1549
Rp1550
ag14
((lp1551
I-159
aI-332
aI334
atp1552
Rp1553
ag14
((lp1554
I-159
aI-333
aI334
atp1555
Rp1556
ag14
((lp1557
tp1558
Rp1559
ag14
((lp1560
tp1561
Rp1562
ag14
((lp1563
tp1564
Rp1565
ag14
((lp1566
tp1567
Rp1568
ag14
((lp1569
tp1570
Rp1571
ag14
((lp1572
I-325
atp1573
Rp1574
ag14
((lp1575
I-326
atp1576
Rp1577
ag14
((lp1578
tp1579
Rp1580
ag14
((lp1581
tp1582
Rp1583
ag14
((lp1584
tp1585
Rp1586
ag14
((lp1587
tp1588
Rp1589
ag14
((lp1590
I325
atp1591
Rp1592
ag14
((lp1593
I337
aI338
atp1594
Rp1595
ag14
((lp1596
tp1597
Rp1598
ag14
((lp1599
tp1600
Rp1601
ag14
((lp1602
tp1603
Rp1604
ag14
((lp1605
tp1606
Rp1607
ag14
((lp1608
tp1609
Rp1610
ag14
((lp1611
tp1612
Rp1613
ag14
((lp1614
tp1615
Rp1616
ag14
((lp1617
tp1618
Rp1619
ag14
((lp1620
tp1621
Rp1622
ag14
((lp1623
I312
aI313
atp1624
Rp1625
ag14
((lp1626
tp1627
Rp1628
ag14
((lp1629
tp1630
Rp1631
ag14
((lp1632
I-282
atp1633
Rp1634
ag14
((lp1635
I-345
atp1636
Rp1637
ag14
((lp1638
I-295
aI306
aI-283
atp1639
Rp1640
ag14
((lp1641
tp1642
Rp1643
ag14
((lp1644
I307
atp1645
Rp1646
ag14
((lp1647
tp1648
Rp1649
ag14
((lp1650
I304
aI303
atp1651
Rp1652
ag14
((lp1653
tp1654
Rp1655
ag14
((lp1656
tp1657
Rp1658
ag14
((lp1659
tp1660
Rp1661
ag14
((lp1662
I299
atp1663
Rp1664
ag14
((lp1665
I-304
aI306
aI-283
atp1666
Rp1667
ag14
((lp1668
I300
aI301
atp1669
Rp1670
ag14
((lp1671
tp1672
Rp1673
ag14
((lp1674
I293
aI-291
atp1675
Rp1676
ag14
((lp1677
I-292
aI293
atp1678
Rp1679
ag14
((lp1680
tp1681
Rp1682
ag14
((lp1683
tp1684
Rp1685
ag14
((lp1686
tp1687
Rp1688
ag14
((lp1689
tp1690
Rp1691
ag14
((lp1692
tp1693
Rp1694
ag14
((lp1695
tp1696
Rp1697
ag14
((lp1698
I289
atp1699
Rp1700
ag14
((lp1701
I-304
aI-295
aI306
atp1702
Rp1703
ag14
((lp1704
I-306
atp1705
Rp1706
ag14
((lp1707
tp1708
Rp1709
ag14
((lp1710
tp1711
Rp1712
ag14
((lp1713
I300
atp1714
Rp1715
ag14
((lp1716
tp1717
Rp1718
ag14
((lp1719
I350
atp1720
Rp1721
ag14
((lp1722
tp1723
Rp1724
ag14
((lp1725
I276
atp1726
Rp1727
ag14
((lp1728
tp1729
Rp1730
ag14
((lp1731
tp1732
Rp1733
ag14
((lp1734
tp1735
Rp1736
ag14
((lp1737
tp1738
Rp1739
ag14
((lp1740
tp1741
Rp1742
ag14
((lp1743
tp1744
Rp1745
ag14
((lp1746
I279
atp1747
Rp1748
ag14
((lp1749
tp1750
Rp1751
ag14
((lp1752
tp1753
Rp1754
ag14
((lp1755
tp1756
Rp1757
ag14
((lp1758
tp1759
Rp1760
ag14
((lp1761
tp1762
Rp1763
ag14
((lp1764
tp1765
Rp1766
ag14
((lp1767
tp1768
Rp1769
ag14
((lp1770
tp1771
Rp1772
ag14
((lp1773
I389
atp1774
Rp1775
ag14
((lp1776
tp1777
Rp1778
ag14
((lp1779
tp1780
Rp1781
ag14
((lp1782
I365
atp1783
Rp1784
ag14
((lp1785
I-246
atp1786
Rp1787
ag14
((lp1788
tp1789
Rp1790
ag14
((lp1791
tp1792
Rp1793
ag14
((lp1794
tp1795
Rp1796
ag14
((lp1797
tp1798
Rp1799
ag14
((lp1800
I-230
atp1801
Rp1802
ag14
((lp1803
tp1804
Rp1805
ag14
((lp1806
I-247
aI254
atp1807
Rp1808
ag14
((lp1809
I-248
aI254
atp1810
Rp1811
ag14
((lp1812
I-255
atp1813
Rp1814
ag14
((lp1815
I-236
atp1816
Rp1817
ag14
((lp1818
tp1819
Rp1820
ag14
((lp1821
tp1822
Rp1823
ag14
((lp1824
tp1825
Rp1826
ag14
((lp1827
tp1828
Rp1829
ag14
((lp1830
tp1831
Rp1832
ag14
((lp1833
tp1834
Rp1835
ag14
((lp1836
I-158
atp1837
Rp1838
ag14
((lp1839
I238
atp1840
Rp1841
ag14
((lp1842
I-245
atp1843
Rp1844
ag14
((lp1845
tp1846
Rp1847
ag14
((lp1848
tp1849
Rp1850
ag14
((lp1851
tp1852
Rp1853
ag14
((lp1854
tp1855
Rp1856
ag14
((lp1857
tp1858
Rp1859
ag14
((lp1860
I-250
atp1861
Rp1862
ag14
((lp1863
tp1864
Rp1865
ag14
((lp1866
tp1867
Rp1868
ag14
((lp1869
I234
aI-204
atp1870
Rp1871
ag14
((lp1872
tp1873
Rp1874
ag14
((lp1875
I-223
atp1876
Rp1877
ag14
((lp1878
tp1879
Rp1880
ag14
((lp1881
I-225
atp1882
Rp1883
ag14
((lp1884
tp1885
Rp1886
ag14
((lp1887
tp1888
Rp1889
ag14
((lp1890
tp1891
Rp1892
ag14
((lp1893
tp1894
Rp1895
ag14
((lp1896
tp1897
Rp1898
ag14
((lp1899
tp1900
Rp1901
ag14
((lp1902
I220
atp1903
Rp1904
ag14
((lp1905
tp1906
Rp1907
ag14
((lp1908
tp1909
Rp1910
ag14
((lp1911
tp1912
Rp1913
ag14
((lp1914
I-211
aI-202
atp1915
Rp1916
ag14
((lp1917
I-212
aI-202
atp1918
Rp1919
ag14
((lp1920
tp1921
Rp1922
ag14
((lp1923
I-189
aI-208
aI-207
aI210
aI211
aI213
aI214
aI215
aI216
aI217
aI218
atp1924
Rp1925
ag14
((lp1926
I-189
aI-209
aI-207
aI210
aI211
aI213
aI214
aI215
aI216
aI217
aI218
atp1927
Rp1928
ag14
((lp1929
I-208
aI210
aI213
aI214
aI216
aI-209
atp1930
Rp1931
ag14
((lp1932
tp1933
Rp1934
ag14
((lp1935
tp1936
Rp1937
ag14
((lp1938
I234
aI-227
atp1939
Rp1940
ag14
((lp1941
tp1942
Rp1943
ag14
((lp1944
I219
aI-212
aI-211
atp1945
Rp1946
ag14
((lp1947
tp1948
Rp1949
ag14
((lp1950
tp1951
Rp1952
ag14
((lp1953
tp1954
Rp1955
ag14
((lp1956
tp1957
Rp1958
ag14
((lp1959
I-192
aI-191
aI-188
aI-177
aI-175
aI-170
aI-169
aI-168
aI-167
aI-196
atp1960
Rp1961
ag14
((lp1962
I-192
aI-191
aI-188
aI-177
aI-175
aI-168
aI-167
aI-197
atp1963
Rp1964
ag14
((lp1965
tp1966
Rp1967
ag14
((lp1968
tp1969
Rp1970
ag14
((lp1971
tp1972
Rp1973
ag14
((lp1974
I-191
aI-188
aI-177
aI-175
aI-170
aI-169
aI-168
aI-167
aI-197
aI-196
atp1975
Rp1976
ag14
((lp1977
I-192
aI-188
aI-177
aI-175
aI-168
aI-167
aI-197
aI-196
atp1978
Rp1979
ag14
((lp1980
I192
aI193
atp1981
Rp1982
ag14
((lp1983
I-209
aI-208
aI210
aI211
aI213
aI214
aI215
aI216
aI217
aI218
atp1984
Rp1985
ag14
((lp1986
I-192
aI-191
aI-177
aI-175
aI-168
aI-167
aI-197
aI-196
atp1987
Rp1988
ag14
((lp1989
I190
atp1990
Rp1991
ag14
((lp1992
tp1993
Rp1994
ag14
((lp1995
tp1996
Rp1997
ag14
((lp1998
tp1999
Rp2000
ag14
((lp2001
I-165
atp2002
Rp2003
ag14
((lp2004
tp2005
Rp2006
ag14
((lp2007
tp2008
Rp2009
ag14
((lp2010
tp2011
Rp2012
ag14
((lp2013
tp2014
Rp2015
ag14
((lp2016
tp2017
Rp2018
ag14
((lp2019
I-192
aI-191
aI-188
aI-175
aI-170
aI-169
aI-168
aI-167
aI-197
aI-196
atp2020
Rp2021
ag14
((lp2022
tp2023
Rp2024
ag14
((lp2025
I-192
aI-191
aI-188
aI-177
aI-168
aI-167
aI-197
aI-196
atp2026
Rp2027
ag14
((lp2028
tp2029
Rp2030
ag14
((lp2031
tp2032
Rp2033
ag14
((lp2034
tp2035
Rp2036
ag14
((lp2037
tp2038
Rp2039
ag14
((lp2040
I-192
aI-169
aI-168
aI-197
aI-177
atp2041
Rp2042
ag14
((lp2043
I-192
aI-170
aI-168
aI-197
aI-177
atp2044
Rp2045
ag14
((lp2046
I-192
aI-191
aI-188
aI-177
aI-175
aI-170
aI-169
aI-167
aI-197
aI-196
atp2047
Rp2048
ag14
((lp2049
I-192
aI-191
aI-188
aI199
aI-177
aI-175
aI-168
aI-197
aI-196
atp2050
Rp2051
ag14
((lp2052
tp2053
Rp2054
ag14
((lp2055
I184
aI-183
atp2056
Rp2057
ag14
((lp2058
I182
atp2059
Rp2060
ag14
((lp2061
tp2062
Rp2063
ag14
((lp2064
tp2065
Rp2066
ag14
((lp2067
tp2068
Rp2069
ag14
((lp2070
I-151
atp2071
Rp2072
ag14
((lp2073
I-333
aI-332
aI334
atp2074
Rp2075
ag14
((lp2076
I-238
atp2077
Rp2078
ag14
((lp2079
tp2080
Rp2081
ag14
((lp2082
tp2083
Rp2084
ag14
((lp2085
I174
atp2086
Rp2087
ag14
((lp2088
tp2089
Rp2090
ag14
((lp2091
tp2092
Rp2093
ag14
((lp2094
tp2095
Rp2096
ag14
((lp2097
I-160
atp2098
Rp2099
ag14
((lp2100
tp2101
Rp2102
ag14
((lp2103
tp2104
Rp2105
ag14
((lp2106
tp2107
Rp2108
ag14
((lp2109
I177
atp2110
Rp2111
ag14
((lp2112
tp2113
Rp2114
ag14
((lp2115
tp2116
Rp2117
ag14
((lp2118
tp2119
Rp2120
ag14
((lp2121
tp2122
Rp2123
ag14
((lp2124
tp2125
Rp2126
ag14
((lp2127
tp2128
Rp2129
ag14
((lp2130
I-128
aI-125
aI-132
atp2131
Rp2132
ag14
((lp2133
tp2134
Rp2135
ag14
((lp2136
tp2137
Rp2138
ag14
((lp2139
tp2140
Rp2141
ag14
((lp2142
I141
atp2143
Rp2144
ag14
((lp2145
tp2146
Rp2147
ag14
((lp2148
tp2149
Rp2150
ag14
((lp2151
tp2152
Rp2153
ag14
((lp2154
I-128
aI-140
aI-125
atp2155
Rp2156
ag14
((lp2157
tp2158
Rp2159
ag14
((lp2160
tp2161
Rp2162
ag14
((lp2163
tp2164
Rp2165
ag14
((lp2166
I-132
aI-125
aI-140
atp2167
Rp2168
ag14
((lp2169
tp2170
Rp2171
ag14
((lp2172
tp2173
Rp2174
ag14
((lp2175
I-128
aI-132
aI-140
atp2176
Rp2177
ag14
((lp2178
tp2179
Rp2180
ag14
((lp2181
tp2182
Rp2183
ag14
((lp2184
tp2185
Rp2186
ag14
((lp2187
tp2188
Rp2189
ag14
((lp2190
tp2191
Rp2192
ag14
((lp2193
tp2194
Rp2195
ag14
((lp2196
tp2197
Rp2198
ag14
((lp2199
tp2200
Rp2201
ag14
((lp2202
tp2203
Rp2204
ag14
((lp2205
tp2206
Rp2207
ag14
((lp2208
tp2209
Rp2210
ag14
((lp2211
tp2212
Rp2213
ag14
((lp2214
tp2215
Rp2216
ag14
((lp2217
tp2218
Rp2219
ag14
((lp2220
tp2221
Rp2222
ag14
((lp2223
tp2224
Rp2225
ag14
((lp2226
tp2227
Rp2228
ag14
((lp2229
tp2230
Rp2231
ag14
((lp2232
tp2233
Rp2234
ag14
((lp2235
tp2236
Rp2237
ag14
((lp2238
tp2239
Rp2240
ag14
((lp2241
tp2242
Rp2243
ag14
((lp2244
tp2245
Rp2246
ag14
((lp2247
tp2248
Rp2249
ag14
((lp2250
tp2251
Rp2252
ag14
((lp2253
tp2254
Rp2255
ag14
((lp2256
tp2257
Rp2258
ag14
((lp2259
tp2260
Rp2261
ag14
((lp2262
tp2263
Rp2264
ag14
((lp2265
tp2266
Rp2267
ag14
((lp2268
tp2269
Rp2270
ag14
((lp2271
tp2272
Rp2273
ag14
((lp2274
I-77
atp2275
Rp2276
ag14
((lp2277
tp2278
Rp2279
ag14
((lp2280
tp2281
Rp2282
ag14
((lp2283
tp2284
Rp2285
ag14
((lp2286
tp2287
Rp2288
ag14
((lp2289
tp2290
Rp2291
ag14
((lp2292
I88
atp2293
Rp2294
ag14
((lp2295
tp2296
Rp2297
ag14
((lp2298
tp2299
Rp2300
ag14
((lp2301
tp2302
Rp2303
ag14
((lp2304
I-79
atp2305
Rp2306
ag14
((lp2307
tp2308
Rp2309
ag14
((lp2310
I82
aI83
aI84
atp2311
Rp2312
ag14
((lp2313
I-82
atp2314
Rp2315
ag14
((lp2316
tp2317
Rp2318
ag14
((lp2319
I-92
atp2320
Rp2321
ag14
((lp2322
tp2323
Rp2324
ag14
((lp2325
I-70
aI-69
aI90
atp2326
Rp2327
ag14
((lp2328
I85
atp2329
Rp2330
ag14
((lp2331
tp2332
Rp2333
ag14
((lp2334
tp2335
Rp2336
ag14
((lp2337
tp2338
Rp2339
ag14
((lp2340
I90
aI-69
aI-75
atp2341
Rp2342
ag14
((lp2343
I90
aI-70
aI-75
atp2344
Rp2345
ag14
((lp2346
tp2347
Rp2348
ag14
((lp2349
tp2350
Rp2351
ag14
((lp2352
tp2353
Rp2354
ag14
((lp2355
I72
aI73
aI75
atp2356
Rp2357
ag14
((lp2358
tp2359
Rp2360
ag14
((lp2361
tp2362
Rp2363
ag14
((lp2364
tp2365
Rp2366
ag14
((lp2367
I65
aI-60
aI69
aI71
aI-51
atp2368
Rp2369
ag14
((lp2370
I65
aI-61
aI69
aI71
aI-51
atp2371
Rp2372
ag14
((lp2373
I66
atp2374
Rp2375
ag14
((lp2376
tp2377
Rp2378
ag14
((lp2379
tp2380
Rp2381
ag14
((lp2382
tp2383
Rp2384
ag14
((lp2385
tp2386
Rp2387
ag14
((lp2388
tp2389
Rp2390
ag14
((lp2391
tp2392
Rp2393
ag14
((lp2394
I-45
aI54
aI-42
aI55
aI53
atp2395
Rp2396
ag14
((lp2397
I65
aI-61
aI-60
aI69
aI71
atp2398
Rp2399
ag14
((lp2400
I68
atp2401
Rp2402
ag14
((lp2403
tp2404
Rp2405
ag14
((lp2406
tp2407
Rp2408
ag14
((lp2409
I49
atp2410
Rp2411
ag14
((lp2412
tp2413
Rp2414
ag14
((lp2415
I-52
aI-42
aI54
aI53
atp2416
Rp2417
ag14
((lp2418
I-38
atp2419
Rp2420
ag14
((lp2421
I-40
atp2422
Rp2423
ag14
((lp2424
I-45
aI-52
aI54
atp2425
Rp2426
ag14
((lp2427
I-38
atp2428
Rp2429
ag14
((lp2430
I-43
atp2431
Rp2432
ag14
((lp2433
tp2434
Rp2435
ag14
((lp2436
I-44
aI-41
atp2437
Rp2438
ag14
((lp2439
tp2440
Rp2441
ag14
((lp2442
tp2443
Rp2444
ag14
((lp2445
tp2446
Rp2447
ag14
((lp2448
tp2449
Rp2450
ag14
((lp2451
tp2452
Rp2453
ag14
((lp2454
tp2455
Rp2456
ag14
((lp2457
tp2458
Rp2459
ag14
((lp2460
tp2461
Rp2462
ag14
((lp2463
tp2464
Rp2465
ag14
((lp2466
I-14
atp2467
Rp2468
ag14
((lp2469
tp2470
Rp2471
ag14
((lp2472
I27
atp2473
Rp2474
ag14
((lp2475
tp2476
Rp2477
ag14
((lp2478
tp2479
Rp2480
ag14
((lp2481
tp2482
Rp2483
ag14
((lp2484
tp2485
Rp2486
ag14
((lp2487
tp2488
Rp2489
ag14
((lp2490
tp2491
Rp2492
ag14
((lp2493
I-17
atp2494
Rp2495
ag14
((lp2496
tp2497
Rp2498
ag14
((lp2499
I-19
atp2500
Rp2501
ag14
((lp2502
I-10
aI-9
atp2503
Rp2504
ag14
((lp2505
tp2506
Rp2507
ag14
((lp2508
I-28
atp2509
Rp2510
ag14
((lp2511
tp2512
Rp2513
ag14
((lp2514
I24
aI23
atp2515
Rp2516
ag14
((lp2517
I20
atp2518
Rp2519
ag14
((lp2520
I-16
aI19
aI-9
atp2521
Rp2522
ag14
((lp2523
I-16
aI-10
atp2524
Rp2525
ag14
((lp2526
tp2527
Rp2528
ag14
((lp2529
tp2530
Rp2531
ag14
((lp2532
tp2533
Rp2534
ag14
((lp2535
tp2536
Rp2537
ag14
((lp2538
tp2539
Rp2540
ag14
((lp2541
tp2542
Rp2543
ag14
((lp2544
tp2545
Rp2546
ag14
((lp2547
I9
aI2
atp2548
Rp2549
atp2550
b.