cnumpy.core.multiarray
_reconstruct
p0
(cnumpy
ndarray
p1
(I0
tp2
S'b'
p3
tp4
Rp5
(I1
(I371
tp6
cnumpy
dtype
p7
(S'O8'
p8
I0
I1
tp9
Rp10
(I3
S'|'
p11
NNNI-1
I-1
I63
tp12
bI00
(lp13
c__builtin__
set
p14
((lp15
tp16
Rp17
ag14
((lp18
tp19
Rp20
ag14
((lp21
tp22
Rp23
ag14
((lp24
tp25
Rp26
ag14
((lp27
tp28
Rp29
ag14
((lp30
tp31
Rp32
ag14
((lp33
tp34
Rp35
ag14
((lp36
tp37
Rp38
ag14
((lp39
tp40
Rp41
ag14
((lp42
tp43
Rp44
ag14
((lp45
I-7
aI-9
atp46
Rp47
ag14
((lp48
I-3
atp49
Rp50
ag14
((lp51
tp52
Rp53
ag14
((lp54
tp55
Rp56
ag14
((lp57
tp58
Rp59
ag14
((lp60
tp61
Rp62
ag14
((lp63
tp64
Rp65
ag14
((lp66
tp67
Rp68
ag14
((lp69
I19
atp70
Rp71
ag14
((lp72
I18
atp73
Rp74
ag14
((lp75
tp76
Rp77
ag14
((lp78
tp79
Rp80
ag14
((lp81
tp82
Rp83
ag14
((lp84
tp85
Rp86
ag14
((lp87
tp88
Rp89
ag14
((lp90
tp91
Rp92
ag14
((lp93
tp94
Rp95
ag14
((lp96
tp97
Rp98
ag14
((lp99
I30
aI31
atp100
Rp101
ag14
((lp102
I-28
atp103
Rp104
ag14
((lp105
I28
aI31
atp106
Rp107
ag14
((lp108
I28
aI30
atp109
Rp110
ag14
((lp111
tp112
Rp113
ag14
((lp114
tp115
Rp116
ag14
((lp117
tp118
Rp119
ag14
((lp120
tp121
Rp122
ag14
((lp123
tp124
Rp125
ag14
((lp126
tp127
Rp128
ag14
((lp129
tp130
Rp131
ag14
((lp132
I40
atp133
Rp134
ag14
((lp135
I39
atp136
Rp137
ag14
((lp138
tp139
Rp140
ag14
((lp141
tp142
Rp143
ag14
((lp144
tp145
Rp146
ag14
((lp147
tp148
Rp149
ag14
((lp150
tp151
Rp152
ag14
((lp153
tp154
Rp155
ag14
((lp156
tp157
Rp158
ag14
((lp159
I-47
atp160
Rp161
ag14
((lp162
tp163
Rp164
ag14
((lp165
tp166
Rp167
ag14
((lp168
tp169
Rp170
ag14
((lp171
tp172
Rp173
ag14
((lp174
tp175
Rp176
ag14
((lp177
tp178
Rp179
ag14
((lp180
tp181
Rp182
ag14
((lp183
tp184
Rp185
ag14
((lp186
tp187
Rp188
ag14
((lp189
tp190
Rp191
ag14
((lp192
tp193
Rp194
ag14
((lp195
tp196
Rp197
ag14
((lp198
tp199
Rp200
ag14
((lp201
tp202
Rp203
ag14
((lp204
I64
aI65
aI66
aI67
atp205
Rp206
ag14
((lp207
I65
aI66
aI67
aI63
atp208
Rp209
ag14
((lp210
I64
aI67
aI63
atp211
Rp212
ag14
((lp213
I64
aI63
atp214
Rp215
ag14
((lp216
I64
aI65
aI63
atp217
Rp218
ag14
((lp219
tp220
Rp221
ag14
((lp222
I70
aI71
atp223
Rp224
ag14
((lp225
I69
aI71
atp226
Rp227
ag14
((lp228
I69
aI70
atp229
Rp230
ag14
((lp231
tp232
Rp233
ag14
((lp234
tp235
Rp236
ag14
((lp237
I75
atp238
Rp239
ag14
((lp240
I74
atp241
Rp242
ag14
((lp243
I-64
aI-62
aI-58
aI-73
aI-52
aI78
atp244
Rp245
ag14
((lp246
tp247
Rp248
ag14
((lp249
I-64
aI-62
aI-58
aI-73
aI76
aI-52
atp250
Rp251
ag14
((lp252
I-74
atp253
Rp254
ag14
((lp255
tp256
Rp257
ag14
((lp258
tp259
Rp260
ag14
((lp261
tp262
Rp263
ag14
((lp264
tp265
Rp266
ag14
((lp267
I-82
atp268
Rp269
ag14
((lp270
tp271
Rp272
ag14
((lp273
I-85
atp274
Rp275
ag14
((lp276
tp277
Rp278
ag14
((lp279
I-78
atp280
Rp281
ag14
((lp282
tp283
Rp284
ag14
((lp285
tp286
Rp287
ag14
((lp288
tp289
Rp290
ag14
((lp291
I-91
atp292
Rp293
ag14
((lp294
tp295
Rp296
ag14
((lp297
I95
atp298
Rp299
ag14
((lp300
I94
atp301
Rp302
ag14
((lp303
I97
aI-95
atp304
Rp305
ag14
((lp306
I96
aI-95
atp307
Rp308
ag14
((lp309
tp310
Rp311
ag14
((lp312
tp313
Rp314
ag14
((lp315
tp316
Rp317
ag14
((lp318
tp319
Rp320
ag14
((lp321
tp322
Rp323
ag14
((lp324
tp325
Rp326
ag14
((lp327
I105
atp328
Rp329
ag14
((lp330
I104
atp331
Rp332
ag14
((lp333
I-96
aI-92
aI107
aI108
aI109
aI-104
aI-103
aI-102
aI-100
atp334
Rp335
ag14
((lp336
I-96
aI-92
aI106
aI108
aI109
aI-104
aI-103
aI-102
atp337
Rp338
ag14
((lp339
I-96
aI-92
aI106
aI107
aI109
aI-104
aI-103
aI-102
atp340
Rp341
ag14
((lp342
I-96
aI-92
aI106
aI107
aI108
aI-104
aI-103
aI-102
atp343
Rp344
ag14
((lp345
tp346
Rp347
ag14
((lp348
tp349
Rp350
ag14
((lp351
tp352
Rp353
ag14
((lp354
tp355
Rp356
ag14
((lp357
tp358
Rp359
ag14
((lp360
tp361
Rp362
ag14
((lp363
I-105
atp364
Rp365
ag14
((lp366
tp367
Rp368
ag14
((lp369
I-117
atp370
Rp371
ag14
((lp372
tp373
Rp374
ag14
((lp375
tp376
Rp377
ag14
((lp378
tp379
Rp380
ag14
((lp381
tp382
Rp383
ag14
((lp384
tp385
Rp386
ag14
((lp387
tp388
Rp389
ag14
((lp390
tp391
Rp392
ag14
((lp393
tp394
Rp395
ag14
((lp396
tp397
Rp398
ag14
((lp399
tp400
Rp401
ag14
((lp402
tp403
Rp404
ag14
((lp405
I-127
atp406
Rp407
ag14
((lp408
tp409
Rp410
ag14
((lp411
tp412
Rp413
ag14
((lp414
tp415
Rp416
ag14
((lp417
I-132
atp418
Rp419
ag14
((lp420
tp421
Rp422
ag14
((lp423
tp424
Rp425
ag14
((lp426
tp427
Rp428
ag14
((lp429
tp430
Rp431
ag14
((lp432
tp433
Rp434
ag14
((lp435
tp436
Rp437
ag14
((lp438
tp439
Rp440
ag14
((lp441
tp442
Rp443
ag14
((lp444
tp445
Rp446
ag14
((lp447
tp448
Rp449
ag14
((lp450
tp451
Rp452
ag14
((lp453
tp454
Rp455
ag14
((lp456
tp457
Rp458
ag14
((lp459
tp460
Rp461
ag14
((lp462
tp463
Rp464
ag14
((lp465
tp466
Rp467
ag14
((lp468
tp469
Rp470
ag14
((lp471
tp472
Rp473
ag14
((lp474
tp475
Rp476
ag14
((lp477
tp478
Rp479
ag14
((lp480
tp481
Rp482
ag14
((lp483
tp484
Rp485
ag14
((lp486
tp487
Rp488
ag14
((lp489
tp490
Rp491
ag14
((lp492
tp493
Rp494
ag14
((lp495
tp496
Rp497
ag14
((lp498
tp499
Rp500
ag14
((lp501
tp502
Rp503
ag14
((lp504
tp505
Rp506
ag14
((lp507
tp508
Rp509
ag14
((lp510
tp511
Rp512
ag14
((lp513
tp514
Rp515
ag14
((lp516
tp517
Rp518
ag14
((lp519
tp520
Rp521
ag14
((lp522
tp523
Rp524
ag14
((lp525
tp526
Rp527
ag14
((lp528
tp529
Rp530
ag14
((lp531
tp532
Rp533
ag14
((lp534
tp535
Rp536
ag14
((lp537
tp538
Rp539
ag14
((lp540
tp541
Rp542
ag14
((lp543
tp544
Rp545
ag14
((lp546
tp547
Rp548
ag14
((lp549
tp550
Rp551
ag14
((lp552
tp553
Rp554
ag14
((lp555
I181
atp556
Rp557
ag14
((lp558
I180
atp559
Rp560
ag14
((lp561
tp562
Rp563
ag14
((lp564
tp565
Rp566
ag14
((lp567
tp568
Rp569
ag14
((lp570
tp571
Rp572
ag14
((lp573
tp574
Rp575
ag14
((lp576
tp577
Rp578
ag14
((lp579
tp580
Rp581
ag14
((lp582
tp583
Rp584
ag14
((lp585
tp586
Rp587
ag14
((lp588
tp589
Rp590
ag14
((lp591
tp592
Rp593
ag14
((lp594
tp595
Rp596
ag14
((lp597
tp598
Rp599
ag14
((lp600
tp601
Rp602
ag14
((lp603
tp604
Rp605
ag14
((lp606
tp607
Rp608
ag14
((lp609
tp610
Rp611
ag14
((lp612
tp613
Rp614
ag14
((lp615
tp616
Rp617
ag14
((lp618
tp619
Rp620
ag14
((lp621
tp622
Rp623
ag14
((lp624
tp625
Rp626
ag14
((lp627
tp628
Rp629
ag14
((lp630
tp631
Rp632
ag14
((lp633
I-164
atp634
Rp635
ag14
((lp636
I-165
atp637
Rp638
ag14
((lp639
tp640
Rp641
ag14
((lp642
tp643
Rp644
ag14
((lp645
tp646
Rp647
ag14
((lp648
tp649
Rp650
ag14
((lp651
tp652
Rp653
ag14
((lp654
tp655
Rp656
ag14
((lp657
tp658
Rp659
ag14
((lp660
tp661
Rp662
ag14
((lp663
tp664
Rp665
ag14
((lp666
tp667
Rp668
ag14
((lp669
tp670
Rp671
ag14
((lp672
tp673
Rp674
ag14
((lp675
tp676
Rp677
ag14
((lp678
tp679
Rp680
ag14
((lp681
tp682
Rp683
ag14
((lp684
tp685
Rp686
ag14
((lp687
tp688
Rp689
ag14
((lp690
tp691
Rp692
ag14
((lp693
tp694
Rp695
ag14
((lp696
tp697
Rp698
ag14
((lp699
tp700
Rp701
ag14
((lp702
I-141
atp703
Rp704
ag14
((lp705
I-142
atp706
Rp707
ag14
((lp708
tp709
Rp710
ag14
((lp711
tp712
Rp713
ag14
((lp714
tp715
Rp716
ag14
((lp717
tp718
Rp719
ag14
((lp720
tp721
Rp722
ag14
((lp723
tp724
Rp725
ag14
((lp726
tp727
Rp728
ag14
((lp729
tp730
Rp731
ag14
((lp732
I134
atp733
Rp734
ag14
((lp735
tp736
Rp737
ag14
((lp738
tp739
Rp740
ag14
((lp741
tp742
Rp743
ag14
((lp744
tp745
Rp746
ag14
((lp747
I130
atp748
Rp749
ag14
((lp750
tp751
Rp752
ag14
((lp753
tp754
Rp755
ag14
((lp756
tp757
Rp758
ag14
((lp759
tp760
Rp761
ag14
((lp762
tp763
Rp764
ag14
((lp765
tp766
Rp767
ag14
((lp768
tp769
Rp770
ag14
((lp771
tp772
Rp773
ag14
((lp774
tp775
Rp776
ag14
((lp777
I118
atp778
Rp779
ag14
((lp780
tp781
Rp782
ag14
((lp783
tp784
Rp785
ag14
((lp786
tp787
Rp788
ag14
((lp789
tp790
Rp791
ag14
((lp792
tp793
Rp794
ag14
((lp795
tp796
Rp797
ag14
((lp798
tp799
Rp800
ag14
((lp801
tp802
Rp803
ag14
((lp804
tp805
Rp806
ag14
((lp807
tp808
Rp809
ag14
((lp810
tp811
Rp812
ag14
((lp813
I116
atp814
Rp815
ag14
((lp816
I-96
aI-92
aI106
aI107
aI108
aI109
aI-103
aI-102
atp817
Rp818
ag14
((lp819
I-96
aI-92
aI106
aI107
aI108
aI109
aI-104
aI-102
atp820
Rp821
ag14
((lp822
I-96
aI-92
aI106
aI107
aI108
aI109
aI-104
aI-103
atp823
Rp824
ag14
((lp825
tp826
Rp827
ag14
((lp828
I-96
aI106
aI-97
atp829
Rp830
ag14
((lp831
tp832
Rp833
ag14
((lp834
tp835
Rp836
ag14
((lp837
I-100
atp838
Rp839
ag14
((lp840
I-92
aI106
aI107
aI108
aI109
aI-104
aI-103
aI-102
aI-100
atp841
Rp842
ag14
((lp843
I96
aI97
atp844
Rp845
ag14
((lp846
tp847
Rp848
ag14
((lp849
tp850
Rp851
ag14
((lp852
I-96
aI106
aI107
aI108
aI109
aI-104
aI-103
aI-102
atp853
Rp854
ag14
((lp855
I92
atp856
Rp857
ag14
((lp858
tp859
Rp860
ag14
((lp861
tp862
Rp863
ag14
((lp864
tp865
Rp866
ag14
((lp867
tp868
Rp869
ag14
((lp870
tp871
Rp872
ag14
((lp873
I86
atp874
Rp875
ag14
((lp876
tp877
Rp878
ag14
((lp879
tp880
Rp881
ag14
((lp882
I84
atp883
Rp884
ag14
((lp885
tp886
Rp887
ag14
((lp888
tp889
Rp890
ag14
((lp891
I-77
atp892
Rp893
ag14
((lp894
I88
atp895
Rp896
ag14
((lp897
I-79
atp898
Rp899
ag14
((lp900
tp901
Rp902
ag14
((lp903
tp904
Rp905
ag14
((lp906
I79
atp907
Rp908
ag14
((lp909
I-64
aI-62
aI-58
aI76
aI-52
aI78
atp910
Rp911
ag14
((lp912
tp913
Rp914
ag14
((lp915
tp916
Rp917
ag14
((lp918
tp919
Rp920
ag14
((lp921
tp922
Rp923
ag14
((lp924
tp925
Rp926
ag14
((lp927
tp928
Rp929
ag14
((lp930
tp931
Rp932
ag14
((lp933
I-61
atp934
Rp935
ag14
((lp936
I-62
aI-58
aI-73
aI-52
aI76
aI78
atp937
Rp938
ag14
((lp939
I-46
atp940
Rp941
ag14
((lp942
I-64
aI-58
aI-73
aI76
aI-52
aI78
atp943
Rp944
ag14
((lp945
I-65
atp946
Rp947
ag14
((lp948
tp949
Rp950
ag14
((lp951
tp952
Rp953
ag14
((lp954
I-64
aI-62
aI-73
aI76
aI-52
aI78
atp955
Rp956
ag14
((lp957
tp958
Rp959
ag14
((lp960
tp961
Rp962
ag14
((lp963
tp964
Rp965
ag14
((lp966
tp967
Rp968
ag14
((lp969
tp970
Rp971
ag14
((lp972
I-64
aI-62
aI-58
aI-73
aI76
aI78
atp973
Rp974
ag14
((lp975
tp976
Rp977
ag14
((lp978
tp979
Rp980
ag14
((lp981
tp982
Rp983
ag14
((lp984
I-40
aI-43
aI-41
atp985
Rp986
ag14
((lp987
I48
atp988
Rp989
ag14
((lp990
I-63
atp991
Rp992
ag14
((lp993
tp994
Rp995
ag14
((lp996
tp997
Rp998
ag14
((lp999
I-48
aI-40
aI-41
atp1000
Rp1001
ag14
((lp1002
tp1003
Rp1004
ag14
((lp1005
I-48
aI-40
aI-43
atp1006
Rp1007
ag14
((lp1008
I-48
aI-43
aI-41
atp1009
Rp1010
ag14
((lp1011
tp1012
Rp1013
ag14
((lp1014
tp1015
Rp1016
ag14
((lp1017
tp1018
Rp1019
ag14
((lp1020
tp1021
Rp1022
ag14
((lp1023
tp1024
Rp1025
ag14
((lp1026
tp1027
Rp1028
ag14
((lp1029
tp1030
Rp1031
ag14
((lp1032
tp1033
Rp1034
ag14
((lp1035
tp1036
Rp1037
ag14
((lp1038
tp1039
Rp1040
ag14
((lp1041
tp1042
Rp1043
ag14
((lp1044
I29
atp1045
Rp1046
ag14
((lp1047
tp1048
Rp1049
ag14
((lp1050
tp1051
Rp1052
ag14
((lp1053
tp1054
Rp1055
ag14
((lp1056
tp1057
Rp1058
ag14
((lp1059
tp1060
Rp1061
ag14
((lp1062
tp1063
Rp1064
ag14
((lp1065
tp1066
Rp1067
ag14
((lp1068
tp1069
Rp1070
ag14
((lp1071
tp1072
Rp1073
ag14
((lp1074
tp1075
Rp1076
ag14
((lp1077
tp1078
Rp1079
ag14
((lp1080
tp1081
Rp1082
ag14
((lp1083
tp1084
Rp1085
ag14
((lp1086
tp1087
Rp1088
ag14
((lp1089
tp1090
Rp1091
ag14
((lp1092
tp1093
Rp1094
ag14
((lp1095
tp1096
Rp1097
ag14
((lp1098
tp1099
Rp1100
ag14
((lp1101
I-7
aI10
atp1102
Rp1103
ag14
((lp1104
tp1105
Rp1106
ag14
((lp1107
I10
aI-9
atp1108
Rp1109
ag14
((lp1110
tp1111
Rp1112
ag14
((lp1113
tp1114
Rp1115
ag14
((lp1116
tp1117
Rp1118
ag14
((lp1119
I11
atp1120
Rp1121
ag14
((lp1122
tp1123
Rp1124
ag14
((lp1125
tp1126
Rp1127
atp1128
b.