cnumpy.core.multiarray
_reconstruct
p0
(cnumpy
ndarray
p1
(I0
tp2
S'b'
p3
tp4
Rp5
(I1
(I27
tp6
cnumpy
dtype
p7
(S'O8'
p8
I0
I1
tp9
Rp10
(I3
S'|'
p11
NNNI-1
I-1
I63
tp12
bI00
(lp13
c__builtin__
set
p14
((lp15
tp16
Rp17
ag14
((lp18
tp19
Rp20
ag14
((lp21
tp22
Rp23
ag14
((lp24
tp25
Rp26
ag14
((lp27
tp28
Rp29
ag14
((lp30
I6
atp31
Rp32
ag14
((lp33
I5
atp34
Rp35
ag14
((lp36
tp37
Rp38
ag14
((lp39
tp40
Rp41
ag14
((lp42
I-4
atp43
Rp44
ag14
((lp45
tp46
Rp47
ag14
((lp48
tp49
Rp50
ag14
((lp51
tp52
Rp53
ag14
((lp54
tp55
Rp56
ag14
((lp57
tp58
Rp59
ag14
((lp60
tp61
Rp62
ag14
((lp63
tp64
Rp65
ag14
((lp66
tp67
Rp68
ag14
((lp69
tp70
Rp71
ag14
((lp72
tp73
Rp74
ag14
((lp75
tp76
Rp77
ag14
((lp78
tp79
Rp80
ag14
((lp81
tp82
Rp83
ag14
((lp84
I9
atp85
Rp86
ag14
((lp87
tp88
Rp89
ag14
((lp90
tp91
Rp92
ag14
((lp93
tp94
Rp95
atp96
b.