cnumpy.core.multiarray
_reconstruct
p0
(cnumpy
ndarray
p1
(I0
tp2
S'b'
p3
tp4
Rp5
(I1
(I293
tp6
cnumpy
dtype
p7
(S'O8'
p8
I0
I1
tp9
Rp10
(I3
S'|'
p11
NNNI-1
I-1
I63
tp12
bI00
(lp13
c__builtin__
set
p14
((lp15
tp16
Rp17
ag14
((lp18
tp19
Rp20
ag14
((lp21
tp22
Rp23
ag14
((lp24
I-2
atp25
Rp26
ag14
((lp27
tp28
Rp29
ag14
((lp30
tp31
Rp32
ag14
((lp33
tp34
Rp35
ag14
((lp36
tp37
Rp38
ag14
((lp39
tp40
Rp41
ag14
((lp42
tp43
Rp44
ag14
((lp45
tp46
Rp47
ag14
((lp48
tp49
Rp50
ag14
((lp51
tp52
Rp53
ag14
((lp54
tp55
Rp56
ag14
((lp57
tp58
Rp59
ag14
((lp60
tp61
Rp62
ag14
((lp63
tp64
Rp65
ag14
((lp66
I18
aI19
aI-13
atp67
Rp68
ag14
((lp69
I17
aI19
aI-13
atp70
Rp71
ag14
((lp72
I17
aI18
aI-13
atp73
Rp74
ag14
((lp75
tp76
Rp77
ag14
((lp78
tp79
Rp80
ag14
((lp81
tp82
Rp83
ag14
((lp84
tp85
Rp86
ag14
((lp87
tp88
Rp89
ag14
((lp90
tp91
Rp92
ag14
((lp93
tp94
Rp95
ag14
((lp96
tp97
Rp98
ag14
((lp99
tp100
Rp101
ag14
((lp102
tp103
Rp104
ag14
((lp105
tp106
Rp107
ag14
((lp108
tp109
Rp110
ag14
((lp111
tp112
Rp113
ag14
((lp114
tp115
Rp116
ag14
((lp117
I-33
atp118
Rp119
ag14
((lp120
tp121
Rp122
ag14
((lp123
I37
atp124
Rp125
ag14
((lp126
I36
atp127
Rp128
ag14
((lp129
tp130
Rp131
ag14
((lp132
tp133
Rp134
ag14
((lp135
tp136
Rp137
ag14
((lp138
I43
aI-40
aI42
aI-21
aI-36
aI-35
atp139
Rp140
ag14
((lp141
I41
aI-21
aI-36
atp142
Rp143
ag14
((lp144
I-40
aI41
aI-35
atp145
Rp146
ag14
((lp147
tp148
Rp149
ag14
((lp150
tp151
Rp152
ag14
((lp153
tp154
Rp155
ag14
((lp156
tp157
Rp158
ag14
((lp159
tp160
Rp161
ag14
((lp162
tp163
Rp164
ag14
((lp165
tp166
Rp167
ag14
((lp168
tp169
Rp170
ag14
((lp171
tp172
Rp173
ag14
((lp174
tp175
Rp176
ag14
((lp177
tp178
Rp179
ag14
((lp180
I-37
aI-22
aI-41
aI-51
aI61
aI-46
aI57
aI56
aI-39
aI58
aI59
aI60
aI-54
atp181
Rp182
ag14
((lp183
I-41
aI55
aI-54
aI59
aI-51
aI-50
atp184
Rp185
ag14
((lp186
I59
aI-22
aI-41
aI-51
aI61
aI-46
aI58
aI55
aI-39
aI-37
aI60
aI-54
atp187
Rp188
ag14
((lp189
I-39
aI-22
aI55
aI-51
aI-54
aI-46
aI-41
aI57
aI-37
aI60
aI61
atp190
Rp191
ag14
((lp192
I-54
aI-41
aI-51
aI-50
aI57
aI55
aI56
aI-39
aI60
atp193
Rp194
ag14
((lp195
I59
aI-22
aI-41
aI-51
aI61
aI-46
aI58
aI55
aI57
aI-39
aI-37
aI-54
atp196
Rp197
ag14
((lp198
I-22
aI55
aI-51
aI-54
aI-46
aI57
aI-41
aI-39
aI58
aI-37
aI60
atp199
Rp200
ag14
((lp201
I-32
aI-30
aI-22
aI-53
aI-52
aI-51
aI-49
aI-47
aI-44
aI-41
aI-37
atp202
Rp203
ag14
((lp204
I66
aI-59
aI-58
atp205
Rp206
ag14
((lp207
I66
atp208
Rp209
ag14
((lp210
I-59
aI-58
atp211
Rp212
ag14
((lp213
I64
aI-58
aI63
atp214
Rp215
ag14
((lp216
I-43
atp217
Rp218
ag14
((lp219
tp220
Rp221
ag14
((lp222
I-65
atp223
Rp224
ag14
((lp225
tp226
Rp227
ag14
((lp228
tp229
Rp230
ag14
((lp231
tp232
Rp233
ag14
((lp234
tp235
Rp236
ag14
((lp237
tp238
Rp239
ag14
((lp240
tp241
Rp242
ag14
((lp243
tp244
Rp245
ag14
((lp246
tp247
Rp248
ag14
((lp249
tp250
Rp251
ag14
((lp252
tp253
Rp254
ag14
((lp255
tp256
Rp257
ag14
((lp258
tp259
Rp260
ag14
((lp261
tp262
Rp263
ag14
((lp264
tp265
Rp266
ag14
((lp267
tp268
Rp269
ag14
((lp270
tp271
Rp272
ag14
((lp273
tp274
Rp275
ag14
((lp276
tp277
Rp278
ag14
((lp279
tp280
Rp281
ag14
((lp282
tp283
Rp284
ag14
((lp285
tp286
Rp287
ag14
((lp288
tp289
Rp290
ag14
((lp291
tp292
Rp293
ag14
((lp294
tp295
Rp296
ag14
((lp297
tp298
Rp299
ag14
((lp300
tp301
Rp302
ag14
((lp303
tp304
Rp305
ag14
((lp306
tp307
Rp308
ag14
((lp309
tp310
Rp311
ag14
((lp312
tp313
Rp314
ag14
((lp315
tp316
Rp317
ag14
((lp318
tp319
Rp320
ag14
((lp321
tp322
Rp323
ag14
((lp324
tp325
Rp326
ag14
((lp327
I105
atp328
Rp329
ag14
((lp330
I104
atp331
Rp332
ag14
((lp333
tp334
Rp335
ag14
((lp336
I108
aI109
aI-106
aI111
atp337
Rp338
ag14
((lp339
I-106
aI-102
aI107
aI109
aI111
atp340
Rp341
ag14
((lp342
I107
aI108
aI110
aI111
aI112
aI-106
aI-104
aI-102
atp343
Rp344
ag14
((lp345
I112
aI-106
aI-104
aI-102
aI109
aI111
atp346
Rp347
ag14
((lp348
I107
aI108
aI109
aI110
aI112
aI-106
aI-104
aI-102
atp349
Rp350
ag14
((lp351
I-106
aI-104
aI-102
aI109
aI110
aI111
atp352
Rp353
ag14
((lp354
tp355
Rp356
ag14
((lp357
I-113
aI-111
aI116
aI117
aI118
aI-105
aI-101
atp358
Rp359
ag14
((lp360
I-111
aI119
atp361
Rp362
ag14
((lp363
I-113
aI-111
aI114
aI117
aI118
aI-105
aI-101
atp364
Rp365
ag14
((lp366
I-111
aI114
aI116
aI-105
aI-101
aI-113
atp367
Rp368
ag14
((lp369
I-111
aI114
aI116
aI-113
atp370
Rp371
ag14
((lp372
I-111
aI115
atp373
Rp374
ag14
((lp375
tp376
Rp377
ag14
((lp378
tp379
Rp380
ag14
((lp381
I-120
aI-116
atp382
Rp383
ag14
((lp384
tp385
Rp386
ag14
((lp387
tp388
Rp389
ag14
((lp390
I126
atp391
Rp392
ag14
((lp393
I125
atp394
Rp395
ag14
((lp396
tp397
Rp398
ag14
((lp399
I-122
atp400
Rp401
ag14
((lp402
I-112
aI130
atp403
Rp404
ag14
((lp405
I-112
aI129
atp406
Rp407
ag14
((lp408
tp409
Rp410
ag14
((lp411
tp412
Rp413
ag14
((lp414
tp415
Rp416
ag14
((lp417
tp418
Rp419
ag14
((lp420
tp421
Rp422
ag14
((lp423
tp424
Rp425
ag14
((lp426
tp427
Rp428
ag14
((lp429
I-133
aI-137
aI-136
aI-135
aI139
aI-129
atp430
Rp431
ag14
((lp432
I-137
aI-136
aI-135
aI138
aI-133
atp433
Rp434
ag14
((lp435
tp436
Rp437
ag14
((lp438
I142
atp439
Rp440
ag14
((lp441
I141
atp442
Rp443
ag14
((lp444
I-131
atp445
Rp446
ag14
((lp447
tp448
Rp449
ag14
((lp450
tp451
Rp452
ag14
((lp453
tp454
Rp455
ag14
((lp456
tp457
Rp458
ag14
((lp459
tp460
Rp461
ag14
((lp462
tp463
Rp464
ag14
((lp465
I-142
aI-140
aI-139
aI-130
atp466
Rp467
ag14
((lp468
I-143
aI-140
aI-139
aI-130
atp469
Rp470
ag14
((lp471
I-126
atp472
Rp473
ag14
((lp474
I-143
aI-142
aI-139
aI-130
atp475
Rp476
ag14
((lp477
I-143
aI-142
aI-140
aI-130
atp478
Rp479
ag14
((lp480
tp481
Rp482
ag14
((lp483
I-133
aI-136
aI-135
aI138
aI139
aI-129
atp484
Rp485
ag14
((lp486
I-133
aI-137
aI-135
aI138
aI139
aI-129
atp487
Rp488
ag14
((lp489
I139
aI-137
aI-136
aI138
aI-133
aI-129
atp490
Rp491
ag14
((lp492
tp493
Rp494
ag14
((lp495
I139
aI-137
aI-136
aI-135
aI138
aI-129
atp496
Rp497
ag14
((lp498
tp499
Rp500
ag14
((lp501
I143
atp502
Rp503
ag14
((lp504
I-143
aI-142
aI-140
aI-139
atp505
Rp506
ag14
((lp507
I-137
aI-136
aI-135
aI138
aI-133
atp508
Rp509
ag14
((lp510
tp511
Rp512
ag14
((lp513
tp514
Rp515
ag14
((lp516
I-141
atp517
Rp518
ag14
((lp519
tp520
Rp521
ag14
((lp522
tp523
Rp524
ag14
((lp525
tp526
Rp527
ag14
((lp528
I128
atp529
Rp530
ag14
((lp531
tp532
Rp533
ag14
((lp534
I122
atp535
Rp536
ag14
((lp537
tp538
Rp539
ag14
((lp540
tp541
Rp542
ag14
((lp543
tp544
Rp545
ag14
((lp546
I122
atp547
Rp548
ag14
((lp549
I-114
atp550
Rp551
ag14
((lp552
I-115
atp553
Rp554
ag14
((lp555
I-111
aI114
aI116
aI117
aI118
aI-105
aI-101
atp556
Rp557
ag14
((lp558
I129
aI130
atp559
Rp560
ag14
((lp561
I-105
aI-113
aI114
aI115
aI116
aI117
aI118
aI119
aI-101
atp562
Rp563
ag14
((lp564
tp565
Rp566
ag14
((lp567
tp568
Rp569
ag14
((lp570
tp571
Rp572
ag14
((lp573
tp574
Rp575
ag14
((lp576
I107
aI108
aI109
aI110
aI111
aI112
aI-104
aI-102
atp577
Rp578
ag14
((lp579
I-111
aI114
aI116
aI117
aI-101
aI-113
atp580
Rp581
ag14
((lp582
I112
aI-106
aI-102
aI109
aI110
aI111
atp583
Rp584
ag14
((lp585
tp586
Rp587
ag14
((lp588
I108
aI109
aI110
aI111
aI112
aI-106
aI-104
atp589
Rp590
ag14
((lp591
I-111
aI114
aI116
aI117
aI-105
aI-113
atp592
Rp593
ag14
((lp594
tp595
Rp596
ag14
((lp597
tp598
Rp599
ag14
((lp600
tp601
Rp602
ag14
((lp603
tp604
Rp605
ag14
((lp606
tp607
Rp608
ag14
((lp609
tp610
Rp611
ag14
((lp612
tp613
Rp614
ag14
((lp615
tp616
Rp617
ag14
((lp618
tp619
Rp620
ag14
((lp621
tp622
Rp623
ag14
((lp624
tp625
Rp626
ag14
((lp627
tp628
Rp629
ag14
((lp630
tp631
Rp632
ag14
((lp633
I-86
atp634
Rp635
ag14
((lp636
I-87
atp637
Rp638
ag14
((lp639
tp640
Rp641
ag14
((lp642
I-81
atp643
Rp644
ag14
((lp645
tp646
Rp647
ag14
((lp648
tp649
Rp650
ag14
((lp651
I-84
atp652
Rp653
ag14
((lp654
tp655
Rp656
ag14
((lp657
tp658
Rp659
ag14
((lp660
tp661
Rp662
ag14
((lp663
tp664
Rp665
ag14
((lp666
tp667
Rp668
ag14
((lp669
tp670
Rp671
ag14
((lp672
tp673
Rp674
ag14
((lp675
tp676
Rp677
ag14
((lp678
tp679
Rp680
ag14
((lp681
tp682
Rp683
ag14
((lp684
tp685
Rp686
ag14
((lp687
tp688
Rp689
ag14
((lp690
tp691
Rp692
ag14
((lp693
tp694
Rp695
ag14
((lp696
tp697
Rp698
ag14
((lp699
I69
atp700
Rp701
ag14
((lp702
I-60
atp703
Rp704
ag14
((lp705
I-61
atp706
Rp707
ag14
((lp708
tp709
Rp710
ag14
((lp711
I-63
atp712
Rp713
ag14
((lp714
I-64
atp715
Rp716
ag14
((lp717
I65
aI-58
aI63
atp718
Rp719
ag14
((lp720
I65
aI66
aI-59
aI63
atp721
Rp722
ag14
((lp723
tp724
Rp725
ag14
((lp726
tp727
Rp728
ag14
((lp729
tp730
Rp731
ag14
((lp732
I-37
aI-22
aI55
aI-51
aI-46
aI58
aI-41
aI56
aI57
aI-39
aI59
aI60
aI61
atp733
Rp734
ag14
((lp735
I-32
aI-30
aI-22
aI-52
aI-51
aI-49
aI-47
aI-44
aI-41
aI-37
aI62
atp736
Rp737
ag14
((lp738
I-32
aI-30
aI-22
aI-53
aI-51
aI-49
aI-47
aI-44
aI-41
aI-37
aI62
atp739
Rp740
ag14
((lp741
I-54
aI-53
aI-52
aI-49
aI-47
aI-46
aI-44
aI-41
aI-39
aI-37
aI-32
aI-30
aI-22
aI55
aI56
aI57
aI58
aI59
aI60
aI61
aI62
atp742
Rp743
ag14
((lp744
I56
aI59
aI-41
atp745
Rp746
ag14
((lp747
I-32
aI-30
aI-22
aI-53
aI-52
aI-51
aI-47
aI-44
aI-41
aI-39
aI-37
aI62
atp748
Rp749
ag14
((lp750
tp751
Rp752
ag14
((lp753
I-32
aI-30
aI-22
aI-53
aI-52
aI-51
aI-49
aI-44
aI-41
aI-39
aI-37
aI62
atp754
Rp755
ag14
((lp756
I-22
aI55
aI-51
aI61
aI57
aI-41
aI-39
aI58
aI-37
aI60
aI-54
atp757
Rp758
ag14
((lp759
tp760
Rp761
ag14
((lp762
I-32
aI-30
aI-22
aI-53
aI-52
aI-51
aI-49
aI-47
aI-41
aI-37
aI62
atp763
Rp764
ag14
((lp765
I67
atp766
Rp767
ag14
((lp768
tp769
Rp770
ag14
((lp771
I-54
aI-53
aI-52
aI-51
aI-50
aI-49
aI-47
aI-46
aI-44
aI-39
aI-37
aI-32
aI-30
aI-22
aI55
aI56
aI57
aI58
aI59
aI60
aI61
aI62
atp772
Rp773
ag14
((lp774
I41
aI43
aI-35
atp775
Rp776
ag14
((lp777
I-54
aI-51
aI-49
aI-47
aI-46
aI-41
aI-37
aI-32
aI-30
aI-22
aI55
aI57
aI58
aI59
aI60
aI61
atp778
Rp779
ag14
((lp780
tp781
Rp782
ag14
((lp783
I-54
aI-53
aI-52
aI-51
aI-49
aI-47
aI-46
aI-44
aI-41
aI-39
aI-32
aI-30
aI-22
aI55
aI57
aI58
aI60
aI61
aI62
atp784
Rp785
ag14
((lp786
I41
aI42
aI-21
atp787
Rp788
ag14
((lp789
I-40
aI41
aI43
atp790
Rp791
ag14
((lp792
tp793
Rp794
ag14
((lp795
I34
atp796
Rp797
ag14
((lp798
I-30
aI-22
aI-53
aI-52
aI-51
aI-49
aI-47
aI-44
aI-41
aI-39
aI-37
aI62
atp799
Rp800
ag14
((lp801
tp802
Rp803
ag14
((lp804
I-32
aI-22
aI-53
aI-52
aI-51
aI-49
aI-47
aI-44
aI-41
aI-39
aI-37
aI62
atp805
Rp806
ag14
((lp807
tp808
Rp809
ag14
((lp810
tp811
Rp812
ag14
((lp813
I-26
atp814
Rp815
ag14
((lp816
I-27
atp817
Rp818
ag14
((lp819
tp820
Rp821
ag14
((lp822
tp823
Rp824
ag14
((lp825
tp826
Rp827
ag14
((lp828
I-54
aI-53
aI-52
aI-51
aI-49
aI-47
aI-46
aI-44
aI-41
aI-39
aI-37
aI-32
aI-30
aI55
aI57
aI58
aI60
aI61
aI62
atp829
Rp830
ag14
((lp831
I41
aI42
aI-36
atp832
Rp833
ag14
((lp834
tp835
Rp836
ag14
((lp837
tp838
Rp839
ag14
((lp840
tp841
Rp842
ag14
((lp843
tp844
Rp845
ag14
((lp846
tp847
Rp848
ag14
((lp849
tp850
Rp851
ag14
((lp852
tp853
Rp854
ag14
((lp855
I17
aI18
aI19
atp856
Rp857
ag14
((lp858
tp859
Rp860
ag14
((lp861
tp862
Rp863
ag14
((lp864
tp865
Rp866
ag14
((lp867
tp868
Rp869
ag14
((lp870
tp871
Rp872
ag14
((lp873
tp874
Rp875
ag14
((lp876
tp877
Rp878
ag14
((lp879
tp880
Rp881
ag14
((lp882
tp883
Rp884
ag14
((lp885
tp886
Rp887
ag14
((lp888
I3
atp889
Rp890
ag14
((lp891
tp892
Rp893
atp894
b.