cnumpy.core.multiarray
_reconstruct
p0
(cnumpy
ndarray
p1
(I0
tp2
S'b'
p3
tp4
Rp5
(I1
(I145
tp6
cnumpy
dtype
p7
(S'O8'
p8
I0
I1
tp9
Rp10
(I3
S'|'
p11
NNNI-1
I-1
I63
tp12
bI00
(lp13
c__builtin__
set
p14
((lp15
tp16
Rp17
ag14
((lp18
tp19
Rp20
ag14
((lp21
tp22
Rp23
ag14
((lp24
tp25
Rp26
ag14
((lp27
tp28
Rp29
ag14
((lp30
tp31
Rp32
ag14
((lp33
tp34
Rp35
ag14
((lp36
tp37
Rp38
ag14
((lp39
tp40
Rp41
ag14
((lp42
tp43
Rp44
ag14
((lp45
tp46
Rp47
ag14
((lp48
tp49
Rp50
ag14
((lp51
tp52
Rp53
ag14
((lp54
tp55
Rp56
ag14
((lp57
tp58
Rp59
ag14
((lp60
I16
atp61
Rp62
ag14
((lp63
I15
atp64
Rp65
ag14
((lp66
tp67
Rp68
ag14
((lp69
I-15
aI-14
atp70
Rp71
ag14
((lp72
I20
atp73
Rp74
ag14
((lp75
I19
atp76
Rp77
ag14
((lp78
tp79
Rp80
ag14
((lp81
tp82
Rp83
ag14
((lp84
tp85
Rp86
ag14
((lp87
tp88
Rp89
ag14
((lp90
tp91
Rp92
ag14
((lp93
I-21
atp94
Rp95
ag14
((lp96
tp97
Rp98
ag14
((lp99
tp100
Rp101
ag14
((lp102
tp103
Rp104
ag14
((lp105
I31
atp106
Rp107
ag14
((lp108
I30
atp109
Rp110
ag14
((lp111
I-29
atp112
Rp113
ag14
((lp114
tp115
Rp116
ag14
((lp117
tp118
Rp119
ag14
((lp120
tp121
Rp122
ag14
((lp123
tp124
Rp125
ag14
((lp126
tp127
Rp128
ag14
((lp129
I-37
atp130
Rp131
ag14
((lp132
I40
atp133
Rp134
ag14
((lp135
I39
atp136
Rp137
ag14
((lp138
I-33
atp139
Rp140
ag14
((lp141
tp142
Rp143
ag14
((lp144
tp145
Rp146
ag14
((lp147
tp148
Rp149
ag14
((lp150
tp151
Rp152
ag14
((lp153
I-22
atp154
Rp155
ag14
((lp156
tp157
Rp158
ag14
((lp159
tp160
Rp161
ag14
((lp162
tp163
Rp164
ag14
((lp165
tp166
Rp167
ag14
((lp168
tp169
Rp170
ag14
((lp171
tp172
Rp173
ag14
((lp174
tp175
Rp176
ag14
((lp177
tp178
Rp179
ag14
((lp180
tp181
Rp182
ag14
((lp183
tp184
Rp185
ag14
((lp186
tp187
Rp188
ag14
((lp189
tp190
Rp191
ag14
((lp192
tp193
Rp194
ag14
((lp195
tp196
Rp197
ag14
((lp198
tp199
Rp200
ag14
((lp201
tp202
Rp203
ag14
((lp204
I-56
aI-61
aI-58
atp205
Rp206
ag14
((lp207
tp208
Rp209
ag14
((lp210
tp211
Rp212
ag14
((lp213
tp214
Rp215
ag14
((lp216
tp217
Rp218
ag14
((lp219
tp220
Rp221
ag14
((lp222
I-68
atp223
Rp224
ag14
((lp225
tp226
Rp227
ag14
((lp228
tp229
Rp230
ag14
((lp231
tp232
Rp233
ag14
((lp234
I-70
atp235
Rp236
ag14
((lp237
tp238
Rp239
ag14
((lp240
I-72
atp241
Rp242
ag14
((lp243
tp244
Rp245
ag14
((lp246
I69
atp247
Rp248
ag14
((lp249
tp250
Rp251
ag14
((lp252
tp253
Rp254
ag14
((lp255
tp256
Rp257
ag14
((lp258
tp259
Rp260
ag14
((lp261
tp262
Rp263
ag14
((lp264
tp265
Rp266
ag14
((lp267
I-56
aI63
atp268
Rp269
ag14
((lp270
tp271
Rp272
ag14
((lp273
tp274
Rp275
ag14
((lp276
I-56
aI63
atp277
Rp278
ag14
((lp279
tp280
Rp281
ag14
((lp282
I-61
aI-58
aI63
atp283
Rp284
ag14
((lp285
tp286
Rp287
ag14
((lp288
tp289
Rp290
ag14
((lp291
tp292
Rp293
ag14
((lp294
tp295
Rp296
ag14
((lp297
tp298
Rp299
ag14
((lp300
tp301
Rp302
ag14
((lp303
tp304
Rp305
ag14
((lp306
tp307
Rp308
ag14
((lp309
tp310
Rp311
ag14
((lp312
tp313
Rp314
ag14
((lp315
tp316
Rp317
ag14
((lp318
I-40
atp319
Rp320
ag14
((lp321
tp322
Rp323
ag14
((lp324
tp325
Rp326
ag14
((lp327
tp328
Rp329
ag14
((lp330
I-44
atp331
Rp332
ag14
((lp333
tp334
Rp335
ag14
((lp336
tp337
Rp338
ag14
((lp339
I38
atp340
Rp341
ag14
((lp342
tp343
Rp344
ag14
((lp345
tp346
Rp347
ag14
((lp348
tp349
Rp350
ag14
((lp351
I41
atp352
Rp353
ag14
((lp354
tp355
Rp356
ag14
((lp357
tp358
Rp359
ag14
((lp360
tp361
Rp362
ag14
((lp363
I32
atp364
Rp365
ag14
((lp366
tp367
Rp368
ag14
((lp369
tp370
Rp371
ag14
((lp372
tp373
Rp374
ag14
((lp375
tp376
Rp377
ag14
((lp378
tp379
Rp380
ag14
((lp381
tp382
Rp383
ag14
((lp384
I46
atp385
Rp386
ag14
((lp387
I26
atp388
Rp389
ag14
((lp390
tp391
Rp392
ag14
((lp393
tp394
Rp395
ag14
((lp396
I-16
atp397
Rp398
ag14
((lp399
tp400
Rp401
ag14
((lp402
I-18
atp403
Rp404
ag14
((lp405
I-14
aI18
atp406
Rp407
ag14
((lp408
I-15
aI18
atp409
Rp410
ag14
((lp411
tp412
Rp413
ag14
((lp414
tp415
Rp416
ag14
((lp417
tp418
Rp419
ag14
((lp420
tp421
Rp422
ag14
((lp423
tp424
Rp425
ag14
((lp426
tp427
Rp428
ag14
((lp429
tp430
Rp431
ag14
((lp432
tp433
Rp434
ag14
((lp435
tp436
Rp437
ag14
((lp438
tp439
Rp440
ag14
((lp441
tp442
Rp443
ag14
((lp444
tp445
Rp446
ag14
((lp447
tp448
Rp449
atp450
b.