cnumpy.core.multiarray
_reconstruct
p0
(cnumpy
ndarray
p1
(I0
tp2
S'b'
p3
tp4
Rp5
(I1
(I319
tp6
cnumpy
dtype
p7
(S'O8'
p8
I0
I1
tp9
Rp10
(I3
S'|'
p11
NNNI-1
I-1
I63
tp12
bI00
(lp13
c__builtin__
set
p14
((lp15
tp16
Rp17
ag14
((lp18
tp19
Rp20
ag14
((lp21
tp22
Rp23
ag14
((lp24
tp25
Rp26
ag14
((lp27
tp28
Rp29
ag14
((lp30
I-1
atp31
Rp32
ag14
((lp33
tp34
Rp35
ag14
((lp36
tp37
Rp38
ag14
((lp39
tp40
Rp41
ag14
((lp42
tp43
Rp44
ag14
((lp45
I-8
aI-4
atp46
Rp47
ag14
((lp48
tp49
Rp50
ag14
((lp51
tp52
Rp53
ag14
((lp54
tp55
Rp56
ag14
((lp57
tp58
Rp59
ag14
((lp60
tp61
Rp62
ag14
((lp63
tp64
Rp65
ag14
((lp66
tp67
Rp68
ag14
((lp69
tp70
Rp71
ag14
((lp72
tp73
Rp74
ag14
((lp75
tp76
Rp77
ag14
((lp78
tp79
Rp80
ag14
((lp81
I24
aI25
aI-21
aI23
atp82
Rp83
ag14
((lp84
I24
aI25
aI-21
aI22
atp85
Rp86
ag14
((lp87
I25
aI-21
aI22
aI23
atp88
Rp89
ag14
((lp90
I24
aI-21
aI22
aI23
atp91
Rp92
ag14
((lp93
tp94
Rp95
ag14
((lp96
tp97
Rp98
ag14
((lp99
tp100
Rp101
ag14
((lp102
tp103
Rp104
ag14
((lp105
tp106
Rp107
ag14
((lp108
tp109
Rp110
ag14
((lp111
tp112
Rp113
ag14
((lp114
tp115
Rp116
ag14
((lp117
tp118
Rp119
ag14
((lp120
I-32
atp121
Rp122
ag14
((lp123
I-34
atp124
Rp125
ag14
((lp126
tp127
Rp128
ag14
((lp129
I-35
atp130
Rp131
ag14
((lp132
I-37
atp133
Rp134
ag14
((lp135
tp136
Rp137
ag14
((lp138
tp139
Rp140
ag14
((lp141
tp142
Rp143
ag14
((lp144
tp145
Rp146
ag14
((lp147
I45
aI46
atp148
Rp149
ag14
((lp150
I44
aI46
atp151
Rp152
ag14
((lp153
I44
aI45
atp154
Rp155
ag14
((lp156
tp157
Rp158
ag14
((lp159
I-43
atp160
Rp161
ag14
((lp162
I-40
atp163
Rp164
ag14
((lp165
tp166
Rp167
ag14
((lp168
tp169
Rp170
ag14
((lp171
tp172
Rp173
ag14
((lp174
I-30
atp175
Rp176
ag14
((lp177
I55
atp178
Rp179
ag14
((lp180
I54
atp181
Rp182
ag14
((lp183
tp184
Rp185
ag14
((lp186
I58
aI59
atp187
Rp188
ag14
((lp189
I57
aI59
atp190
Rp191
ag14
((lp192
I57
aI58
atp193
Rp194
ag14
((lp195
tp196
Rp197
ag14
((lp198
tp199
Rp200
ag14
((lp201
I-28
atp202
Rp203
ag14
((lp204
tp205
Rp206
ag14
((lp207
tp208
Rp209
ag14
((lp210
tp211
Rp212
ag14
((lp213
tp214
Rp215
ag14
((lp216
I-63
atp217
Rp218
ag14
((lp219
I-63
aI-46
aI-57
aI-62
aI-50
atp220
Rp221
ag14
((lp222
tp223
Rp224
ag14
((lp225
tp226
Rp227
ag14
((lp228
tp229
Rp230
ag14
((lp231
tp232
Rp233
ag14
((lp234
tp235
Rp236
ag14
((lp237
tp238
Rp239
ag14
((lp240
tp241
Rp242
ag14
((lp243
I-61
aI-60
aI-59
aI78
aI79
aI80
aI81
aI84
aI-75
aI-69
aI-68
aI-67
atp244
Rp245
ag14
((lp246
I81
aI-59
aI-75
aI-68
aI-67
atp247
Rp248
ag14
((lp249
I-61
aI-60
aI-59
aI76
aI79
aI80
aI81
aI84
aI-75
aI-69
aI-68
aI-67
atp250
Rp251
ag14
((lp252
I-61
aI-60
aI-59
aI76
aI78
aI81
aI84
aI-75
aI-69
aI-68
aI-67
atp253
Rp254
ag14
((lp255
I-60
aI-55
aI76
aI78
aI81
aI82
aI83
aI84
aI-75
aI-73
aI-72
aI-70
aI-69
aI-68
aI-66
atp256
Rp257
ag14
((lp258
I-61
aI-60
aI-59
aI76
aI77
aI78
aI79
aI80
aI82
aI83
aI84
aI-75
aI-73
aI-72
aI-70
aI-69
aI-68
aI-67
aI-66
atp259
Rp260
ag14
((lp261
I-60
aI-55
aI80
aI81
aI83
aI84
aI-75
aI-73
aI-72
aI-70
aI-69
aI-68
aI-66
atp262
Rp263
ag14
((lp264
I-60
aI-55
aI80
aI81
aI82
aI84
aI-75
aI-73
aI-72
aI-70
aI-69
aI-68
aI-66
atp265
Rp266
ag14
((lp267
I-61
aI-60
aI-55
aI76
aI78
aI79
aI80
aI81
aI82
aI83
aI-75
aI-73
aI-72
aI-70
aI-69
aI-68
aI-67
aI-66
atp268
Rp269
ag14
((lp270
I-64
aI88
aI87
atp271
Rp272
ag14
((lp273
I-81
atp274
Rp275
ag14
((lp276
I-64
aI88
aI85
atp277
Rp278
ag14
((lp279
I-64
aI85
aI87
atp280
Rp281
ag14
((lp282
tp283
Rp284
ag14
((lp285
tp286
Rp287
ag14
((lp288
tp289
Rp290
ag14
((lp291
tp292
Rp293
ag14
((lp294
tp295
Rp296
ag14
((lp297
I-93
atp298
Rp299
ag14
((lp300
tp301
Rp302
ag14
((lp303
tp304
Rp305
ag14
((lp306
tp307
Rp308
ag14
((lp309
tp310
Rp311
ag14
((lp312
tp313
Rp314
ag14
((lp315
tp316
Rp317
ag14
((lp318
I102
atp319
Rp320
ag14
((lp321
I101
atp322
Rp323
ag14
((lp324
tp325
Rp326
ag14
((lp327
tp328
Rp329
ag14
((lp330
tp331
Rp332
ag14
((lp333
tp334
Rp335
ag14
((lp336
tp337
Rp338
ag14
((lp339
tp340
Rp341
ag14
((lp342
tp343
Rp344
ag14
((lp345
tp346
Rp347
ag14
((lp348
tp349
Rp350
ag14
((lp351
tp352
Rp353
ag14
((lp354
tp355
Rp356
ag14
((lp357
tp358
Rp359
ag14
((lp360
tp361
Rp362
ag14
((lp363
I-112
aI117
aI-115
aI-114
aI-113
atp364
Rp365
ag14
((lp366
I116
aI-114
atp367
Rp368
ag14
((lp369
I119
atp370
Rp371
ag14
((lp372
I118
atp373
Rp374
ag14
((lp375
tp376
Rp377
ag14
((lp378
tp379
Rp380
ag14
((lp381
tp382
Rp383
ag14
((lp384
I129
aI130
aI131
aI-120
aI-119
aI-116
aI124
aI125
aI126
aI127
atp385
Rp386
ag14
((lp387
I129
aI130
aI131
aI-120
aI-119
aI-116
aI123
aI125
aI126
aI127
atp388
Rp389
ag14
((lp390
I128
aI129
aI130
aI131
aI-121
aI-120
aI-119
aI-116
aI123
aI124
aI126
aI127
atp391
Rp392
ag14
((lp393
I128
aI129
aI130
aI131
aI-121
aI-120
aI-119
aI-116
aI123
aI124
aI125
aI127
atp394
Rp395
ag14
((lp396
I129
aI130
aI131
aI-120
aI-119
aI-116
aI123
aI124
aI125
aI126
atp397
Rp398
ag14
((lp399
I129
aI131
aI-121
aI-120
aI-116
aI125
aI126
atp400
Rp401
ag14
((lp402
I128
aI130
aI131
aI-121
aI-120
aI-119
aI-116
aI123
aI124
aI125
aI126
aI127
atp403
Rp404
ag14
((lp405
I129
aI131
aI-120
aI-119
aI-116
aI123
aI124
aI125
aI126
aI127
atp406
Rp407
ag14
((lp408
I128
aI129
aI130
aI-121
aI-120
aI-119
aI-116
aI123
aI124
aI125
aI126
aI127
atp409
Rp410
ag14
((lp411
tp412
Rp413
ag14
((lp414
tp415
Rp416
ag14
((lp417
tp418
Rp419
ag14
((lp420
tp421
Rp422
ag14
((lp423
tp424
Rp425
ag14
((lp426
tp427
Rp428
ag14
((lp429
I139
aI-129
atp430
Rp431
ag14
((lp432
I138
aI-129
atp433
Rp434
ag14
((lp435
tp436
Rp437
ag14
((lp438
tp439
Rp440
ag14
((lp441
tp442
Rp443
ag14
((lp444
tp445
Rp446
ag14
((lp447
tp448
Rp449
ag14
((lp450
tp451
Rp452
ag14
((lp453
tp454
Rp455
ag14
((lp456
I-143
aI148
aI-139
aI-131
aI-146
aI-145
atp457
Rp458
ag14
((lp459
I-143
aI147
aI-139
aI-131
aI-146
aI-145
atp460
Rp461
ag14
((lp462
tp463
Rp464
ag14
((lp465
tp466
Rp467
ag14
((lp468
tp469
Rp470
ag14
((lp471
tp472
Rp473
ag14
((lp474
I-151
aI-152
aI-150
aI-149
aI-148
atp475
Rp476
ag14
((lp477
tp478
Rp479
ag14
((lp480
tp481
Rp482
ag14
((lp483
I-155
aI-153
atp484
Rp485
ag14
((lp486
tp487
Rp488
ag14
((lp489
tp490
Rp491
ag14
((lp492
tp493
Rp494
ag14
((lp495
tp496
Rp497
ag14
((lp498
tp499
Rp500
ag14
((lp501
tp502
Rp503
ag14
((lp504
tp505
Rp506
ag14
((lp507
I156
aI-153
atp508
Rp509
ag14
((lp510
tp511
Rp512
ag14
((lp513
I156
aI-155
atp514
Rp515
ag14
((lp516
I-151
aI153
aI-150
aI-149
aI-148
atp517
Rp518
ag14
((lp519
I-152
aI153
aI-150
aI-149
aI-148
atp520
Rp521
ag14
((lp522
I-151
aI-152
aI153
aI-149
aI-148
atp523
Rp524
ag14
((lp525
I-151
aI-152
aI153
aI-150
aI-148
atp526
Rp527
ag14
((lp528
I-151
aI-152
aI153
aI-150
aI-149
atp529
Rp530
ag14
((lp531
tp532
Rp533
ag14
((lp534
I-143
aI147
aI148
aI-139
aI-131
aI-145
atp535
Rp536
ag14
((lp537
I-143
aI147
aI148
aI-139
aI-131
aI-146
atp538
Rp539
ag14
((lp540
tp541
Rp542
ag14
((lp543
I147
aI148
aI-139
aI-131
aI-146
aI-145
atp544
Rp545
ag14
((lp546
tp547
Rp548
ag14
((lp549
tp550
Rp551
ag14
((lp552
tp553
Rp554
ag14
((lp555
I-143
aI147
aI148
aI-131
aI-146
aI-145
atp556
Rp557
ag14
((lp558
tp559
Rp560
ag14
((lp561
tp562
Rp563
ag14
((lp564
I-135
atp565
Rp566
ag14
((lp567
I-136
atp568
Rp569
ag14
((lp570
tp571
Rp572
ag14
((lp573
tp574
Rp575
ag14
((lp576
tp577
Rp578
ag14
((lp579
I-143
aI147
aI148
aI-139
aI-146
aI-145
atp580
Rp581
ag14
((lp582
tp583
Rp584
ag14
((lp585
I138
aI139
atp586
Rp587
ag14
((lp588
tp589
Rp590
ag14
((lp591
tp592
Rp593
ag14
((lp594
tp595
Rp596
ag14
((lp597
I-117
atp598
Rp599
ag14
((lp600
tp601
Rp602
ag14
((lp603
tp604
Rp605
ag14
((lp606
tp607
Rp608
ag14
((lp609
I128
aI129
aI131
aI-120
aI-116
aI125
aI126
atp610
Rp611
ag14
((lp612
I128
aI129
aI130
aI131
aI-121
aI-119
aI-116
aI123
aI124
aI125
aI126
aI127
atp613
Rp614
ag14
((lp615
I129
aI130
aI131
aI-120
aI-116
aI123
aI124
aI125
aI126
aI127
atp616
Rp617
ag14
((lp618
tp619
Rp620
ag14
((lp621
I-125
atp622
Rp623
ag14
((lp624
I128
aI129
aI130
aI131
aI-121
aI-120
aI-119
aI123
aI124
aI125
aI126
aI127
atp625
Rp626
ag14
((lp627
I-112
aI116
aI-114
aI-113
atp628
Rp629
ag14
((lp630
I-112
aI116
aI117
aI-115
aI-113
atp631
Rp632
ag14
((lp633
I-112
aI116
aI-115
aI-114
atp634
Rp635
ag14
((lp636
I116
aI-115
aI-114
aI-113
atp637
Rp638
ag14
((lp639
tp640
Rp641
ag14
((lp642
tp643
Rp644
ag14
((lp645
tp646
Rp647
ag14
((lp648
tp649
Rp650
ag14
((lp651
tp652
Rp653
ag14
((lp654
tp655
Rp656
ag14
((lp657
tp658
Rp659
ag14
((lp660
tp661
Rp662
ag14
((lp663
tp664
Rp665
ag14
((lp666
I-96
atp667
Rp668
ag14
((lp669
tp670
Rp671
ag14
((lp672
tp673
Rp674
ag14
((lp675
tp676
Rp677
ag14
((lp678
tp679
Rp680
ag14
((lp681
tp682
Rp683
ag14
((lp684
I-102
atp685
Rp686
ag14
((lp687
tp688
Rp689
ag14
((lp690
tp691
Rp692
ag14
((lp693
I94
atp694
Rp695
ag14
((lp696
tp697
Rp698
ag14
((lp699
tp700
Rp701
ag14
((lp702
tp703
Rp704
ag14
((lp705
tp706
Rp707
ag14
((lp708
tp709
Rp710
ag14
((lp711
tp712
Rp713
ag14
((lp714
tp715
Rp716
ag14
((lp717
tp718
Rp719
ag14
((lp720
tp721
Rp722
ag14
((lp723
tp724
Rp725
ag14
((lp726
tp727
Rp728
ag14
((lp729
I86
atp730
Rp731
ag14
((lp732
tp733
Rp734
ag14
((lp735
tp736
Rp737
ag14
((lp738
tp739
Rp740
ag14
((lp741
tp742
Rp743
ag14
((lp744
tp745
Rp746
ag14
((lp747
I-61
aI-60
aI-59
aI76
aI77
aI78
aI79
aI80
aI81
aI82
aI83
aI84
aI-73
aI-72
aI-70
aI-69
aI-68
aI-67
aI-66
atp748
Rp749
ag14
((lp750
tp751
Rp752
ag14
((lp753
I-60
aI-55
aI80
aI81
aI82
aI83
aI84
aI-75
aI-72
aI-70
aI-69
aI-68
aI-66
atp754
Rp755
ag14
((lp756
I-60
aI-55
aI80
aI81
aI82
aI83
aI84
aI-75
aI-73
aI-70
aI-69
aI-68
aI-66
atp757
Rp758
ag14
((lp759
tp760
Rp761
ag14
((lp762
I-60
aI-55
aI80
aI81
aI82
aI83
aI84
aI-75
aI-73
aI-72
aI-69
aI-68
aI-66
atp763
Rp764
ag14
((lp765
I-61
aI-60
aI-59
aI76
aI78
aI79
aI80
aI81
aI82
aI83
aI84
aI-75
aI-73
aI-72
aI-70
aI-68
aI-67
aI-66
atp766
Rp767
ag14
((lp768
I-61
aI-60
aI-59
aI76
aI77
aI78
aI79
aI80
aI81
aI82
aI83
aI84
aI-75
aI-73
aI-72
aI-70
aI-69
aI-67
aI-66
atp769
Rp770
ag14
((lp771
I-61
aI-60
aI-59
aI76
aI77
aI78
aI79
aI81
aI84
aI-75
aI-69
aI-68
atp772
Rp773
ag14
((lp774
I-60
aI-55
aI80
aI81
aI82
aI83
aI84
aI-75
aI-73
aI-72
aI-70
aI-69
aI-68
atp775
Rp776
ag14
((lp777
tp778
Rp779
ag14
((lp780
I88
aI85
aI87
atp781
Rp782
ag14
((lp783
I-62
aI67
aI68
atp784
Rp785
ag14
((lp786
I-63
aI68
atp787
Rp788
ag14
((lp789
I-60
aI-59
aI76
aI78
aI79
aI81
aI84
aI-75
aI-69
aI-68
aI-67
atp790
Rp791
ag14
((lp792
I-61
aI-55
aI76
aI78
aI79
aI80
aI81
aI82
aI83
aI84
aI-75
aI-73
aI-72
aI-70
aI-69
aI-68
aI-67
aI-66
atp793
Rp794
ag14
((lp795
I-61
aI76
aI77
aI78
aI79
aI81
aI-75
aI-69
aI-68
aI-67
atp796
Rp797
ag14
((lp798
tp799
Rp800
ag14
((lp801
I-46
aI68
aI-50
atp802
Rp803
ag14
((lp804
tp805
Rp806
ag14
((lp807
I-60
aI80
aI82
aI83
aI84
aI-73
aI-72
aI-70
aI-66
atp808
Rp809
ag14
((lp810
tp811
Rp812
ag14
((lp813
tp814
Rp815
ag14
((lp816
tp817
Rp818
ag14
((lp819
tp820
Rp821
ag14
((lp822
I-46
aI68
aI-57
atp823
Rp824
ag14
((lp825
tp826
Rp827
ag14
((lp828
tp829
Rp830
ag14
((lp831
tp832
Rp833
ag14
((lp834
I68
aI-50
aI-57
atp835
Rp836
ag14
((lp837
tp838
Rp839
ag14
((lp840
tp841
Rp842
ag14
((lp843
I48
atp844
Rp845
ag14
((lp846
tp847
Rp848
ag14
((lp849
tp850
Rp851
ag14
((lp852
I49
atp853
Rp854
ag14
((lp855
tp856
Rp857
ag14
((lp858
tp859
Rp860
ag14
((lp861
I39
atp862
Rp863
ag14
((lp864
tp865
Rp866
ag14
((lp867
I38
atp868
Rp869
ag14
((lp870
I36
atp871
Rp872
ag14
((lp873
tp874
Rp875
ag14
((lp876
I35
atp877
Rp878
ag14
((lp879
tp880
Rp881
ag14
((lp882
I53
atp883
Rp884
ag14
((lp885
tp886
Rp887
ag14
((lp888
I62
atp889
Rp890
ag14
((lp891
tp892
Rp893
ag14
((lp894
tp895
Rp896
ag14
((lp897
tp898
Rp899
ag14
((lp900
tp901
Rp902
ag14
((lp903
tp904
Rp905
ag14
((lp906
tp907
Rp908
ag14
((lp909
I24
aI25
aI22
aI23
atp910
Rp911
ag14
((lp912
tp913
Rp914
ag14
((lp915
tp916
Rp917
ag14
((lp918
tp919
Rp920
ag14
((lp921
tp922
Rp923
ag14
((lp924
tp925
Rp926
ag14
((lp927
tp928
Rp929
ag14
((lp930
tp931
Rp932
ag14
((lp933
tp934
Rp935
ag14
((lp936
tp937
Rp938
ag14
((lp939
I-10
atp940
Rp941
ag14
((lp942
I-11
atp943
Rp944
ag14
((lp945
tp946
Rp947
ag14
((lp948
I10
aI-4
atp949
Rp950
ag14
((lp951
tp952
Rp953
ag14
((lp954
tp955
Rp956
ag14
((lp957
tp958
Rp959
ag14
((lp960
I-8
aI10
atp961
Rp962
ag14
((lp963
tp964
Rp965
ag14
((lp966
tp967
Rp968
ag14
((lp969
I5
atp970
Rp971
atp972
b.