cnumpy.core.multiarray
_reconstruct
p0
(cnumpy
ndarray
p1
(I0
tp2
S'b'
p3
tp4
Rp5
(I1
(I351
tp6
cnumpy
dtype
p7
(S'O8'
p8
I0
I1
tp9
Rp10
(I3
S'|'
p11
NNNI-1
I-1
I63
tp12
bI00
(lp13
c__builtin__
set
p14
((lp15
tp16
Rp17
ag14
((lp18
tp19
Rp20
ag14
((lp21
I3
atp22
Rp23
ag14
((lp24
I2
atp25
Rp26
ag14
((lp27
I-1
atp28
Rp29
ag14
((lp30
I-2
aI-3
atp31
Rp32
ag14
((lp33
tp34
Rp35
ag14
((lp36
tp37
Rp38
ag14
((lp39
tp40
Rp41
ag14
((lp42
tp43
Rp44
ag14
((lp45
tp46
Rp47
ag14
((lp48
tp49
Rp50
ag14
((lp51
I14
aI-9
atp52
Rp53
ag14
((lp54
I-11
atp55
Rp56
ag14
((lp57
I12
aI-9
atp58
Rp59
ag14
((lp60
tp61
Rp62
ag14
((lp63
I-12
atp64
Rp65
ag14
((lp66
I-14
aI-16
aI-15
aI18
aI19
aI20
aI21
aI22
atp67
Rp68
ag14
((lp69
I-15
aI-16
aI17
aI-14
aI19
aI20
aI21
aI22
atp70
Rp71
ag14
((lp72
I17
aI18
aI-16
aI-15
aI-14
aI20
aI21
aI22
atp73
Rp74
ag14
((lp75
I17
aI18
aI-16
aI-15
aI-14
aI19
aI21
aI22
atp76
Rp77
ag14
((lp78
I-15
aI-14
aI-16
aI17
aI18
aI19
aI20
aI22
atp79
Rp80
ag14
((lp81
I-15
aI-14
aI-16
aI17
aI18
aI19
aI20
aI21
atp82
Rp83
ag14
((lp84
tp85
Rp86
ag14
((lp87
tp88
Rp89
ag14
((lp90
tp91
Rp92
ag14
((lp93
tp94
Rp95
ag14
((lp96
tp97
Rp98
ag14
((lp99
I-27
aI-25
atp100
Rp101
ag14
((lp102
tp103
Rp104
ag14
((lp105
I-29
atp106
Rp107
ag14
((lp108
tp109
Rp110
ag14
((lp111
tp112
Rp113
ag14
((lp114
I37
atp115
Rp116
ag14
((lp117
tp118
Rp119
ag14
((lp120
tp121
Rp122
ag14
((lp123
tp124
Rp125
ag14
((lp126
I33
atp127
Rp128
ag14
((lp129
tp130
Rp131
ag14
((lp132
tp133
Rp134
ag14
((lp135
tp136
Rp137
ag14
((lp138
tp139
Rp140
ag14
((lp141
I-33
atp142
Rp143
ag14
((lp144
tp145
Rp146
ag14
((lp147
tp148
Rp149
ag14
((lp150
tp151
Rp152
ag14
((lp153
tp154
Rp155
ag14
((lp156
tp157
Rp158
ag14
((lp159
I-45
atp160
Rp161
ag14
((lp162
I50
atp163
Rp164
ag14
((lp165
I49
atp166
Rp167
ag14
((lp168
tp169
Rp170
ag14
((lp171
I-51
atp172
Rp173
ag14
((lp174
tp175
Rp176
ag14
((lp177
tp178
Rp179
ag14
((lp180
tp181
Rp182
ag14
((lp183
tp184
Rp185
ag14
((lp186
I-55
aI-41
aI-56
aI-36
aI-35
atp187
Rp188
ag14
((lp189
tp190
Rp191
ag14
((lp192
tp193
Rp194
ag14
((lp195
tp196
Rp197
ag14
((lp198
I62
aI63
atp199
Rp200
ag14
((lp201
I64
aI61
atp202
Rp203
ag14
((lp204
I61
atp205
Rp206
ag14
((lp207
I65
aI62
atp208
Rp209
ag14
((lp210
I64
atp211
Rp212
ag14
((lp213
tp214
Rp215
ag14
((lp216
I68
aI69
aI70
aI71
aI72
aI73
aI-61
atp217
Rp218
ag14
((lp219
I67
aI69
aI70
aI71
aI72
aI73
aI-61
atp220
Rp221
ag14
((lp222
I67
aI68
aI70
aI71
aI72
aI-61
atp223
Rp224
ag14
((lp225
I67
aI68
aI69
aI71
aI72
aI73
aI-61
atp226
Rp227
ag14
((lp228
I67
aI68
aI69
aI70
aI72
aI-61
atp229
Rp230
ag14
((lp231
I67
aI68
aI69
aI70
aI71
aI73
aI-61
atp232
Rp233
ag14
((lp234
I72
aI67
aI68
aI70
atp235
Rp236
ag14
((lp237
tp238
Rp239
ag14
((lp240
tp241
Rp242
ag14
((lp243
I-75
aI-74
atp244
Rp245
ag14
((lp246
I78
atp247
Rp248
ag14
((lp249
I77
atp250
Rp251
ag14
((lp252
tp253
Rp254
ag14
((lp255
tp256
Rp257
ag14
((lp258
I82
atp259
Rp260
ag14
((lp261
I81
atp262
Rp263
ag14
((lp264
tp265
Rp266
ag14
((lp267
I-81
atp268
Rp269
ag14
((lp270
I-68
atp271
Rp272
ag14
((lp273
I88
aI-66
aI-67
aI-82
atp274
Rp275
ag14
((lp276
I-64
aI-63
aI-84
aI-83
aI-82
aI-80
aI-78
aI88
aI89
aI-67
aI-66
atp277
Rp278
ag14
((lp279
I-64
aI-63
aI-84
aI-83
aI-82
aI-80
aI-78
aI86
aI87
aI89
aI-67
aI-66
atp280
Rp281
ag14
((lp282
I-64
aI-63
aI-84
aI-83
aI-82
aI-80
aI-78
aI87
aI88
aI-67
aI-66
atp283
Rp284
ag14
((lp285
I-88
atp286
Rp287
ag14
((lp288
I-90
atp289
Rp290
ag14
((lp291
tp292
Rp293
ag14
((lp294
tp295
Rp296
ag14
((lp297
tp298
Rp299
ag14
((lp300
tp301
Rp302
ag14
((lp303
tp304
Rp305
ag14
((lp306
tp307
Rp308
ag14
((lp309
tp310
Rp311
ag14
((lp312
tp313
Rp314
ag14
((lp315
tp316
Rp317
ag14
((lp318
tp319
Rp320
ag14
((lp321
tp322
Rp323
ag14
((lp324
I105
aI104
aI-71
aI106
aI-97
atp325
Rp326
ag14
((lp327
I-71
aI103
aI105
aI106
aI-97
atp328
Rp329
ag14
((lp330
I-71
aI103
aI104
aI106
aI-97
atp331
Rp332
ag14
((lp333
I105
aI104
aI-71
aI103
aI-97
atp334
Rp335
ag14
((lp336
tp337
Rp338
ag14
((lp339
I109
aI110
atp340
Rp341
ag14
((lp342
I108
aI110
aI111
atp343
Rp344
ag14
((lp345
I108
aI109
aI111
atp346
Rp347
ag14
((lp348
I109
aI110
atp349
Rp350
ag14
((lp351
tp352
Rp353
ag14
((lp354
tp355
Rp356
ag14
((lp357
tp358
Rp359
ag14
((lp360
tp361
Rp362
ag14
((lp363
I-115
atp364
Rp365
ag14
((lp366
tp367
Rp368
ag14
((lp369
tp370
Rp371
ag14
((lp372
tp373
Rp374
ag14
((lp375
tp376
Rp377
ag14
((lp378
tp379
Rp380
ag14
((lp381
I128
aI129
aI-121
aI-120
aI-119
aI-118
aI-117
aI-116
aI-112
aI-110
aI-107
aI123
aI124
aI125
aI126
aI127
atp382
Rp383
ag14
((lp384
I128
aI129
aI130
aI-121
aI-120
aI-119
aI-118
aI-117
aI-116
aI-112
aI-110
aI-107
aI122
aI124
aI125
aI126
aI127
atp385
Rp386
ag14
((lp387
I128
aI129
aI130
aI-121
aI-120
aI-119
aI-118
aI-117
aI-116
aI-112
aI-110
aI-107
aI122
aI123
aI125
aI126
aI127
atp388
Rp389
ag14
((lp390
I128
aI129
aI130
aI-121
aI-120
aI-119
aI-118
aI-117
aI-116
aI-112
aI-110
aI-107
aI122
aI123
aI124
aI126
aI127
atp391
Rp392
ag14
((lp393
I128
aI129
aI-121
aI-120
aI-119
aI-118
aI-117
aI-116
aI-112
aI-110
aI-107
aI122
aI123
aI124
aI125
aI127
atp394
Rp395
ag14
((lp396
I128
aI129
aI-121
aI-120
aI-119
aI-118
aI-117
aI-116
aI-112
aI-110
aI-107
aI122
aI123
aI124
aI125
aI126
atp397
Rp398
ag14
((lp399
I129
aI130
aI-121
aI-120
aI-119
aI-118
aI-117
aI-116
aI-112
aI-110
aI-107
aI122
aI123
aI124
aI125
aI126
aI127
atp400
Rp401
ag14
((lp402
I128
aI-121
aI-120
aI-119
aI-118
aI-117
aI-116
aI-112
aI-110
aI-107
aI122
aI123
aI124
aI125
aI126
aI127
atp403
Rp404
ag14
((lp405
I128
aI-121
aI-119
aI-117
aI-116
aI-112
aI-110
aI123
aI124
aI125
atp406
Rp407
ag14
((lp408
I-121
atp409
Rp410
ag14
((lp411
tp412
Rp413
ag14
((lp414
I-93
atp415
Rp416
ag14
((lp417
I135
atp418
Rp419
ag14
((lp420
I134
atp421
Rp422
ag14
((lp423
tp424
Rp425
ag14
((lp426
tp427
Rp428
ag14
((lp429
I-136
aI-134
aI139
aI-132
aI141
atp430
Rp431
ag14
((lp432
I-91
aI-136
aI-134
aI-132
aI138
aI141
atp433
Rp434
ag14
((lp435
tp436
Rp437
ag14
((lp438
I-136
aI-134
aI139
aI-132
aI138
atp439
Rp440
ag14
((lp441
tp442
Rp443
ag14
((lp444
tp445
Rp446
ag14
((lp447
tp448
Rp449
ag14
((lp450
tp451
Rp452
ag14
((lp453
tp454
Rp455
ag14
((lp456
tp457
Rp458
ag14
((lp459
tp460
Rp461
ag14
((lp462
tp463
Rp464
ag14
((lp465
tp466
Rp467
ag14
((lp468
tp469
Rp470
ag14
((lp471
I153
atp472
Rp473
ag14
((lp474
I152
atp475
Rp476
ag14
((lp477
tp478
Rp479
ag14
((lp480
tp481
Rp482
ag14
((lp483
I-155
atp484
Rp485
ag14
((lp486
tp487
Rp488
ag14
((lp489
tp490
Rp491
ag14
((lp492
tp493
Rp494
ag14
((lp495
tp496
Rp497
ag14
((lp498
tp499
Rp500
ag14
((lp501
tp502
Rp503
ag14
((lp504
tp505
Rp506
ag14
((lp507
I-158
atp508
Rp509
ag14
((lp510
tp511
Rp512
ag14
((lp513
tp514
Rp515
ag14
((lp516
tp517
Rp518
ag14
((lp519
I-167
atp520
Rp521
ag14
((lp522
tp523
Rp524
ag14
((lp525
tp526
Rp527
ag14
((lp528
I172
atp529
Rp530
ag14
((lp531
I171
atp532
Rp533
ag14
((lp534
tp535
Rp536
ag14
((lp537
tp538
Rp539
ag14
((lp540
tp541
Rp542
ag14
((lp543
tp544
Rp545
ag14
((lp546
tp547
Rp548
ag14
((lp549
tp550
Rp551
ag14
((lp552
tp553
Rp554
ag14
((lp555
I-170
atp556
Rp557
ag14
((lp558
I-171
atp559
Rp560
ag14
((lp561
tp562
Rp563
ag14
((lp564
tp565
Rp566
ag14
((lp567
I168
atp568
Rp569
ag14
((lp570
tp571
Rp572
ag14
((lp573
tp574
Rp575
ag14
((lp576
tp577
Rp578
ag14
((lp579
tp580
Rp581
ag14
((lp582
tp583
Rp584
ag14
((lp585
tp586
Rp587
ag14
((lp588
tp589
Rp590
ag14
((lp591
tp592
Rp593
ag14
((lp594
I164
atp595
Rp596
ag14
((lp597
I-143
aI-148
aI-156
atp598
Rp599
ag14
((lp600
I-143
aI-157
aI-148
atp601
Rp602
ag14
((lp603
I156
atp604
Rp605
ag14
((lp606
tp607
Rp608
ag14
((lp609
tp610
Rp611
ag14
((lp612
tp613
Rp614
ag14
((lp615
tp616
Rp617
ag14
((lp618
tp619
Rp620
ag14
((lp621
tp622
Rp623
ag14
((lp624
I-143
aI-157
aI-156
atp625
Rp626
ag14
((lp627
tp628
Rp629
ag14
((lp630
tp631
Rp632
ag14
((lp633
tp634
Rp635
ag14
((lp636
tp637
Rp638
ag14
((lp639
I-157
aI-148
aI-156
atp640
Rp641
ag14
((lp642
tp643
Rp644
ag14
((lp645
tp646
Rp647
ag14
((lp648
tp649
Rp650
ag14
((lp651
tp652
Rp653
ag14
((lp654
tp655
Rp656
ag14
((lp657
tp658
Rp659
ag14
((lp660
I-91
aI-134
aI139
aI-132
aI138
aI141
atp661
Rp662
ag14
((lp663
tp664
Rp665
ag14
((lp666
I-91
aI-136
aI139
aI-132
aI138
aI141
atp667
Rp668
ag14
((lp669
tp670
Rp671
ag14
((lp672
I-136
aI-134
aI139
aI138
aI141
atp673
Rp674
ag14
((lp675
I-128
atp676
Rp677
ag14
((lp678
I-126
atp679
Rp680
ag14
((lp681
tp682
Rp683
ag14
((lp684
I-131
atp685
Rp686
ag14
((lp687
tp688
Rp689
ag14
((lp690
I-130
atp691
Rp692
ag14
((lp693
tp694
Rp695
ag14
((lp696
tp697
Rp698
ag14
((lp699
tp700
Rp701
ag14
((lp702
tp703
Rp704
ag14
((lp705
I128
aI129
aI130
aI131
aI-120
aI-119
aI-118
aI-117
aI-116
aI-112
aI-110
aI-107
aI122
aI123
aI124
aI125
aI126
aI127
atp706
Rp707
ag14
((lp708
I128
aI129
aI-121
aI-119
aI-118
aI-117
aI-116
aI-112
aI-110
aI-107
aI122
aI123
aI124
aI125
aI126
aI127
atp709
Rp710
ag14
((lp711
I128
aI129
aI130
aI-121
aI-120
aI-118
aI-117
aI-116
aI-112
aI-110
aI-107
aI122
aI123
aI124
aI125
aI126
aI127
atp712
Rp713
ag14
((lp714
I128
aI129
aI-121
aI-120
aI-119
aI-117
aI-116
aI-112
aI-110
aI-107
aI122
aI123
aI124
aI125
aI126
aI127
atp715
Rp716
ag14
((lp717
I128
aI129
aI130
aI-121
aI-120
aI-119
aI-118
aI-116
aI-112
aI-110
aI-107
aI122
aI123
aI124
aI125
aI126
aI127
atp718
Rp719
ag14
((lp720
I128
aI129
aI130
aI-121
aI-120
aI-119
aI-118
aI-117
aI-112
aI-110
aI-107
aI122
aI123
aI124
aI125
aI126
aI127
atp721
Rp722
ag14
((lp723
I116
atp724
Rp725
ag14
((lp726
tp727
Rp728
ag14
((lp729
tp730
Rp731
ag14
((lp732
I128
aI129
aI130
aI-121
aI-120
aI-119
aI-118
aI-117
aI-116
aI-110
aI-107
aI122
aI123
aI124
aI125
aI126
aI127
atp733
Rp734
ag14
((lp735
tp736
Rp737
ag14
((lp738
I128
aI129
aI130
aI-121
aI-120
aI-119
aI-118
aI-117
aI-116
aI-112
aI-107
aI122
aI123
aI124
aI125
aI126
aI127
atp739
Rp740
ag14
((lp741
tp742
Rp743
ag14
((lp744
tp745
Rp746
ag14
((lp747
I128
aI129
aI-121
aI-120
aI-119
aI-118
aI-117
aI-116
aI-112
aI-110
aI122
aI123
aI124
aI125
aI126
aI127
atp748
Rp749
ag14
((lp750
tp751
Rp752
ag14
((lp753
tp754
Rp755
ag14
((lp756
tp757
Rp758
ag14
((lp759
I-102
atp760
Rp761
ag14
((lp762
I-103
atp763
Rp764
ag14
((lp765
tp766
Rp767
ag14
((lp768
I-99
atp769
Rp770
ag14
((lp771
I-100
atp772
Rp773
ag14
((lp774
I-72
atp775
Rp776
ag14
((lp777
I-71
aI104
aI105
aI106
aI103
atp778
Rp779
ag14
((lp780
tp781
Rp782
ag14
((lp783
I-94
atp784
Rp785
ag14
((lp786
I-95
atp787
Rp788
ag14
((lp789
I133
atp790
Rp791
ag14
((lp792
tp793
Rp794
ag14
((lp795
I-136
aI-134
aI139
atp796
Rp797
ag14
((lp798
I91
atp799
Rp800
ag14
((lp801
I-70
atp802
Rp803
ag14
((lp804
I90
atp805
Rp806
ag14
((lp807
tp808
Rp809
ag14
((lp810
tp811
Rp812
ag14
((lp813
tp814
Rp815
ag14
((lp816
I-64
aI-63
aI-83
aI-82
aI-80
aI-78
aI87
aI88
aI89
aI-67
aI-66
atp817
Rp818
ag14
((lp819
I-64
aI-63
aI-84
aI-82
aI-80
aI-78
aI87
aI88
aI89
aI-67
aI-66
atp820
Rp821
ag14
((lp822
I-64
aI-63
aI-84
aI-83
aI-80
aI-78
aI86
aI87
aI88
aI89
aI-67
aI-66
atp823
Rp824
ag14
((lp825
I84
atp826
Rp827
ag14
((lp828
I-64
aI-63
aI-84
aI-83
aI-82
aI-78
aI87
aI88
aI89
aI-67
aI-66
atp829
Rp830
ag14
((lp831
I-77
atp832
Rp833
ag14
((lp834
I-64
aI-63
aI-84
aI-83
aI-82
aI-80
aI87
aI88
aI89
aI-67
aI-66
atp835
Rp836
ag14
((lp837
I-79
atp838
Rp839
ag14
((lp840
tp841
Rp842
ag14
((lp843
I76
aI-74
atp844
Rp845
ag14
((lp846
I76
aI-75
atp847
Rp848
ag14
((lp849
tp850
Rp851
ag14
((lp852
I-98
atp853
Rp854
ag14
((lp855
I105
aI104
aI106
aI103
aI-97
atp856
Rp857
ag14
((lp858
I-89
atp859
Rp860
ag14
((lp861
I-65
atp862
Rp863
ag14
((lp864
I85
atp865
Rp866
ag14
((lp867
I-64
aI-63
aI-84
aI-83
aI-82
aI-80
aI-78
aI86
aI87
aI88
aI89
aI-66
atp868
Rp869
ag14
((lp870
I-64
aI-63
aI-84
aI-83
aI-82
aI-80
aI-78
aI86
aI87
aI88
aI89
aI-67
atp871
Rp872
ag14
((lp873
I-69
atp874
Rp875
ag14
((lp876
I-63
aI-84
aI-83
aI-82
aI-80
aI-78
aI87
aI88
aI89
aI-67
aI-66
atp877
Rp878
ag14
((lp879
I-64
aI-84
aI-83
aI-82
aI-80
aI-78
aI87
aI88
aI89
aI-67
aI-66
atp880
Rp881
ag14
((lp882
tp883
Rp884
ag14
((lp885
I67
aI68
aI69
aI70
aI71
aI72
atp886
Rp887
ag14
((lp888
tp889
Rp890
ag14
((lp891
tp892
Rp893
ag14
((lp894
tp895
Rp896
ag14
((lp897
tp898
Rp899
ag14
((lp900
I-55
aI-41
aI57
aI-36
aI-35
atp901
Rp902
ag14
((lp903
I57
aI-41
aI-56
aI-36
aI-35
atp904
Rp905
ag14
((lp906
tp907
Rp908
ag14
((lp909
tp910
Rp911
ag14
((lp912
tp913
Rp914
ag14
((lp915
I52
atp916
Rp917
ag14
((lp918
I-37
atp919
Rp920
ag14
((lp921
tp922
Rp923
ag14
((lp924
tp925
Rp926
ag14
((lp927
tp928
Rp929
ag14
((lp930
I-40
atp931
Rp932
ag14
((lp933
I48
atp934
Rp935
ag14
((lp936
tp937
Rp938
ag14
((lp939
tp940
Rp941
ag14
((lp942
tp943
Rp944
ag14
((lp945
I-56
aI57
aI-55
aI-35
atp946
Rp947
ag14
((lp948
I-46
atp949
Rp950
ag14
((lp951
tp952
Rp953
ag14
((lp954
tp955
Rp956
ag14
((lp957
I-50
atp958
Rp959
ag14
((lp960
I-56
aI57
aI-35
aI-55
atp961
Rp962
ag14
((lp963
I-55
aI-56
aI57
aI-41
aI-36
atp964
Rp965
ag14
((lp966
tp967
Rp968
ag14
((lp969
I42
atp970
Rp971
ag14
((lp972
tp973
Rp974
ag14
((lp975
tp976
Rp977
ag14
((lp978
tp979
Rp980
ag14
((lp981
I30
atp982
Rp983
ag14
((lp984
tp985
Rp986
ag14
((lp987
I28
aI-25
atp988
Rp989
ag14
((lp990
I-24
atp991
Rp992
ag14
((lp993
I28
aI-27
atp994
Rp995
ag14
((lp996
I-26
atp997
Rp998
ag14
((lp999
tp1000
Rp1001
ag14
((lp1002
tp1003
Rp1004
ag14
((lp1005
tp1006
Rp1007
ag14
((lp1008
tp1009
Rp1010
ag14
((lp1011
tp1012
Rp1013
ag14
((lp1014
tp1015
Rp1016
ag14
((lp1017
tp1018
Rp1019
ag14
((lp1020
I17
aI18
aI-15
aI-14
aI19
aI20
aI21
aI22
atp1021
Rp1022
ag14
((lp1023
I-14
aI-16
aI17
aI18
aI19
aI20
aI21
aI22
atp1024
Rp1025
ag14
((lp1026
I-15
aI18
aI-16
aI17
aI19
aI20
aI21
aI22
atp1027
Rp1028
ag14
((lp1029
tp1030
Rp1031
ag14
((lp1032
I16
atp1033
Rp1034
ag14
((lp1035
I13
atp1036
Rp1037
ag14
((lp1038
tp1039
Rp1040
ag14
((lp1041
I12
aI14
atp1042
Rp1043
ag14
((lp1044
I-5
atp1045
Rp1046
ag14
((lp1047
tp1048
Rp1049
ag14
((lp1050
tp1051
Rp1052
ag14
((lp1053
I-8
atp1054
Rp1055
ag14
((lp1056
tp1057
Rp1058
ag14
((lp1059
I5
atp1060
Rp1061
ag14
((lp1062
I5
atp1063
Rp1064
ag14
((lp1065
I4
atp1066
Rp1067
atp1068
b.