cnumpy.core.multiarray
_reconstruct
p0
(cnumpy
ndarray
p1
(I0
tp2
S'b'
p3
tp4
Rp5
(I1
(I359
tp6
cnumpy
dtype
p7
(S'O8'
p8
I0
I1
tp9
Rp10
(I3
S'|'
p11
NNNI-1
I-1
I63
tp12
bI00
(lp13
c__builtin__
set
p14
((lp15
tp16
Rp17
ag14
((lp18
tp19
Rp20
ag14
((lp21
tp22
Rp23
ag14
((lp24
tp25
Rp26
ag14
((lp27
I5
atp28
Rp29
ag14
((lp30
I4
atp31
Rp32
ag14
((lp33
tp34
Rp35
ag14
((lp36
I-4
atp37
Rp38
ag14
((lp39
I9
aI-6
atp40
Rp41
ag14
((lp42
I8
aI-6
atp43
Rp44
ag14
((lp45
tp46
Rp47
ag14
((lp48
tp49
Rp50
ag14
((lp51
tp52
Rp53
ag14
((lp54
tp55
Rp56
ag14
((lp57
tp58
Rp59
ag14
((lp60
tp61
Rp62
ag14
((lp63
tp64
Rp65
ag14
((lp66
tp67
Rp68
ag14
((lp69
tp70
Rp71
ag14
((lp72
tp73
Rp74
ag14
((lp75
tp76
Rp77
ag14
((lp78
tp79
Rp80
ag14
((lp81
tp82
Rp83
ag14
((lp84
tp85
Rp86
ag14
((lp87
tp88
Rp89
ag14
((lp90
I-23
aI-24
aI26
aI28
aI29
atp91
Rp92
ag14
((lp93
I-23
aI-24
aI25
aI28
aI29
atp94
Rp95
ag14
((lp96
tp97
Rp98
ag14
((lp99
I-23
aI-24
aI25
aI26
aI29
atp100
Rp101
ag14
((lp102
I25
aI-24
aI-23
aI26
aI28
atp103
Rp104
ag14
((lp105
tp106
Rp107
ag14
((lp108
tp109
Rp110
ag14
((lp111
tp112
Rp113
ag14
((lp114
tp115
Rp116
ag14
((lp117
I35
atp118
Rp119
ag14
((lp120
I34
atp121
Rp122
ag14
((lp123
I37
atp124
Rp125
ag14
((lp126
I36
atp127
Rp128
ag14
((lp129
tp130
Rp131
ag14
((lp132
I40
aI41
aI42
aI43
aI-38
atp133
Rp134
ag14
((lp135
I39
aI41
aI42
aI43
aI-38
atp136
Rp137
ag14
((lp138
I39
aI40
aI-38
aI43
aI42
atp139
Rp140
ag14
((lp141
I39
aI40
aI41
aI43
aI-38
atp142
Rp143
ag14
((lp144
I39
aI40
aI41
aI42
aI-38
atp145
Rp146
ag14
((lp147
tp148
Rp149
ag14
((lp150
I46
atp151
Rp152
ag14
((lp153
I45
atp154
Rp155
ag14
((lp156
tp157
Rp158
ag14
((lp159
tp160
Rp161
ag14
((lp162
I-34
atp163
Rp164
ag14
((lp165
tp166
Rp167
ag14
((lp168
I-40
aI-50
atp169
Rp170
ag14
((lp171
tp172
Rp173
ag14
((lp174
tp175
Rp176
ag14
((lp177
tp178
Rp179
ag14
((lp180
tp181
Rp182
ag14
((lp183
I-47
atp184
Rp185
ag14
((lp186
tp187
Rp188
ag14
((lp189
tp190
Rp191
ag14
((lp192
tp193
Rp194
ag14
((lp195
I61
aI62
atp196
Rp197
ag14
((lp198
I60
aI62
atp199
Rp200
ag14
((lp201
I60
aI61
atp202
Rp203
ag14
((lp204
I-58
atp205
Rp206
ag14
((lp207
I65
atp208
Rp209
ag14
((lp210
I64
atp211
Rp212
ag14
((lp213
I-64
aI67
aI-60
aI-42
aI-36
atp214
Rp215
ag14
((lp216
I66
aI-60
aI-42
atp217
Rp218
ag14
((lp219
tp220
Rp221
ag14
((lp222
tp223
Rp224
ag14
((lp225
tp226
Rp227
ag14
((lp228
tp229
Rp230
ag14
((lp231
I73
atp232
Rp233
ag14
((lp234
I72
atp235
Rp236
ag14
((lp237
tp238
Rp239
ag14
((lp240
tp241
Rp242
ag14
((lp243
tp244
Rp245
ag14
((lp246
tp247
Rp248
ag14
((lp249
tp250
Rp251
ag14
((lp252
I-63
aI-61
aI82
aI80
aI81
aI-78
aI-77
aI-76
aI-43
aI-73
aI-70
aI-66
atp253
Rp254
ag14
((lp255
I-63
aI-61
aI-78
aI79
aI81
aI82
aI83
aI-76
aI-43
aI-73
aI-70
aI-77
aI-66
aI-75
atp256
Rp257
ag14
((lp258
I-63
aI-61
aI82
aI79
aI80
aI-78
aI-77
aI-76
aI-43
aI-73
aI-70
aI-66
atp259
Rp260
ag14
((lp261
I-63
aI-61
aI-78
aI79
aI80
aI81
aI-77
aI-76
aI-43
aI-73
aI-70
aI-66
atp262
Rp263
ag14
((lp264
I80
aI-77
aI-66
aI-75
atp265
Rp266
ag14
((lp267
I-67
atp268
Rp269
ag14
((lp270
I88
aI87
atp271
Rp272
ag14
((lp273
I-80
aI-71
atp274
Rp275
ag14
((lp276
I88
aI85
atp277
Rp278
ag14
((lp279
I85
aI87
atp280
Rp281
ag14
((lp282
tp283
Rp284
ag14
((lp285
tp286
Rp287
ag14
((lp288
tp289
Rp290
ag14
((lp291
tp292
Rp293
ag14
((lp294
tp295
Rp296
ag14
((lp297
tp298
Rp299
ag14
((lp300
tp301
Rp302
ag14
((lp303
tp304
Rp305
ag14
((lp306
tp307
Rp308
ag14
((lp309
tp310
Rp311
ag14
((lp312
tp313
Rp314
ag14
((lp315
tp316
Rp317
ag14
((lp318
tp319
Rp320
ag14
((lp321
I-82
aI103
atp322
Rp323
ag14
((lp324
I-82
aI102
atp325
Rp326
ag14
((lp327
tp328
Rp329
ag14
((lp330
tp331
Rp332
ag14
((lp333
tp334
Rp335
ag14
((lp336
tp337
Rp338
ag14
((lp339
tp340
Rp341
ag14
((lp342
tp343
Rp344
ag14
((lp345
tp346
Rp347
ag14
((lp348
tp349
Rp350
ag14
((lp351
tp352
Rp353
ag14
((lp354
tp355
Rp356
ag14
((lp357
tp358
Rp359
ag14
((lp360
tp361
Rp362
ag14
((lp363
tp364
Rp365
ag14
((lp366
tp367
Rp368
ag14
((lp369
tp370
Rp371
ag14
((lp372
I-112
atp373
Rp374
ag14
((lp375
tp376
Rp377
ag14
((lp378
tp379
Rp380
ag14
((lp381
tp382
Rp383
ag14
((lp384
tp385
Rp386
ag14
((lp387
tp388
Rp389
ag14
((lp390
tp391
Rp392
ag14
((lp393
tp394
Rp395
ag14
((lp396
tp397
Rp398
ag14
((lp399
tp400
Rp401
ag14
((lp402
tp403
Rp404
ag14
((lp405
I-125
atp406
Rp407
ag14
((lp408
tp409
Rp410
ag14
((lp411
tp412
Rp413
ag14
((lp414
tp415
Rp416
ag14
((lp417
I-128
aI135
atp418
Rp419
ag14
((lp420
I-128
aI134
atp421
Rp422
ag14
((lp423
I137
aI138
aI139
aI-134
aI142
atp424
Rp425
ag14
((lp426
I136
aI138
aI139
aI140
aI141
aI142
aI-134
aI-133
aI-130
atp427
Rp428
ag14
((lp429
I136
aI137
aI139
aI140
aI141
aI142
aI-134
aI-133
aI-130
atp430
Rp431
ag14
((lp432
I136
aI137
aI138
aI140
aI141
aI142
aI-134
aI-133
aI-130
atp433
Rp434
ag14
((lp435
I137
aI138
aI139
aI141
aI142
aI-134
aI-133
aI-130
atp436
Rp437
ag14
((lp438
I139
aI137
aI138
aI-133
aI140
aI-130
atp439
Rp440
ag14
((lp441
I136
aI137
aI138
aI139
aI140
aI-134
aI-133
aI-130
atp442
Rp443
ag14
((lp444
tp445
Rp446
ag14
((lp447
tp448
Rp449
ag14
((lp450
I146
atp451
Rp452
ag14
((lp453
I-136
aI145
atp454
Rp455
ag14
((lp456
tp457
Rp458
ag14
((lp459
tp460
Rp461
ag14
((lp462
tp463
Rp464
ag14
((lp465
tp466
Rp467
ag14
((lp468
I-150
aI-149
aI-148
aI-146
aI-137
aI158
aI152
aI-135
aI154
aI156
aI157
aI153
aI-129
atp469
Rp470
ag14
((lp471
I-150
aI-149
aI-148
aI151
aI-146
aI-135
aI-137
aI153
aI156
aI157
aI158
atp472
Rp473
ag14
((lp474
I-150
aI-149
aI-148
aI151
aI-146
aI-135
aI-137
aI152
aI156
aI157
aI158
atp475
Rp476
ag14
((lp477
I-129
aI151
aI-146
aI-137
atp478
Rp479
ag14
((lp480
I-137
atp481
Rp482
ag14
((lp483
I-150
aI-149
aI-148
aI151
aI-146
aI158
aI-137
aI152
aI-135
aI157
aI153
aI-129
atp484
Rp485
ag14
((lp486
I-150
aI-149
aI-148
aI151
aI-146
aI153
aI-137
aI152
aI-135
aI156
aI158
atp487
Rp488
ag14
((lp489
I-150
aI-149
aI-148
aI151
aI-146
aI153
aI-137
aI152
aI-135
aI156
aI157
atp490
Rp491
ag14
((lp492
tp493
Rp494
ag14
((lp495
tp496
Rp497
ag14
((lp498
tp499
Rp500
ag14
((lp501
tp502
Rp503
ag14
((lp504
I-140
aI164
aI-147
atp505
Rp506
ag14
((lp507
I-140
aI163
aI-147
atp508
Rp509
ag14
((lp510
I-157
aI-141
aI-163
atp511
Rp512
ag14
((lp513
tp514
Rp515
ag14
((lp516
tp517
Rp518
ag14
((lp519
tp520
Rp521
ag14
((lp522
tp523
Rp524
ag14
((lp525
I-142
aI-168
aI-165
aI172
aI-158
aI173
atp526
Rp527
ag14
((lp528
I-158
aI-165
aI-168
aI172
aI-142
aI173
atp529
Rp530
ag14
((lp531
I-158
aI170
aI171
aI173
aI-142
aI-168
aI-165
atp532
Rp533
ag14
((lp534
I-158
aI170
aI171
aI172
aI-142
aI-168
aI-165
atp535
Rp536
ag14
((lp537
tp538
Rp539
ag14
((lp540
tp541
Rp542
ag14
((lp543
tp544
Rp545
ag14
((lp546
I-176
aI-175
aI178
aI-172
aI-164
aI-174
atp547
Rp548
ag14
((lp549
I-176
aI177
aI-174
aI-172
aI-175
aI-164
atp550
Rp551
ag14
((lp552
tp553
Rp554
ag14
((lp555
tp556
Rp557
ag14
((lp558
I-173
atp559
Rp560
ag14
((lp561
tp562
Rp563
ag14
((lp564
I-175
aI-174
aI-172
aI177
aI-164
aI178
atp565
Rp566
ag14
((lp567
I-176
aI177
aI-174
aI-172
aI-164
aI178
atp568
Rp569
ag14
((lp570
I-176
aI177
aI178
aI-172
aI-175
aI-164
atp571
Rp572
ag14
((lp573
I-178
atp574
Rp575
ag14
((lp576
I-176
aI177
aI178
aI-175
aI-164
aI-174
atp577
Rp578
ag14
((lp579
tp580
Rp581
ag14
((lp582
I-166
aI-161
atp583
Rp584
ag14
((lp585
tp586
Rp587
ag14
((lp588
I-158
aI170
aI171
aI172
aI173
aI-142
aI-165
atp589
Rp590
ag14
((lp591
tp592
Rp593
ag14
((lp594
I-170
aI-161
atp595
Rp596
ag14
((lp597
I-158
aI170
aI171
aI172
aI173
aI-142
aI-168
atp598
Rp599
ag14
((lp600
I-176
aI-175
aI178
aI-172
aI177
aI-174
atp601
Rp602
ag14
((lp603
I-157
aI-141
aI165
atp604
Rp605
ag14
((lp606
I-160
aI-139
atp607
Rp608
ag14
((lp609
I-166
aI-170
atp610
Rp611
ag14
((lp612
I-139
aI-162
atp613
Rp614
ag14
((lp615
I-151
atp616
Rp617
ag14
((lp618
I170
aI171
aI172
aI173
aI-142
aI-168
aI-165
atp619
Rp620
ag14
((lp621
I-141
aI165
aI-163
atp622
Rp623
ag14
((lp624
tp625
Rp626
ag14
((lp627
tp628
Rp629
ag14
((lp630
I-153
atp631
Rp632
ag14
((lp633
I-154
atp634
Rp635
ag14
((lp636
I-138
atp637
Rp638
ag14
((lp639
I-159
atp640
Rp641
ag14
((lp642
I-149
aI-148
aI151
aI-146
aI158
aI-137
aI152
aI-135
aI156
aI157
aI153
atp643
Rp644
ag14
((lp645
I-150
aI-148
aI-146
aI-135
aI-137
aI151
aI152
aI153
aI156
aI157
aI158
atp646
Rp647
ag14
((lp648
I-150
aI-149
aI151
aI-146
aI153
aI-137
aI152
aI-135
aI156
aI157
aI158
atp649
Rp650
ag14
((lp651
I164
aI163
aI-140
atp652
Rp653
ag14
((lp654
I-150
aI-149
aI-148
aI151
aI-135
aI-137
aI152
aI153
aI154
aI156
aI157
aI158
aI-129
atp655
Rp656
ag14
((lp657
I-144
aI-131
atp658
Rp659
ag14
((lp660
I-131
aI-145
atp661
Rp662
ag14
((lp663
tp664
Rp665
ag14
((lp666
I-158
aI170
aI171
aI172
aI173
aI-168
aI-165
atp667
Rp668
ag14
((lp669
I-157
aI165
aI-163
atp670
Rp671
ag14
((lp672
I164
aI163
aI-147
atp673
Rp674
ag14
((lp675
I-160
aI-162
atp676
Rp677
ag14
((lp678
I-152
atp679
Rp680
ag14
((lp681
I-150
aI-149
aI-148
aI-146
aI158
aI151
aI152
aI-135
aI154
aI155
aI156
aI157
aI153
aI-129
atp682
Rp683
ag14
((lp684
I146
atp685
Rp686
ag14
((lp687
I-150
aI-149
aI-148
aI151
aI-146
aI158
aI-137
aI152
aI156
aI157
aI153
atp688
Rp689
ag14
((lp690
I136
aI137
aI138
aI139
aI140
aI142
aI-133
aI-130
atp691
Rp692
ag14
((lp693
I137
aI138
aI139
aI140
aI141
aI142
aI-134
aI-130
atp694
Rp695
ag14
((lp696
tp697
Rp698
ag14
((lp699
I-144
aI-145
atp700
Rp701
ag14
((lp702
I137
aI138
aI139
aI140
aI141
aI142
aI-134
aI-133
atp703
Rp704
ag14
((lp705
I151
aI154
aI-137
aI156
aI-146
atp706
Rp707
ag14
((lp708
I134
aI135
atp709
Rp710
ag14
((lp711
tp712
Rp713
ag14
((lp714
tp715
Rp716
ag14
((lp717
I130
atp718
Rp719
ag14
((lp720
tp721
Rp722
ag14
((lp723
tp724
Rp725
ag14
((lp726
tp727
Rp728
ag14
((lp729
tp730
Rp731
ag14
((lp732
tp733
Rp734
ag14
((lp735
tp736
Rp737
ag14
((lp738
tp739
Rp740
ag14
((lp741
tp742
Rp743
ag14
((lp744
tp745
Rp746
ag14
((lp747
tp748
Rp749
ag14
((lp750
tp751
Rp752
ag14
((lp753
tp754
Rp755
ag14
((lp756
I119
atp757
Rp758
ag14
((lp759
tp760
Rp761
ag14
((lp762
tp763
Rp764
ag14
((lp765
tp766
Rp767
ag14
((lp768
tp769
Rp770
ag14
((lp771
tp772
Rp773
ag14
((lp774
tp775
Rp776
ag14
((lp777
tp778
Rp779
ag14
((lp780
tp781
Rp782
ag14
((lp783
tp784
Rp785
ag14
((lp786
I-101
atp787
Rp788
ag14
((lp789
I-102
atp790
Rp791
ag14
((lp792
tp793
Rp794
ag14
((lp795
I-92
atp796
Rp797
ag14
((lp798
tp799
Rp800
ag14
((lp801
tp802
Rp803
ag14
((lp804
tp805
Rp806
ag14
((lp807
tp808
Rp809
ag14
((lp810
tp811
Rp812
ag14
((lp813
tp814
Rp815
ag14
((lp816
I-99
atp817
Rp818
ag14
((lp819
tp820
Rp821
ag14
((lp822
tp823
Rp824
ag14
((lp825
tp826
Rp827
ag14
((lp828
tp829
Rp830
ag14
((lp831
tp832
Rp833
ag14
((lp834
I-81
atp835
Rp836
ag14
((lp837
tp838
Rp839
ag14
((lp840
tp841
Rp842
ag14
((lp843
tp844
Rp845
ag14
((lp846
I102
aI103
atp847
Rp848
ag14
((lp849
I-86
atp850
Rp851
ag14
((lp852
I-71
aI86
atp853
Rp854
ag14
((lp855
tp856
Rp857
ag14
((lp858
I-63
aI-61
aI82
aI79
aI80
aI81
aI-77
aI-76
aI-43
aI-73
aI-70
aI-66
atp859
Rp860
ag14
((lp861
I-63
aI-61
aI82
aI79
aI80
aI81
aI-78
aI83
aI-76
aI-75
aI-73
aI-70
aI-66
aI-43
atp862
Rp863
ag14
((lp864
I-63
aI-61
aI82
aI79
aI80
aI81
aI-78
aI-77
aI-43
aI-73
aI-70
aI-66
atp865
Rp866
ag14
((lp867
I80
aI83
aI-77
aI-66
atp868
Rp869
ag14
((lp870
tp871
Rp872
ag14
((lp873
I-63
aI-61
aI82
aI79
aI80
aI81
aI-78
aI-77
aI-76
aI-43
aI-70
aI-66
atp874
Rp875
ag14
((lp876
tp877
Rp878
ag14
((lp879
I-80
aI86
atp880
Rp881
ag14
((lp882
I-63
aI-61
aI82
aI79
aI80
aI81
aI-78
aI-77
aI-76
aI-43
aI-73
aI-66
atp883
Rp884
ag14
((lp885
tp886
Rp887
ag14
((lp888
tp889
Rp890
ag14
((lp891
I84
atp892
Rp893
ag14
((lp894
I-63
aI-61
aI82
aI79
aI80
aI81
aI-78
aI83
aI-76
aI-75
aI-73
aI-70
aI-77
aI-43
atp895
Rp896
ag14
((lp897
tp898
Rp899
ag14
((lp900
I66
atp901
Rp902
ag14
((lp903
I-61
aI-78
aI79
aI80
aI81
aI82
aI-77
aI-76
aI-43
aI-73
aI-70
aI-66
atp904
Rp905
ag14
((lp906
tp907
Rp908
ag14
((lp909
I-63
aI82
aI79
aI80
aI81
aI-78
aI-77
aI-76
aI-43
aI-73
aI-70
aI-66
atp910
Rp911
ag14
((lp912
I66
aI67
aI-42
atp913
Rp914
ag14
((lp915
tp916
Rp917
ag14
((lp918
I63
atp919
Rp920
ag14
((lp921
I-41
atp922
Rp923
ag14
((lp924
tp925
Rp926
ag14
((lp927
tp928
Rp929
ag14
((lp930
tp931
Rp932
ag14
((lp933
tp934
Rp935
ag14
((lp936
tp937
Rp938
ag14
((lp939
tp940
Rp941
ag14
((lp942
I-40
aI51
atp943
Rp944
ag14
((lp945
tp946
Rp947
ag14
((lp948
tp949
Rp950
ag14
((lp951
I56
atp952
Rp953
ag14
((lp954
tp955
Rp956
ag14
((lp957
tp958
Rp959
ag14
((lp960
tp961
Rp962
ag14
((lp963
I-63
aI-61
aI82
aI79
aI80
aI81
aI-78
aI-77
aI-76
aI-73
aI-70
aI-66
atp964
Rp965
ag14
((lp966
I66
aI67
aI-60
atp967
Rp968
ag14
((lp969
I-57
atp970
Rp971
ag14
((lp972
I51
aI-50
atp973
Rp974
ag14
((lp975
tp976
Rp977
ag14
((lp978
I39
aI40
aI41
aI42
aI43
atp979
Rp980
ag14
((lp981
tp982
Rp983
ag14
((lp984
I66
atp985
Rp986
ag14
((lp987
tp988
Rp989
ag14
((lp990
I49
atp991
Rp992
ag14
((lp993
tp994
Rp995
ag14
((lp996
tp997
Rp998
ag14
((lp999
tp1000
Rp1001
ag14
((lp1002
I-27
atp1003
Rp1004
ag14
((lp1005
tp1006
Rp1007
ag14
((lp1008
tp1009
Rp1010
ag14
((lp1011
I-30
atp1012
Rp1013
ag14
((lp1014
tp1015
Rp1016
ag14
((lp1017
tp1018
Rp1019
ag14
((lp1020
I25
aI-23
aI26
aI28
aI29
atp1021
Rp1022
ag14
((lp1023
I25
aI-24
aI26
aI28
aI29
atp1024
Rp1025
ag14
((lp1026
tp1027
Rp1028
ag14
((lp1029
tp1030
Rp1031
ag14
((lp1032
tp1033
Rp1034
ag14
((lp1035
tp1036
Rp1037
ag14
((lp1038
tp1039
Rp1040
ag14
((lp1041
tp1042
Rp1043
ag14
((lp1044
tp1045
Rp1046
ag14
((lp1047
tp1048
Rp1049
ag14
((lp1050
tp1051
Rp1052
ag14
((lp1053
tp1054
Rp1055
ag14
((lp1056
tp1057
Rp1058
ag14
((lp1059
tp1060
Rp1061
ag14
((lp1062
I-9
atp1063
Rp1064
ag14
((lp1065
I-10
atp1066
Rp1067
ag14
((lp1068
tp1069
Rp1070
ag14
((lp1071
tp1072
Rp1073
ag14
((lp1074
I8
aI9
atp1075
Rp1076
ag14
((lp1077
tp1078
Rp1079
ag14
((lp1080
I7
atp1081
Rp1082
ag14
((lp1083
tp1084
Rp1085
ag14
((lp1086
tp1087
Rp1088
ag14
((lp1089
tp1090
Rp1091
atp1092
b.