cnumpy.core.multiarray
_reconstruct
p0
(cnumpy
ndarray
p1
(I0
tp2
S'b'
p3
tp4
Rp5
(I1
(I291
tp6
cnumpy
dtype
p7
(S'O8'
p8
I0
I1
tp9
Rp10
(I3
S'|'
p11
NNNI-1
I-1
I63
tp12
bI00
(lp13
c__builtin__
set
p14
((lp15
tp16
Rp17
ag14
((lp18
tp19
Rp20
ag14
((lp21
tp22
Rp23
ag14
((lp24
tp25
Rp26
ag14
((lp27
tp28
Rp29
ag14
((lp30
tp31
Rp32
ag14
((lp33
tp34
Rp35
ag14
((lp36
tp37
Rp38
ag14
((lp39
tp40
Rp41
ag14
((lp42
tp43
Rp44
ag14
((lp45
I-8
aI-9
atp46
Rp47
ag14
((lp48
tp49
Rp50
ag14
((lp51
tp52
Rp53
ag14
((lp54
tp55
Rp56
ag14
((lp57
tp58
Rp59
ag14
((lp60
tp61
Rp62
ag14
((lp63
tp64
Rp65
ag14
((lp66
tp67
Rp68
ag14
((lp69
tp70
Rp71
ag14
((lp72
tp73
Rp74
ag14
((lp75
tp76
Rp77
ag14
((lp78
tp79
Rp80
ag14
((lp81
tp82
Rp83
ag14
((lp84
tp85
Rp86
ag14
((lp87
tp88
Rp89
ag14
((lp90
I27
aI-24
aI-22
aI-21
aI26
atp91
Rp92
ag14
((lp93
I-21
aI-24
aI25
aI-22
aI27
atp94
Rp95
ag14
((lp96
I-21
aI-24
aI25
aI-22
aI26
atp97
Rp98
ag14
((lp99
I29
atp100
Rp101
ag14
((lp102
I28
atp103
Rp104
ag14
((lp105
tp106
Rp107
ag14
((lp108
tp109
Rp110
ag14
((lp111
tp112
Rp113
ag14
((lp114
tp115
Rp116
ag14
((lp117
tp118
Rp119
ag14
((lp120
I37
atp121
Rp122
ag14
((lp123
tp124
Rp125
ag14
((lp126
I35
atp127
Rp128
ag14
((lp129
tp130
Rp131
ag14
((lp132
tp133
Rp134
ag14
((lp135
tp136
Rp137
ag14
((lp138
tp139
Rp140
ag14
((lp141
tp142
Rp143
ag14
((lp144
tp145
Rp146
ag14
((lp147
tp148
Rp149
ag14
((lp150
tp151
Rp152
ag14
((lp153
tp154
Rp155
ag14
((lp156
tp157
Rp158
ag14
((lp159
tp160
Rp161
ag14
((lp162
I50
atp163
Rp164
ag14
((lp165
I49
atp166
Rp167
ag14
((lp168
I-49
atp169
Rp170
ag14
((lp171
tp172
Rp173
ag14
((lp174
I-52
aI-51
aI-50
aI-48
aI-47
aI-44
aI-42
aI-38
aI-37
aI-36
aI-34
aI-33
aI54
aI55
aI56
aI57
atp175
Rp176
ag14
((lp177
I-52
aI-51
aI-50
aI-48
aI-47
aI-44
aI-42
aI-38
aI-37
aI-36
aI-34
aI-33
aI53
aI55
aI56
aI57
atp178
Rp179
ag14
((lp180
I-52
aI-51
aI-50
aI-48
aI-47
aI-44
aI-42
aI-38
aI-37
aI-36
aI-34
aI-33
aI53
aI54
aI56
aI57
atp181
Rp182
ag14
((lp183
I-52
aI-51
aI-50
aI-48
aI-47
aI-44
aI-42
aI-38
aI-37
aI-36
aI-34
aI-33
aI53
aI54
aI55
aI57
atp184
Rp185
ag14
((lp186
I-52
aI-51
aI-50
aI-48
aI-47
aI-44
aI-42
aI-38
aI-37
aI-36
aI-34
aI-33
aI53
aI54
aI55
aI56
atp187
Rp188
ag14
((lp189
I-55
atp190
Rp191
ag14
((lp192
I-57
atp193
Rp194
ag14
((lp195
tp196
Rp197
ag14
((lp198
I-58
aI63
aI62
aI-59
atp199
Rp200
ag14
((lp201
I-58
aI-59
aI61
aI63
atp202
Rp203
ag14
((lp204
I-58
aI-59
aI61
aI62
atp205
Rp206
ag14
((lp207
tp208
Rp209
ag14
((lp210
I66
atp211
Rp212
ag14
((lp213
I65
atp214
Rp215
ag14
((lp216
I-63
aI68
aI69
aI-65
atp217
Rp218
ag14
((lp219
I-63
aI67
aI69
aI-65
atp220
Rp221
ag14
((lp222
I-63
aI67
aI68
aI-65
atp223
Rp224
ag14
((lp225
I72
aI-64
aI-66
aI71
atp226
Rp227
ag14
((lp228
I72
aI-64
aI-66
aI70
atp229
Rp230
ag14
((lp231
I-64
aI-66
aI70
aI71
atp232
Rp233
ag14
((lp234
tp235
Rp236
ag14
((lp237
tp238
Rp239
ag14
((lp240
tp241
Rp242
ag14
((lp243
tp244
Rp245
ag14
((lp246
tp247
Rp248
ag14
((lp249
tp250
Rp251
ag14
((lp252
tp253
Rp254
ag14
((lp255
tp256
Rp257
ag14
((lp258
tp259
Rp260
ag14
((lp261
tp262
Rp263
ag14
((lp264
tp265
Rp266
ag14
((lp267
tp268
Rp269
ag14
((lp270
tp271
Rp272
ag14
((lp273
tp274
Rp275
ag14
((lp276
tp277
Rp278
ag14
((lp279
tp280
Rp281
ag14
((lp282
I-88
aI90
atp283
Rp284
ag14
((lp285
I-88
aI89
atp286
Rp287
ag14
((lp288
tp289
Rp290
ag14
((lp291
tp292
Rp293
ag14
((lp294
tp295
Rp296
ag14
((lp297
I-93
aI-92
aI-89
aI-84
aI95
atp298
Rp299
ag14
((lp300
I-93
aI-92
aI-89
aI-84
aI94
atp301
Rp302
ag14
((lp303
tp304
Rp305
ag14
((lp306
tp307
Rp308
ag14
((lp309
I-85
aI-97
atp310
Rp311
ag14
((lp312
tp313
Rp314
ag14
((lp315
tp316
Rp317
ag14
((lp318
tp319
Rp320
ag14
((lp321
tp322
Rp323
ag14
((lp324
tp325
Rp326
ag14
((lp327
tp328
Rp329
ag14
((lp330
tp331
Rp332
ag14
((lp333
tp334
Rp335
ag14
((lp336
tp337
Rp338
ag14
((lp339
tp340
Rp341
ag14
((lp342
tp343
Rp344
ag14
((lp345
tp346
Rp347
ag14
((lp348
tp349
Rp350
ag14
((lp351
tp352
Rp353
ag14
((lp354
tp355
Rp356
ag14
((lp357
tp358
Rp359
ag14
((lp360
tp361
Rp362
ag14
((lp363
I-114
atp364
Rp365
ag14
((lp366
tp367
Rp368
ag14
((lp369
tp370
Rp371
ag14
((lp372
tp373
Rp374
ag14
((lp375
tp376
Rp377
ag14
((lp378
tp379
Rp380
ag14
((lp381
tp382
Rp383
ag14
((lp384
tp385
Rp386
ag14
((lp387
tp388
Rp389
ag14
((lp390
I-124
aI-123
aI-122
aI-121
aI-119
aI-118
aI-117
aI-115
aI-113
aI-111
aI-110
aI-109
aI-106
aI-104
aI-102
aI-100
aI-77
atp391
Rp392
ag14
((lp393
tp394
Rp395
ag14
((lp396
tp397
Rp398
ag14
((lp399
tp400
Rp401
ag14
((lp402
tp403
Rp404
ag14
((lp405
I131
atp406
Rp407
ag14
((lp408
I130
atp409
Rp410
ag14
((lp411
I133
atp412
Rp413
ag14
((lp414
I132
atp415
Rp416
ag14
((lp417
tp418
Rp419
ag14
((lp420
tp421
Rp422
ag14
((lp423
tp424
Rp425
ag14
((lp426
I-136
atp427
Rp428
ag14
((lp429
tp430
Rp431
ag14
((lp432
tp433
Rp434
ag14
((lp435
tp436
Rp437
ag14
((lp438
I-131
aI-139
aI-138
aI-137
atp439
Rp440
ag14
((lp441
tp442
Rp443
ag14
((lp444
tp445
Rp446
ag14
((lp447
tp448
Rp449
ag14
((lp450
tp451
Rp452
ag14
((lp453
tp454
Rp455
ag14
((lp456
tp457
Rp458
ag14
((lp459
tp460
Rp461
ag14
((lp462
tp463
Rp464
ag14
((lp465
tp466
Rp467
ag14
((lp468
I-138
aI-137
atp469
Rp470
ag14
((lp471
I141
aI-138
aI-131
atp472
Rp473
ag14
((lp474
I-140
aI-139
aI-137
aI-131
aI141
atp475
Rp476
ag14
((lp477
I-140
aI141
aI-138
atp478
Rp479
ag14
((lp480
I137
atp481
Rp482
ag14
((lp483
tp484
Rp485
ag14
((lp486
tp487
Rp488
ag14
((lp489
tp490
Rp491
ag14
((lp492
tp493
Rp494
ag14
((lp495
I-139
aI-138
aI141
atp496
Rp497
ag14
((lp498
tp499
Rp500
ag14
((lp501
tp502
Rp503
ag14
((lp504
tp505
Rp506
ag14
((lp507
tp508
Rp509
ag14
((lp510
tp511
Rp512
ag14
((lp513
tp514
Rp515
ag14
((lp516
I-123
aI-122
aI-121
aI-119
aI-118
aI-117
aI-115
aI-113
aI-111
aI-110
aI-109
aI-106
aI-104
aI-102
aI-100
aI-77
aI125
atp517
Rp518
ag14
((lp519
I-124
aI-122
aI-121
aI-119
aI-118
aI-117
aI-115
aI-113
aI-111
aI-110
aI-109
aI-106
aI-104
aI-102
aI-100
aI-77
aI125
atp520
Rp521
ag14
((lp522
I-124
aI-123
aI-121
aI-119
aI-118
aI-117
aI-115
aI-113
aI-111
aI-110
aI-109
aI-106
aI-104
aI-102
aI-100
aI-77
aI125
atp523
Rp524
ag14
((lp525
I-124
aI-123
aI-122
aI-119
aI-118
aI-117
aI-115
aI-113
aI-111
aI-110
aI-109
aI-106
aI-104
aI-102
aI-100
aI-77
aI125
atp526
Rp527
ag14
((lp528
tp529
Rp530
ag14
((lp531
I-124
aI-123
aI-122
aI-121
aI-118
aI-117
aI-115
aI-113
aI-111
aI-110
aI-109
aI-106
aI-104
aI-102
aI-100
aI-77
aI125
atp532
Rp533
ag14
((lp534
I-124
aI-123
aI-122
aI-121
aI-119
aI-117
aI-115
aI-113
aI-111
aI-110
aI-109
aI-106
aI-104
aI-102
aI-100
aI-77
aI125
atp535
Rp536
ag14
((lp537
I-124
aI-123
aI-122
aI-121
aI-119
aI-118
aI-115
aI-113
aI-111
aI-110
aI-109
aI-106
aI-104
aI-102
aI-100
aI-77
aI125
atp538
Rp539
ag14
((lp540
tp541
Rp542
ag14
((lp543
I-124
aI-123
aI-122
aI-121
aI-119
aI-118
aI-117
aI-113
aI-111
aI-110
aI-109
aI-106
aI-104
aI-102
aI-100
aI-77
aI125
atp544
Rp545
ag14
((lp546
I116
atp547
Rp548
ag14
((lp549
I-124
aI-123
aI-122
aI-121
aI-119
aI-118
aI-117
aI-115
aI-111
aI-110
aI-109
aI-106
aI-104
aI-102
aI-100
aI-77
aI125
atp550
Rp551
ag14
((lp552
tp553
Rp554
ag14
((lp555
I-124
aI-123
aI-122
aI-121
aI-119
aI-118
aI-117
aI-115
aI-113
aI-110
aI-109
aI-106
aI-104
aI-102
aI-100
aI-77
aI125
atp556
Rp557
ag14
((lp558
I-124
aI-123
aI-122
aI-121
aI-119
aI-118
aI-117
aI-115
aI-113
aI-111
aI-109
aI-106
aI-104
aI-102
aI-100
aI-77
aI125
atp559
Rp560
ag14
((lp561
I-124
aI-123
aI-122
aI-121
aI-119
aI-118
aI-117
aI-115
aI-113
aI-111
aI-110
aI-106
aI-104
aI-102
aI-100
aI-77
aI125
atp562
Rp563
ag14
((lp564
tp565
Rp566
ag14
((lp567
tp568
Rp569
ag14
((lp570
I-124
aI-123
aI-122
aI-121
aI-119
aI-118
aI-117
aI-115
aI-113
aI-111
aI-110
aI-109
aI-104
aI-102
aI-100
aI-77
aI125
atp571
Rp572
ag14
((lp573
tp574
Rp575
ag14
((lp576
I-124
aI-123
aI-122
aI-121
aI-119
aI-118
aI-117
aI-115
aI-113
aI-111
aI-110
aI-109
aI-106
aI-102
aI-100
aI-77
aI125
atp577
Rp578
ag14
((lp579
tp580
Rp581
ag14
((lp582
I-124
aI-123
aI-122
aI-121
aI-119
aI-118
aI-117
aI-115
aI-113
aI-111
aI-110
aI-109
aI-106
aI-104
aI-100
aI-77
aI125
atp583
Rp584
ag14
((lp585
tp586
Rp587
ag14
((lp588
I-124
aI-123
aI-122
aI-121
aI-119
aI-118
aI-117
aI-115
aI-113
aI-111
aI-110
aI-109
aI-106
aI-104
aI-102
aI-77
aI125
atp589
Rp590
ag14
((lp591
tp592
Rp593
ag14
((lp594
tp595
Rp596
ag14
((lp597
I98
aI-85
atp598
Rp599
ag14
((lp600
tp601
Rp602
ag14
((lp603
tp604
Rp605
ag14
((lp606
tp607
Rp608
ag14
((lp609
I-92
aI-89
aI-84
aI94
aI95
atp610
Rp611
ag14
((lp612
I-93
aI-89
aI-84
aI94
aI95
atp613
Rp614
ag14
((lp615
tp616
Rp617
ag14
((lp618
tp619
Rp620
ag14
((lp621
I-93
aI-92
aI-84
aI94
aI95
atp622
Rp623
ag14
((lp624
I89
aI90
atp625
Rp626
ag14
((lp627
tp628
Rp629
ag14
((lp630
tp631
Rp632
ag14
((lp633
I98
aI-97
atp634
Rp635
ag14
((lp636
I-93
aI-92
aI-89
aI94
aI95
atp637
Rp638
ag14
((lp639
tp640
Rp641
ag14
((lp642
tp643
Rp644
ag14
((lp645
tp646
Rp647
ag14
((lp648
I-79
aI-78
atp649
Rp650
ag14
((lp651
I-80
aI-78
atp652
Rp653
ag14
((lp654
I-80
aI-79
atp655
Rp656
ag14
((lp657
I-124
aI-123
aI-122
aI-121
aI-119
aI-118
aI-117
aI-115
aI-113
aI-111
aI-110
aI-109
aI-106
aI-104
aI-102
aI-100
aI125
atp658
Rp659
ag14
((lp660
tp661
Rp662
ag14
((lp663
tp664
Rp665
ag14
((lp666
tp667
Rp668
ag14
((lp669
tp670
Rp671
ag14
((lp672
tp673
Rp674
ag14
((lp675
tp676
Rp677
ag14
((lp678
tp679
Rp680
ag14
((lp681
tp682
Rp683
ag14
((lp684
tp685
Rp686
ag14
((lp687
I-29
atp688
Rp689
ag14
((lp690
I72
aI-64
aI70
aI71
atp691
Rp692
ag14
((lp693
I-63
aI67
aI68
aI69
atp694
Rp695
ag14
((lp696
I72
aI70
aI-66
aI71
atp697
Rp698
ag14
((lp699
I67
aI68
aI69
aI-65
atp700
Rp701
ag14
((lp702
tp703
Rp704
ag14
((lp705
tp706
Rp707
ag14
((lp708
tp709
Rp710
ag14
((lp711
I-58
aI63
aI62
aI61
atp712
Rp713
ag14
((lp714
I61
aI62
aI-59
aI63
atp715
Rp716
ag14
((lp717
I59
atp718
Rp719
ag14
((lp720
tp721
Rp722
ag14
((lp723
I58
atp724
Rp725
ag14
((lp726
tp727
Rp728
ag14
((lp729
tp730
Rp731
ag14
((lp732
I-51
aI-50
aI-48
aI-47
aI-44
aI-42
aI-38
aI-37
aI-36
aI-34
aI-33
aI53
aI54
aI55
aI56
aI57
atp733
Rp734
ag14
((lp735
I-52
aI-50
aI-48
aI-47
aI-44
aI-42
aI-38
aI-37
aI-36
aI-34
aI-33
aI53
aI54
aI55
aI56
aI57
atp736
Rp737
ag14
((lp738
I-52
aI-51
aI-48
aI-47
aI-44
aI-42
aI-38
aI-37
aI-36
aI-34
aI-33
aI53
aI54
aI55
aI56
aI57
atp739
Rp740
ag14
((lp741
I51
atp742
Rp743
ag14
((lp744
I-52
aI-51
aI-50
aI-47
aI-44
aI-42
aI-38
aI-37
aI-36
aI-34
aI-33
aI53
aI54
aI55
aI56
aI57
atp745
Rp746
ag14
((lp747
I-52
aI-51
aI-50
aI-48
aI-44
aI-42
aI-38
aI-37
aI-36
aI-34
aI-33
aI53
aI54
aI55
aI56
aI57
atp748
Rp749
ag14
((lp750
tp751
Rp752
ag14
((lp753
tp754
Rp755
ag14
((lp756
I-52
aI-51
aI-50
aI-48
aI-47
aI-42
aI-38
aI-37
aI-36
aI-34
aI-33
aI53
aI54
aI55
aI56
aI57
atp757
Rp758
ag14
((lp759
tp760
Rp761
ag14
((lp762
I-52
aI-51
aI-50
aI-48
aI-47
aI-44
aI-38
aI-37
aI-36
aI-34
aI-33
aI53
aI54
aI55
aI56
aI57
atp763
Rp764
ag14
((lp765
tp766
Rp767
ag14
((lp768
tp769
Rp770
ag14
((lp771
tp772
Rp773
ag14
((lp774
I-52
aI-51
aI-50
aI-48
aI-47
aI-44
aI-42
aI-37
aI-36
aI-34
aI-33
aI53
aI54
aI55
aI56
aI57
atp775
Rp776
ag14
((lp777
I-52
aI-51
aI-50
aI-48
aI-47
aI-44
aI-42
aI-38
aI-36
aI-34
aI-33
aI53
aI54
aI55
aI56
aI57
atp778
Rp779
ag14
((lp780
I-52
aI-51
aI-50
aI-48
aI-47
aI-44
aI-42
aI-38
aI-37
aI-34
aI-33
aI53
aI54
aI55
aI56
aI57
atp781
Rp782
ag14
((lp783
tp784
Rp785
ag14
((lp786
I-52
aI-51
aI-50
aI-48
aI-47
aI-44
aI-42
aI-38
aI-37
aI-36
aI-33
aI53
aI54
aI55
aI56
aI57
atp787
Rp788
ag14
((lp789
I-52
aI-51
aI-50
aI-48
aI-47
aI-44
aI-42
aI-38
aI-37
aI-36
aI-34
aI53
aI54
aI55
aI56
aI57
atp790
Rp791
ag14
((lp792
tp793
Rp794
ag14
((lp795
tp796
Rp797
ag14
((lp798
tp799
Rp800
ag14
((lp801
I-67
atp802
Rp803
ag14
((lp804
tp805
Rp806
ag14
((lp807
tp808
Rp809
ag14
((lp810
tp811
Rp812
ag14
((lp813
tp814
Rp815
ag14
((lp816
I-21
aI25
aI26
aI27
aI-22
atp817
Rp818
ag14
((lp819
tp820
Rp821
ag14
((lp822
I27
aI-24
aI25
aI26
aI-21
atp823
Rp824
ag14
((lp825
I27
aI-24
aI25
aI26
aI-22
atp826
Rp827
ag14
((lp828
tp829
Rp830
ag14
((lp831
tp832
Rp833
ag14
((lp834
tp835
Rp836
ag14
((lp837
tp838
Rp839
ag14
((lp840
tp841
Rp842
ag14
((lp843
tp844
Rp845
ag14
((lp846
tp847
Rp848
ag14
((lp849
tp850
Rp851
ag14
((lp852
tp853
Rp854
ag14
((lp855
tp856
Rp857
ag14
((lp858
tp859
Rp860
ag14
((lp861
I-8
aI10
atp862
Rp863
ag14
((lp864
I10
aI-9
atp865
Rp866
ag14
((lp867
tp868
Rp869
ag14
((lp870
tp871
Rp872
ag14
((lp873
tp874
Rp875
ag14
((lp876
tp877
Rp878
ag14
((lp879
tp880
Rp881
ag14
((lp882
tp883
Rp884
ag14
((lp885
tp886
Rp887
atp888
b.