cnumpy.core.multiarray
_reconstruct
p0
(cnumpy
ndarray
p1
(I0
tp2
S'b'
p3
tp4
Rp5
(I1
(I465
tp6
cnumpy
dtype
p7
(S'O8'
p8
I0
I1
tp9
Rp10
(I3
S'|'
p11
NNNI-1
I-1
I63
tp12
bI00
(lp13
c__builtin__
set
p14
((lp15
tp16
Rp17
ag14
((lp18
I2
atp19
Rp20
ag14
((lp21
I1
atp22
Rp23
ag14
((lp24
tp25
Rp26
ag14
((lp27
tp28
Rp29
ag14
((lp30
tp31
Rp32
ag14
((lp33
tp34
Rp35
ag14
((lp36
I8
atp37
Rp38
ag14
((lp39
I9
aI7
atp40
Rp41
ag14
((lp42
I8
atp43
Rp44
ag14
((lp45
tp46
Rp47
ag14
((lp48
tp49
Rp50
ag14
((lp51
tp52
Rp53
ag14
((lp54
I14
atp55
Rp56
ag14
((lp57
I13
atp58
Rp59
ag14
((lp60
I16
aI-11
atp61
Rp62
ag14
((lp63
I-11
aI15
atp64
Rp65
ag14
((lp66
I-12
atp67
Rp68
ag14
((lp69
I19
aI20
aI21
aI22
aI-6
aI-5
aI-4
aI-13
atp70
Rp71
ag14
((lp72
I18
aI20
aI21
aI22
aI-6
aI-5
aI-4
aI-13
atp73
Rp74
ag14
((lp75
I18
aI19
aI21
aI22
aI-6
aI-5
aI-4
aI-13
atp76
Rp77
ag14
((lp78
I18
aI19
aI20
aI22
aI-6
aI-5
aI-4
aI-13
atp79
Rp80
ag14
((lp81
I18
aI19
aI20
aI21
aI-6
aI-5
aI-4
aI-13
atp82
Rp83
ag14
((lp84
tp85
Rp86
ag14
((lp87
tp88
Rp89
ag14
((lp90
tp91
Rp92
ag14
((lp93
tp94
Rp95
ag14
((lp96
tp97
Rp98
ag14
((lp99
tp100
Rp101
ag14
((lp102
tp103
Rp104
ag14
((lp105
tp106
Rp107
ag14
((lp108
tp109
Rp110
ag14
((lp111
tp112
Rp113
ag14
((lp114
tp115
Rp116
ag14
((lp117
tp118
Rp119
ag14
((lp120
tp121
Rp122
ag14
((lp123
tp124
Rp125
ag14
((lp126
tp127
Rp128
ag14
((lp129
tp130
Rp131
ag14
((lp132
tp133
Rp134
ag14
((lp135
I-39
aI-33
aI41
atp136
Rp137
ag14
((lp138
I-32
aI-39
aI-33
aI40
atp139
Rp140
ag14
((lp141
tp142
Rp143
ag14
((lp144
I44
atp145
Rp146
ag14
((lp147
I43
atp148
Rp149
ag14
((lp150
tp151
Rp152
ag14
((lp153
I47
atp154
Rp155
ag14
((lp156
I46
atp157
Rp158
ag14
((lp159
tp160
Rp161
ag14
((lp162
I50
atp163
Rp164
ag14
((lp165
I49
atp166
Rp167
ag14
((lp168
I-48
aI-49
atp169
Rp170
ag14
((lp171
tp172
Rp173
ag14
((lp174
tp175
Rp176
ag14
((lp177
I-50
atp178
Rp179
ag14
((lp180
tp181
Rp182
ag14
((lp183
I57
aI59
atp184
Rp185
ag14
((lp186
I56
aI59
atp187
Rp188
ag14
((lp189
tp190
Rp191
ag14
((lp192
I56
aI57
atp193
Rp194
ag14
((lp195
tp196
Rp197
ag14
((lp198
tp199
Rp200
ag14
((lp201
tp202
Rp203
ag14
((lp204
tp205
Rp206
ag14
((lp207
I-58
atp208
Rp209
ag14
((lp210
I-64
aI-59
atp211
Rp212
ag14
((lp213
tp214
Rp215
ag14
((lp216
tp217
Rp218
ag14
((lp219
tp220
Rp221
ag14
((lp222
tp223
Rp224
ag14
((lp225
tp226
Rp227
ag14
((lp228
tp229
Rp230
ag14
((lp231
tp232
Rp233
ag14
((lp234
tp235
Rp236
ag14
((lp237
tp238
Rp239
ag14
((lp240
I80
aI81
aI82
aI83
aI84
aI85
aI86
aI87
aI-72
atp241
Rp242
ag14
((lp243
I80
aI85
aI86
aI77
aI78
atp244
Rp245
ag14
((lp246
I80
aI85
aI86
aI76
aI78
atp247
Rp248
ag14
((lp249
I80
aI85
aI86
aI76
aI77
atp250
Rp251
ag14
((lp252
tp253
Rp254
ag14
((lp255
I75
aI76
aI77
aI78
aI81
aI82
aI83
aI84
aI85
aI86
aI87
aI-72
atp256
Rp257
ag14
((lp258
I75
aI80
aI82
aI83
aI84
aI85
aI86
aI87
aI-72
atp259
Rp260
ag14
((lp261
I75
aI80
aI81
aI83
aI84
aI85
aI86
aI87
aI-72
atp262
Rp263
ag14
((lp264
I75
aI80
aI81
aI82
aI84
aI85
aI87
aI-72
atp265
Rp266
ag14
((lp267
I75
aI80
aI81
aI82
aI83
aI85
aI86
aI87
aI-72
atp268
Rp269
ag14
((lp270
I75
aI76
aI77
aI78
aI80
aI81
aI82
aI83
aI84
aI86
aI87
aI-72
atp271
Rp272
ag14
((lp273
I75
aI76
aI77
aI78
aI80
aI81
aI82
aI84
aI85
aI87
atp274
Rp275
ag14
((lp276
I75
aI80
aI81
aI82
aI83
aI84
aI85
aI86
aI-72
atp277
Rp278
ag14
((lp279
tp280
Rp281
ag14
((lp282
tp283
Rp284
ag14
((lp285
I-78
aI91
atp286
Rp287
ag14
((lp288
I-78
aI90
atp289
Rp290
ag14
((lp291
I-90
aI-89
atp292
Rp293
ag14
((lp294
I-92
atp295
Rp296
ag14
((lp297
I-80
atp298
Rp299
ag14
((lp300
I-80
aI-79
aI98
aI-93
aI97
atp301
Rp302
ag14
((lp303
I-80
aI97
aI-93
aI-79
atp304
Rp305
ag14
((lp306
I96
aI-80
aI98
aI-93
aI-79
aI95
atp307
Rp308
ag14
((lp309
I-80
aI-79
aI-93
aI97
aI95
atp310
Rp311
ag14
((lp312
I-95
atp313
Rp314
ag14
((lp315
tp316
Rp317
ag14
((lp318
tp319
Rp320
ag14
((lp321
I103
atp322
Rp323
ag14
((lp324
I102
atp325
Rp326
ag14
((lp327
tp328
Rp329
ag14
((lp330
tp331
Rp332
ag14
((lp333
tp334
Rp335
ag14
((lp336
tp337
Rp338
ag14
((lp339
I-102
aI-106
aI-97
atp340
Rp341
ag14
((lp342
I-106
atp343
Rp344
ag14
((lp345
tp346
Rp347
ag14
((lp348
tp349
Rp350
ag14
((lp351
tp352
Rp353
ag14
((lp354
tp355
Rp356
ag14
((lp357
tp358
Rp359
ag14
((lp360
I-94
aI-87
aI-114
aI-113
aI-110
aI116
aI-107
aI118
aI-105
aI-99
aI117
atp361
Rp362
ag14
((lp363
I-94
aI-87
aI-114
aI-113
aI-110
aI115
aI117
aI118
aI-105
aI-99
aI-107
atp364
Rp365
ag14
((lp366
I-94
aI-87
aI-114
aI-113
aI-110
aI115
aI116
aI-107
aI118
aI-105
aI-99
atp367
Rp368
ag14
((lp369
I-94
aI-87
aI-114
aI-113
aI-110
aI115
aI116
aI-107
aI-105
aI-99
aI117
atp370
Rp371
ag14
((lp372
tp373
Rp374
ag14
((lp375
tp376
Rp377
ag14
((lp378
tp379
Rp380
ag14
((lp381
tp382
Rp383
ag14
((lp384
tp385
Rp386
ag14
((lp387
tp388
Rp389
ag14
((lp390
tp391
Rp392
ag14
((lp393
tp394
Rp395
ag14
((lp396
tp397
Rp398
ag14
((lp399
tp400
Rp401
ag14
((lp402
tp403
Rp404
ag14
((lp405
tp406
Rp407
ag14
((lp408
tp409
Rp410
ag14
((lp411
tp412
Rp413
ag14
((lp414
tp415
Rp416
ag14
((lp417
tp418
Rp419
ag14
((lp420
tp421
Rp422
ag14
((lp423
tp424
Rp425
ag14
((lp426
I-128
aI-127
aI-126
aI-124
aI-119
aI138
aI139
aI140
aI141
aI142
aI143
aI144
aI145
aI-136
aI-135
aI-134
aI-133
aI-132
aI-131
aI-130
aI-129
atp427
Rp428
ag14
((lp429
I-128
aI-127
aI-124
aI-119
aI139
aI140
aI141
aI142
aI143
aI144
aI137
aI-136
aI-135
aI-134
aI-133
aI-132
aI-131
aI-130
aI-129
atp430
Rp431
ag14
((lp432
I-128
aI-127
aI-126
aI-124
aI-119
aI138
aI140
aI141
aI142
aI143
aI144
aI145
aI137
aI-136
aI-135
aI-134
aI-133
aI-132
aI-131
aI-130
aI-129
atp433
Rp434
ag14
((lp435
I-128
aI-127
aI-126
aI-124
aI137
aI138
aI139
aI141
aI142
aI143
aI144
aI145
aI-119
aI-136
aI-135
aI-134
aI-133
aI-132
aI-131
aI-130
aI-129
atp436
Rp437
ag14
((lp438
I-128
aI-127
aI-126
aI-124
aI-119
aI138
aI139
aI140
aI142
aI143
aI144
aI145
aI137
aI-136
aI-135
aI-134
aI-133
aI-132
aI-131
aI-130
aI-129
atp439
Rp440
ag14
((lp441
I-128
aI-127
aI-126
aI-124
aI-119
aI138
aI139
aI140
aI141
aI143
aI144
aI145
aI137
aI-136
aI-135
aI-134
aI-133
aI-132
aI-131
aI-130
aI-129
atp442
Rp443
ag14
((lp444
I-128
aI-127
aI-126
aI-124
aI137
aI138
aI139
aI140
aI141
aI142
aI144
aI145
aI-119
aI-136
aI-135
aI-134
aI-133
aI-132
aI-131
aI-130
aI-129
atp445
Rp446
ag14
((lp447
I-128
aI-127
aI-126
aI-124
aI-119
aI138
aI139
aI140
aI141
aI142
aI143
aI145
aI137
aI-136
aI-135
aI-134
aI-133
aI-132
aI-131
aI-130
aI-129
atp448
Rp449
ag14
((lp450
I-128
aI-127
aI-126
aI-124
aI137
aI139
aI140
aI141
aI142
aI143
aI144
aI-119
aI-136
aI-135
aI-134
aI-133
aI-132
aI-131
aI-130
aI-129
atp451
Rp452
ag14
((lp453
tp454
Rp455
ag14
((lp456
tp457
Rp458
ag14
((lp459
I-139
atp460
Rp461
ag14
((lp462
tp463
Rp464
ag14
((lp465
tp466
Rp467
ag14
((lp468
tp469
Rp470
ag14
((lp471
I-143
aI-150
aI-151
atp472
Rp473
ag14
((lp474
tp475
Rp476
ag14
((lp477
tp478
Rp479
ag14
((lp480
tp481
Rp482
ag14
((lp483
tp484
Rp485
ag14
((lp486
tp487
Rp488
ag14
((lp489
tp490
Rp491
ag14
((lp492
tp493
Rp494
ag14
((lp495
tp496
Rp497
ag14
((lp498
tp499
Rp500
ag14
((lp501
tp502
Rp503
ag14
((lp504
tp505
Rp506
ag14
((lp507
I165
atp508
Rp509
ag14
((lp510
I164
atp511
Rp512
ag14
((lp513
I-164
aI167
atp514
Rp515
ag14
((lp516
I-164
aI166
atp517
Rp518
ag14
((lp519
I-160
atp520
Rp521
ag14
((lp522
tp523
Rp524
ag14
((lp525
tp526
Rp527
ag14
((lp528
tp529
Rp530
ag14
((lp531
tp532
Rp533
ag14
((lp534
tp535
Rp536
ag14
((lp537
tp538
Rp539
ag14
((lp540
tp541
Rp542
ag14
((lp543
tp544
Rp545
ag14
((lp546
tp547
Rp548
ag14
((lp549
tp550
Rp551
ag14
((lp552
tp553
Rp554
ag14
((lp555
tp556
Rp557
ag14
((lp558
tp559
Rp560
ag14
((lp561
I-26
atp562
Rp563
ag14
((lp564
tp565
Rp566
ag14
((lp567
tp568
Rp569
ag14
((lp570
tp571
Rp572
ag14
((lp573
I-178
atp574
Rp575
ag14
((lp576
tp577
Rp578
ag14
((lp579
tp580
Rp581
ag14
((lp582
tp583
Rp584
ag14
((lp585
tp586
Rp587
ag14
((lp588
tp589
Rp590
ag14
((lp591
tp592
Rp593
ag14
((lp594
tp595
Rp596
ag14
((lp597
tp598
Rp599
ag14
((lp600
tp601
Rp602
ag14
((lp603
tp604
Rp605
ag14
((lp606
tp607
Rp608
ag14
((lp609
I200
aI199
atp610
Rp611
ag14
((lp612
I200
aI198
atp613
Rp614
ag14
((lp615
I198
aI199
atp616
Rp617
ag14
((lp618
tp619
Rp620
ag14
((lp621
tp622
Rp623
ag14
((lp624
I204
atp625
Rp626
ag14
((lp627
I203
atp628
Rp629
ag14
((lp630
tp631
Rp632
ag14
((lp633
I-204
atp634
Rp635
ag14
((lp636
tp637
Rp638
ag14
((lp639
tp640
Rp641
ag14
((lp642
tp643
Rp644
ag14
((lp645
tp646
Rp647
ag14
((lp648
I212
atp649
Rp650
ag14
((lp651
I211
atp652
Rp653
ag14
((lp654
tp655
Rp656
ag14
((lp657
tp658
Rp659
ag14
((lp660
tp661
Rp662
ag14
((lp663
tp664
Rp665
ag14
((lp666
tp667
Rp668
ag14
((lp669
tp670
Rp671
ag14
((lp672
tp673
Rp674
ag14
((lp675
tp676
Rp677
ag14
((lp678
I-220
atp679
Rp680
ag14
((lp681
tp682
Rp683
ag14
((lp684
tp685
Rp686
ag14
((lp687
tp688
Rp689
ag14
((lp690
I227
atp691
Rp692
ag14
((lp693
tp694
Rp695
ag14
((lp696
I225
atp697
Rp698
ag14
((lp699
tp700
Rp701
ag14
((lp702
tp703
Rp704
ag14
((lp705
tp706
Rp707
ag14
((lp708
tp709
Rp710
ag14
((lp711
tp712
Rp713
ag14
((lp714
tp715
Rp716
ag14
((lp717
tp718
Rp719
ag14
((lp720
tp721
Rp722
ag14
((lp723
tp724
Rp725
ag14
((lp726
tp727
Rp728
ag14
((lp729
tp730
Rp731
ag14
((lp732
tp733
Rp734
ag14
((lp735
tp736
Rp737
ag14
((lp738
I-218
atp739
Rp740
ag14
((lp741
tp742
Rp743
ag14
((lp744
tp745
Rp746
ag14
((lp747
tp748
Rp749
ag14
((lp750
I221
atp751
Rp752
ag14
((lp753
tp754
Rp755
ag14
((lp756
I-224
atp757
Rp758
ag14
((lp759
tp760
Rp761
ag14
((lp762
tp763
Rp764
ag14
((lp765
tp766
Rp767
ag14
((lp768
tp769
Rp770
ag14
((lp771
tp772
Rp773
ag14
((lp774
tp775
Rp776
ag14
((lp777
tp778
Rp779
ag14
((lp780
tp781
Rp782
ag14
((lp783
tp784
Rp785
ag14
((lp786
tp787
Rp788
ag14
((lp789
tp790
Rp791
ag14
((lp792
tp793
Rp794
ag14
((lp795
tp796
Rp797
ag14
((lp798
I206
atp799
Rp800
ag14
((lp801
tp802
Rp803
ag14
((lp804
tp805
Rp806
ag14
((lp807
tp808
Rp809
ag14
((lp810
tp811
Rp812
ag14
((lp813
tp814
Rp815
ag14
((lp816
tp817
Rp818
ag14
((lp819
tp820
Rp821
ag14
((lp822
tp823
Rp824
ag14
((lp825
tp826
Rp827
ag14
((lp828
tp829
Rp830
ag14
((lp831
tp832
Rp833
ag14
((lp834
tp835
Rp836
ag14
((lp837
tp838
Rp839
ag14
((lp840
tp841
Rp842
ag14
((lp843
tp844
Rp845
ag14
((lp846
tp847
Rp848
ag14
((lp849
tp850
Rp851
ag14
((lp852
I-176
aI-183
aI-185
atp853
Rp854
ag14
((lp855
I-176
aI-183
aI-186
atp856
Rp857
ag14
((lp858
tp859
Rp860
ag14
((lp861
I-176
aI-186
aI-185
atp862
Rp863
ag14
((lp864
tp865
Rp866
ag14
((lp867
tp868
Rp869
ag14
((lp870
tp871
Rp872
ag14
((lp873
tp874
Rp875
ag14
((lp876
I186
atp877
Rp878
ag14
((lp879
tp880
Rp881
ag14
((lp882
I-183
aI-186
aI-185
atp883
Rp884
ag14
((lp885
tp886
Rp887
ag14
((lp888
tp889
Rp890
ag14
((lp891
tp892
Rp893
ag14
((lp894
tp895
Rp896
ag14
((lp897
tp898
Rp899
ag14
((lp900
tp901
Rp902
ag14
((lp903
tp904
Rp905
ag14
((lp906
tp907
Rp908
ag14
((lp909
tp910
Rp911
ag14
((lp912
tp913
Rp914
ag14
((lp915
tp916
Rp917
ag14
((lp918
I166
aI167
atp919
Rp920
ag14
((lp921
tp922
Rp923
ag14
((lp924
tp925
Rp926
ag14
((lp927
tp928
Rp929
ag14
((lp930
I168
atp931
Rp932
ag14
((lp933
tp934
Rp935
ag14
((lp936
tp937
Rp938
ag14
((lp939
tp940
Rp941
ag14
((lp942
tp943
Rp944
ag14
((lp945
tp946
Rp947
ag14
((lp948
tp949
Rp950
ag14
((lp951
tp952
Rp953
ag14
((lp954
tp955
Rp956
ag14
((lp957
I152
aI-143
aI-150
atp958
Rp959
ag14
((lp960
I152
aI-143
aI-151
atp961
Rp962
ag14
((lp963
tp964
Rp965
ag14
((lp966
tp967
Rp968
ag14
((lp969
tp970
Rp971
ag14
((lp972
I-141
atp973
Rp974
ag14
((lp975
tp976
Rp977
ag14
((lp978
tp979
Rp980
ag14
((lp981
I152
aI-151
aI-150
atp982
Rp983
ag14
((lp984
tp985
Rp986
ag14
((lp987
I-146
atp988
Rp989
ag14
((lp990
tp991
Rp992
ag14
((lp993
I148
atp994
Rp995
ag14
((lp996
tp997
Rp998
ag14
((lp999
tp1000
Rp1001
ag14
((lp1002
I-128
aI-127
aI-126
aI-124
aI-119
aI138
aI139
aI140
aI141
aI142
aI143
aI144
aI145
aI137
aI-135
aI-134
aI-133
aI-132
aI-131
aI-130
aI-129
atp1003
Rp1004
ag14
((lp1005
I-128
aI-127
aI-126
aI-124
aI-119
aI138
aI139
aI140
aI141
aI142
aI143
aI144
aI145
aI137
aI-136
aI-134
aI-133
aI-132
aI-131
aI-130
aI-129
atp1006
Rp1007
ag14
((lp1008
I-128
aI-127
aI-126
aI-124
aI-119
aI138
aI139
aI140
aI141
aI142
aI143
aI144
aI145
aI137
aI-136
aI-135
aI-133
aI-132
aI-131
aI-130
aI-129
atp1009
Rp1010
ag14
((lp1011
I-128
aI-127
aI-126
aI-124
aI-119
aI138
aI139
aI140
aI141
aI142
aI143
aI144
aI145
aI137
aI-136
aI-135
aI-134
aI-132
aI-131
aI-130
aI-129
atp1012
Rp1013
ag14
((lp1014
I-128
aI-127
aI-126
aI-124
aI-119
aI138
aI139
aI140
aI141
aI142
aI143
aI144
aI145
aI137
aI-136
aI-135
aI-134
aI-133
aI-131
aI-130
aI-129
atp1015
Rp1016
ag14
((lp1017
I-128
aI-127
aI-126
aI-124
aI-119
aI138
aI139
aI140
aI141
aI142
aI143
aI144
aI145
aI137
aI-136
aI-135
aI-134
aI-133
aI-132
aI-130
aI-129
atp1018
Rp1019
ag14
((lp1020
I-128
aI-127
aI-126
aI-124
aI137
aI138
aI139
aI140
aI141
aI142
aI143
aI144
aI145
aI-119
aI-136
aI-135
aI-134
aI-133
aI-132
aI-131
aI-129
atp1021
Rp1022
ag14
((lp1023
I-128
aI-127
aI-126
aI-124
aI137
aI138
aI139
aI140
aI141
aI142
aI143
aI144
aI145
aI-119
aI-136
aI-135
aI-134
aI-133
aI-132
aI-131
aI-130
atp1024
Rp1025
ag14
((lp1026
I-127
aI-126
aI-124
aI-119
aI138
aI139
aI140
aI141
aI142
aI143
aI144
aI145
aI137
aI-136
aI-135
aI-134
aI-133
aI-132
aI-131
aI-130
aI-129
atp1027
Rp1028
ag14
((lp1029
I-128
aI-126
aI-124
aI137
aI138
aI139
aI140
aI141
aI142
aI143
aI144
aI145
aI-119
aI-136
aI-135
aI-134
aI-133
aI-132
aI-131
aI-130
aI-129
atp1030
Rp1031
ag14
((lp1032
I-128
aI-127
aI-124
aI-119
aI139
aI140
aI141
aI142
aI143
aI144
aI145
aI137
aI-136
aI-135
aI-134
aI-133
aI-132
aI-131
aI-130
aI-129
atp1033
Rp1034
ag14
((lp1035
tp1036
Rp1037
ag14
((lp1038
I-128
aI-127
aI-126
aI-119
aI138
aI139
aI140
aI141
aI142
aI143
aI144
aI145
aI137
aI-136
aI-135
aI-134
aI-133
aI-132
aI-131
aI-130
aI-129
atp1039
Rp1040
ag14
((lp1041
tp1042
Rp1043
ag14
((lp1044
tp1045
Rp1046
ag14
((lp1047
tp1048
Rp1049
ag14
((lp1050
tp1051
Rp1052
ag14
((lp1053
I-128
aI-127
aI-126
aI-124
aI137
aI138
aI139
aI140
aI141
aI142
aI143
aI144
aI145
aI-136
aI-135
aI-134
aI-133
aI-132
aI-131
aI-130
aI-129
atp1054
Rp1055
ag14
((lp1056
tp1057
Rp1058
ag14
((lp1059
tp1060
Rp1061
ag14
((lp1062
tp1063
Rp1064
ag14
((lp1065
tp1066
Rp1067
ag14
((lp1068
I-94
aI-87
aI-113
aI-110
aI115
aI116
aI117
aI118
aI-105
aI-99
aI-107
atp1069
Rp1070
ag14
((lp1071
I-94
aI-87
aI-114
aI-110
aI115
aI116
aI117
aI118
aI-105
aI-99
aI-107
atp1072
Rp1073
ag14
((lp1074
tp1075
Rp1076
ag14
((lp1077
tp1078
Rp1079
ag14
((lp1080
I-94
aI-87
aI-114
aI-113
aI115
aI116
aI-107
aI118
aI-105
aI-99
aI117
atp1081
Rp1082
ag14
((lp1083
tp1084
Rp1085
ag14
((lp1086
tp1087
Rp1088
ag14
((lp1089
I-94
aI-87
aI-114
aI-113
aI-110
aI115
aI116
aI117
aI118
aI-105
aI-99
atp1090
Rp1091
ag14
((lp1092
I-102
aI108
aI109
aI-97
atp1093
Rp1094
ag14
((lp1095
I-94
aI-87
aI-114
aI-113
aI-110
aI115
aI116
aI117
aI118
aI-99
aI-107
atp1096
Rp1097
ag14
((lp1098
tp1099
Rp1100
ag14
((lp1101
I-86
atp1102
Rp1103
ag14
((lp1104
I108
aI-106
aI-97
atp1105
Rp1106
ag14
((lp1107
tp1108
Rp1109
ag14
((lp1110
tp1111
Rp1112
ag14
((lp1113
I-94
aI-87
aI-114
aI-113
aI-110
aI115
aI116
aI117
aI118
aI-105
aI-107
atp1114
Rp1115
ag14
((lp1116
tp1117
Rp1118
ag14
((lp1119
I-102
aI108
aI-106
atp1120
Rp1121
ag14
((lp1122
tp1123
Rp1124
ag14
((lp1125
I99
atp1126
Rp1127
ag14
((lp1128
I-87
aI-114
aI-113
aI-110
aI115
aI116
aI117
aI118
aI-105
aI-99
aI-107
atp1129
Rp1130
ag14
((lp1131
I-80
aI97
aI98
aI-79
aI96
aI95
atp1132
Rp1133
ag14
((lp1134
I93
atp1135
Rp1136
ag14
((lp1137
I-85
atp1138
Rp1139
ag14
((lp1140
I92
aI-89
atp1141
Rp1142
ag14
((lp1143
I92
aI-90
atp1144
Rp1145
ag14
((lp1146
tp1147
Rp1148
ag14
((lp1149
I-94
aI-114
aI-113
aI-110
aI115
aI116
aI-107
aI118
aI-105
aI-99
aI117
atp1150
Rp1151
ag14
((lp1152
I-103
atp1153
Rp1154
ag14
((lp1155
I-91
atp1156
Rp1157
ag14
((lp1158
tp1159
Rp1160
ag14
((lp1161
tp1162
Rp1163
ag14
((lp1164
tp1165
Rp1166
ag14
((lp1167
tp1168
Rp1169
ag14
((lp1170
I96
aI97
aI98
aI-93
aI-79
aI94
aI95
atp1171
Rp1172
ag14
((lp1173
I96
aI-80
aI98
aI-93
aI97
aI95
atp1174
Rp1175
ag14
((lp1176
I91
aI90
atp1177
Rp1178
ag14
((lp1179
tp1180
Rp1181
ag14
((lp1182
tp1183
Rp1184
ag14
((lp1185
tp1186
Rp1187
ag14
((lp1188
tp1189
Rp1190
ag14
((lp1191
tp1192
Rp1193
ag14
((lp1194
I75
aI80
aI81
aI82
aI83
aI84
aI85
aI87
atp1195
Rp1196
ag14
((lp1197
tp1198
Rp1199
ag14
((lp1200
tp1201
Rp1202
ag14
((lp1203
tp1204
Rp1205
ag14
((lp1206
tp1207
Rp1208
ag14
((lp1209
tp1210
Rp1211
ag14
((lp1212
tp1213
Rp1214
ag14
((lp1215
tp1216
Rp1217
ag14
((lp1218
I65
aI-59
atp1219
Rp1220
ag14
((lp1221
I-51
atp1222
Rp1223
ag14
((lp1224
tp1225
Rp1226
ag14
((lp1227
tp1228
Rp1229
ag14
((lp1230
tp1231
Rp1232
ag14
((lp1233
I-64
aI65
atp1234
Rp1235
ag14
((lp1236
I64
atp1237
Rp1238
ag14
((lp1239
tp1240
Rp1241
ag14
((lp1242
tp1243
Rp1244
ag14
((lp1245
tp1246
Rp1247
ag14
((lp1248
tp1249
Rp1250
ag14
((lp1251
tp1252
Rp1253
ag14
((lp1254
tp1255
Rp1256
ag14
((lp1257
I-63
atp1258
Rp1259
ag14
((lp1260
I54
atp1261
Rp1262
ag14
((lp1263
I51
atp1264
Rp1265
ag14
((lp1266
I51
atp1267
Rp1268
ag14
((lp1269
tp1270
Rp1271
ag14
((lp1272
tp1273
Rp1274
ag14
((lp1275
tp1276
Rp1277
ag14
((lp1278
tp1279
Rp1280
ag14
((lp1281
tp1282
Rp1283
ag14
((lp1284
tp1285
Rp1286
ag14
((lp1287
tp1288
Rp1289
ag14
((lp1290
tp1291
Rp1292
ag14
((lp1293
I40
aI41
aI-33
atp1294
Rp1295
ag14
((lp1296
tp1297
Rp1298
ag14
((lp1299
tp1300
Rp1301
ag14
((lp1302
tp1303
Rp1304
ag14
((lp1305
I-32
atp1306
Rp1307
ag14
((lp1308
tp1309
Rp1310
ag14
((lp1311
I40
aI-39
aI41
atp1312
Rp1313
ag14
((lp1314
I41
aI-35
atp1315
Rp1316
ag14
((lp1317
tp1318
Rp1319
ag14
((lp1320
tp1321
Rp1322
ag14
((lp1323
tp1324
Rp1325
ag14
((lp1326
tp1327
Rp1328
ag14
((lp1329
tp1330
Rp1331
ag14
((lp1332
I182
atp1333
Rp1334
ag14
((lp1335
tp1336
Rp1337
ag14
((lp1338
tp1339
Rp1340
ag14
((lp1341
tp1342
Rp1343
ag14
((lp1344
tp1345
Rp1346
ag14
((lp1347
tp1348
Rp1349
ag14
((lp1350
I-16
aI-2
atp1351
Rp1352
ag14
((lp1353
tp1354
Rp1355
ag14
((lp1356
tp1357
Rp1358
ag14
((lp1359
I-15
atp1360
Rp1361
ag14
((lp1362
I-20
aI-2
atp1363
Rp1364
ag14
((lp1365
I-17
atp1366
Rp1367
ag14
((lp1368
tp1369
Rp1370
ag14
((lp1371
I18
aI19
aI20
aI21
aI22
aI-6
aI-5
aI-4
atp1372
Rp1373
ag14
((lp1374
I17
atp1375
Rp1376
ag14
((lp1377
I16
aI15
atp1378
Rp1379
ag14
((lp1380
tp1381
Rp1382
ag14
((lp1383
tp1384
Rp1385
ag14
((lp1386
tp1387
Rp1388
ag14
((lp1389
tp1390
Rp1391
ag14
((lp1392
I18
aI19
aI20
aI21
aI22
aI-5
aI-4
aI-13
atp1393
Rp1394
ag14
((lp1395
I18
aI19
aI20
aI21
aI22
aI-6
aI-4
aI-13
atp1396
Rp1397
ag14
((lp1398
I18
aI19
aI20
aI21
aI22
aI-6
aI-5
aI-13
atp1399
Rp1400
ag14
((lp1401
tp1402
Rp1403
ag14
((lp1404
I-16
aI-20
atp1405
Rp1406
ag14
((lp1407
tp1408
Rp1409
atp1410
b.