cnumpy.core.multiarray
_reconstruct
p0
(cnumpy
ndarray
p1
(I0
tp2
S'b'
p3
tp4
Rp5
(I1
(I379
tp6
cnumpy
dtype
p7
(S'O8'
p8
I0
I1
tp9
Rp10
(I3
S'|'
p11
NNNI-1
I-1
I63
tp12
bI00
(lp13
c__builtin__
set
p14
((lp15
tp16
Rp17
ag14
((lp18
tp19
Rp20
ag14
((lp21
tp22
Rp23
ag14
((lp24
I4
aI5
aI6
aI7
atp25
Rp26
ag14
((lp27
I3
aI5
aI6
aI7
atp28
Rp29
ag14
((lp30
I3
aI4
aI6
aI7
atp31
Rp32
ag14
((lp33
I3
aI4
aI5
aI7
atp34
Rp35
ag14
((lp36
I3
aI4
aI5
aI6
atp37
Rp38
ag14
((lp39
tp40
Rp41
ag14
((lp42
tp43
Rp44
ag14
((lp45
tp46
Rp47
ag14
((lp48
tp49
Rp50
ag14
((lp51
tp52
Rp53
ag14
((lp54
tp55
Rp56
ag14
((lp57
tp58
Rp59
ag14
((lp60
tp61
Rp62
ag14
((lp63
tp64
Rp65
ag14
((lp66
I18
atp67
Rp68
ag14
((lp69
I17
atp70
Rp71
ag14
((lp72
tp73
Rp74
ag14
((lp75
tp76
Rp77
ag14
((lp78
tp79
Rp80
ag14
((lp81
tp82
Rp83
ag14
((lp84
tp85
Rp86
ag14
((lp87
tp88
Rp89
ag14
((lp90
tp91
Rp92
ag14
((lp93
I32
aI-25
aI-24
aI-21
aI-19
aI-17
aI-16
aI27
aI28
aI29
aI30
aI31
atp94
Rp95
ag14
((lp96
I32
aI-25
aI-24
aI-21
aI-19
aI-17
aI-16
aI26
aI28
aI29
aI30
aI31
atp97
Rp98
ag14
((lp99
I32
aI-25
aI-24
aI-21
aI-19
aI-17
aI-16
aI26
aI27
aI29
aI30
aI31
atp100
Rp101
ag14
((lp102
I32
aI-25
aI-24
aI-21
aI-19
aI-17
aI-16
aI26
aI27
aI28
aI30
aI31
atp103
Rp104
ag14
((lp105
I32
aI-25
aI-24
aI-21
aI-19
aI-17
aI-16
aI26
aI27
aI28
aI29
aI31
atp106
Rp107
ag14
((lp108
I32
aI-25
aI-24
aI-21
aI-19
aI-17
aI-16
aI26
aI27
aI28
aI29
aI30
atp109
Rp110
ag14
((lp111
I-25
aI-24
aI-21
aI-19
aI-17
aI-16
aI26
aI27
aI28
aI29
aI30
aI31
atp112
Rp113
ag14
((lp114
I-27
atp115
Rp116
ag14
((lp117
I-29
atp118
Rp119
ag14
((lp120
I-31
aI-33
atp121
Rp122
ag14
((lp123
I-20
atp124
Rp125
ag14
((lp126
tp127
Rp128
ag14
((lp129
tp130
Rp131
ag14
((lp132
tp133
Rp134
ag14
((lp135
tp136
Rp137
ag14
((lp138
tp139
Rp140
ag14
((lp141
tp142
Rp143
ag14
((lp144
tp145
Rp146
ag14
((lp147
tp148
Rp149
ag14
((lp150
tp151
Rp152
ag14
((lp153
I49
aI47
atp154
Rp155
ag14
((lp156
I49
aI46
atp157
Rp158
ag14
((lp159
I-18
atp160
Rp161
ag14
((lp162
I46
aI47
atp163
Rp164
ag14
((lp165
tp166
Rp167
ag14
((lp168
I52
atp169
Rp170
ag14
((lp171
I51
atp172
Rp173
ag14
((lp174
tp175
Rp176
ag14
((lp177
tp178
Rp179
ag14
((lp180
I56
atp181
Rp182
ag14
((lp183
I55
atp184
Rp185
ag14
((lp186
tp187
Rp188
ag14
((lp189
I59
atp190
Rp191
ag14
((lp192
I58
atp193
Rp194
ag14
((lp195
tp196
Rp197
ag14
((lp198
tp199
Rp200
ag14
((lp201
tp202
Rp203
ag14
((lp204
I-56
atp205
Rp206
ag14
((lp207
tp208
Rp209
ag14
((lp210
tp211
Rp212
ag14
((lp213
tp214
Rp215
ag14
((lp216
tp217
Rp218
ag14
((lp219
tp220
Rp221
ag14
((lp222
tp223
Rp224
ag14
((lp225
I-64
aI-63
aI-62
aI-61
aI-60
aI-57
aI72
aI73
aI-49
aI-48
aI-43
aI-39
aI-34
aI71
aI-69
aI-68
aI-65
atp226
Rp227
ag14
((lp228
I-64
aI-63
aI-62
aI-61
aI-60
aI70
aI-57
aI72
aI73
aI-49
aI-48
aI-43
aI-39
aI-34
aI-69
aI-68
aI-65
atp229
Rp230
ag14
((lp231
I-64
aI-63
aI-62
aI-61
aI-60
aI70
aI-57
aI73
aI-49
aI-48
aI-43
aI-39
aI-34
aI71
aI-69
aI-68
aI-65
atp232
Rp233
ag14
((lp234
I-64
aI-63
aI-62
aI-61
aI-60
aI70
aI-57
aI72
aI-49
aI-48
aI-43
aI-39
aI-34
aI71
aI-69
aI-68
aI-65
atp235
Rp236
ag14
((lp237
I-41
atp238
Rp239
ag14
((lp240
tp241
Rp242
ag14
((lp243
tp244
Rp245
ag14
((lp246
tp247
Rp248
ag14
((lp249
tp250
Rp251
ag14
((lp252
I-58
aI-78
aI80
aI81
aI82
aI83
aI84
aI85
aI86
aI87
aI-76
aI-66
atp253
Rp254
ag14
((lp255
I-58
aI-78
aI79
aI81
aI82
aI83
aI-76
aI85
aI86
aI87
aI84
aI-66
atp256
Rp257
ag14
((lp258
I-58
aI-78
aI79
aI80
aI82
aI83
aI-76
aI85
aI86
aI87
aI84
aI-66
atp259
Rp260
ag14
((lp261
I-58
aI-78
aI79
aI80
aI81
aI83
aI84
aI85
aI86
aI87
aI-76
aI-66
atp262
Rp263
ag14
((lp264
I-58
aI-78
aI79
aI80
aI81
aI82
aI84
aI85
aI86
aI87
aI-76
aI-66
atp265
Rp266
ag14
((lp267
I-58
aI82
aI79
aI80
aI81
aI-78
aI83
aI-76
aI85
aI86
aI87
aI-66
atp268
Rp269
ag14
((lp270
I-58
aI82
aI79
aI80
aI81
aI-78
aI83
aI-76
aI86
aI87
aI84
aI-66
atp271
Rp272
ag14
((lp273
I-58
aI-78
aI79
aI80
aI81
aI82
aI83
aI-76
aI85
aI87
aI84
aI-66
atp274
Rp275
ag14
((lp276
I-58
aI82
aI79
aI80
aI81
aI-78
aI83
aI-76
aI85
aI86
aI84
aI-66
atp277
Rp278
ag14
((lp279
tp280
Rp281
ag14
((lp282
I-81
atp283
Rp284
ag14
((lp285
tp286
Rp287
ag14
((lp288
tp289
Rp290
ag14
((lp291
tp292
Rp293
ag14
((lp294
I-83
atp295
Rp296
ag14
((lp297
tp298
Rp299
ag14
((lp300
I96
aI97
aI98
aI-93
aI100
aI-90
aI-84
aI-92
atp301
Rp302
ag14
((lp303
I97
aI98
aI-93
aI-92
aI-90
aI-84
aI99
aI100
aI95
atp304
Rp305
ag14
((lp306
I96
aI98
aI-93
aI-92
aI-90
aI-84
aI100
aI95
atp307
Rp308
ag14
((lp309
I96
aI97
aI-93
aI-92
aI-90
aI-84
aI100
aI95
atp310
Rp311
ag14
((lp312
I96
atp313
Rp314
ag14
((lp315
I96
aI97
aI98
aI-93
aI-92
aI-90
aI-84
aI95
atp316
Rp317
ag14
((lp318
I-96
aI-94
aI102
atp319
Rp320
ag14
((lp321
I-96
aI-94
aI101
atp322
Rp323
ag14
((lp324
tp325
Rp326
ag14
((lp327
tp328
Rp329
ag14
((lp330
I-86
aI106
atp331
Rp332
ag14
((lp333
I105
aI-86
atp334
Rp335
ag14
((lp336
tp337
Rp338
ag14
((lp339
tp340
Rp341
ag14
((lp342
tp343
Rp344
ag14
((lp345
tp346
Rp347
ag14
((lp348
tp349
Rp350
ag14
((lp351
tp352
Rp353
ag14
((lp354
tp355
Rp356
ag14
((lp357
tp358
Rp359
ag14
((lp360
tp361
Rp362
ag14
((lp363
tp364
Rp365
ag14
((lp366
tp367
Rp368
ag14
((lp369
tp370
Rp371
ag14
((lp372
tp373
Rp374
ag14
((lp375
tp376
Rp377
ag14
((lp378
tp379
Rp380
ag14
((lp381
tp382
Rp383
ag14
((lp384
tp385
Rp386
ag14
((lp387
tp388
Rp389
ag14
((lp390
I126
atp391
Rp392
ag14
((lp393
I125
atp394
Rp395
ag14
((lp396
tp397
Rp398
ag14
((lp399
tp400
Rp401
ag14
((lp402
tp403
Rp404
ag14
((lp405
tp406
Rp407
ag14
((lp408
tp409
Rp410
ag14
((lp411
tp412
Rp413
ag14
((lp414
tp415
Rp416
ag14
((lp417
tp418
Rp419
ag14
((lp420
tp421
Rp422
ag14
((lp423
I-127
aI-125
aI137
aI138
aI139
aI-135
aI-134
aI-132
aI-118
aI-130
aI-129
atp424
Rp425
ag14
((lp426
I-127
aI-125
aI136
aI-118
aI139
aI-135
aI-134
aI-132
aI138
aI-130
aI-129
atp427
Rp428
ag14
((lp429
I-127
aI-125
aI136
aI137
aI-118
aI139
aI-135
aI-134
aI-132
aI-129
atp430
Rp431
ag14
((lp432
I-127
aI-125
aI136
aI137
aI-118
aI-135
aI-134
aI-132
aI138
aI-130
aI-129
atp433
Rp434
ag14
((lp435
I-137
atp436
Rp437
ag14
((lp438
tp439
Rp440
ag14
((lp441
tp442
Rp443
ag14
((lp444
I-128
atp445
Rp446
ag14
((lp447
tp448
Rp449
ag14
((lp450
tp451
Rp452
ag14
((lp453
tp454
Rp455
ag14
((lp456
tp457
Rp458
ag14
((lp459
tp460
Rp461
ag14
((lp462
tp463
Rp464
ag14
((lp465
I151
atp466
Rp467
ag14
((lp468
I150
atp469
Rp470
ag14
((lp471
I-150
atp472
Rp473
ag14
((lp474
tp475
Rp476
ag14
((lp477
tp478
Rp479
ag14
((lp480
tp481
Rp482
ag14
((lp483
I-12
atp484
Rp485
ag14
((lp486
tp487
Rp488
ag14
((lp489
I-157
aI-156
aI-155
aI-154
aI-153
aI-152
aI-149
aI-147
aI-144
atp490
Rp491
ag14
((lp492
tp493
Rp494
ag14
((lp495
tp496
Rp497
ag14
((lp498
tp499
Rp500
ag14
((lp501
tp502
Rp503
ag14
((lp504
tp505
Rp506
ag14
((lp507
tp508
Rp509
ag14
((lp510
tp511
Rp512
ag14
((lp513
tp514
Rp515
ag14
((lp516
tp517
Rp518
ag14
((lp519
tp520
Rp521
ag14
((lp522
I-167
atp523
Rp524
ag14
((lp525
tp526
Rp527
ag14
((lp528
tp529
Rp530
ag14
((lp531
tp532
Rp533
ag14
((lp534
tp535
Rp536
ag14
((lp537
I-173
aI-169
atp538
Rp539
ag14
((lp540
tp541
Rp542
ag14
((lp543
I177
atp544
Rp545
ag14
((lp546
I176
atp547
Rp548
ag14
((lp549
tp550
Rp551
ag14
((lp552
tp553
Rp554
ag14
((lp555
I-75
atp556
Rp557
ag14
((lp558
tp559
Rp560
ag14
((lp561
tp562
Rp563
ag14
((lp564
tp565
Rp566
ag14
((lp567
tp568
Rp569
ag14
((lp570
I-184
aI-182
aI-161
aI-179
aI-177
atp571
Rp572
ag14
((lp573
tp574
Rp575
ag14
((lp576
tp577
Rp578
ag14
((lp579
tp580
Rp581
ag14
((lp582
tp583
Rp584
ag14
((lp585
tp586
Rp587
ag14
((lp588
tp589
Rp590
ag14
((lp591
tp592
Rp593
ag14
((lp594
tp595
Rp596
ag14
((lp597
tp598
Rp599
ag14
((lp600
I185
aI-182
aI-161
aI-179
aI-177
atp601
Rp602
ag14
((lp603
tp604
Rp605
ag14
((lp606
I-184
aI185
aI-177
aI-179
aI-161
atp607
Rp608
ag14
((lp609
I-172
atp610
Rp611
ag14
((lp612
tp613
Rp614
ag14
((lp615
I-184
aI185
aI-182
aI-161
aI-177
atp616
Rp617
ag14
((lp618
tp619
Rp620
ag14
((lp621
I-184
aI185
aI-182
aI-161
aI-179
atp622
Rp623
ag14
((lp624
tp625
Rp626
ag14
((lp627
tp628
Rp629
ag14
((lp630
tp631
Rp632
ag14
((lp633
I174
aI-169
atp634
Rp635
ag14
((lp636
I-181
atp637
Rp638
ag14
((lp639
tp640
Rp641
ag14
((lp642
tp643
Rp644
ag14
((lp645
I-173
aI174
atp646
Rp647
ag14
((lp648
tp649
Rp650
ag14
((lp651
I169
atp652
Rp653
ag14
((lp654
tp655
Rp656
ag14
((lp657
tp658
Rp659
ag14
((lp660
tp661
Rp662
ag14
((lp663
tp664
Rp665
ag14
((lp666
tp667
Rp668
ag14
((lp669
I-184
aI185
aI-182
aI-177
aI-179
atp670
Rp671
ag14
((lp672
I-159
atp673
Rp674
ag14
((lp675
I-160
atp676
Rp677
ag14
((lp678
tp679
Rp680
ag14
((lp681
I-156
aI-155
aI-154
aI-153
aI-152
aI-149
aI-147
aI-144
aI158
atp682
Rp683
ag14
((lp684
I-157
aI-155
aI-154
aI-153
aI-152
aI-149
aI-147
aI-144
aI158
atp685
Rp686
ag14
((lp687
I-157
aI-156
aI-154
aI-153
aI-152
aI-149
aI-147
aI-144
aI158
atp688
Rp689
ag14
((lp690
I-157
aI-156
aI-155
aI-153
aI-152
aI-149
aI-147
aI-144
aI158
atp691
Rp692
ag14
((lp693
I-157
aI-156
aI-155
aI-154
aI-152
aI-149
aI-147
aI-144
aI158
atp694
Rp695
ag14
((lp696
I-157
aI-156
aI-155
aI-154
aI-153
aI-149
aI-147
aI-144
aI158
atp697
Rp698
ag14
((lp699
tp700
Rp701
ag14
((lp702
I152
atp703
Rp704
ag14
((lp705
I-157
aI-156
aI-155
aI-154
aI-153
aI-152
aI-147
aI-144
aI158
atp706
Rp707
ag14
((lp708
tp709
Rp710
ag14
((lp711
I-157
aI-156
aI-155
aI-154
aI-153
aI-152
aI-149
aI-144
aI158
atp712
Rp713
ag14
((lp714
tp715
Rp716
ag14
((lp717
tp718
Rp719
ag14
((lp720
I-157
aI-156
aI-155
aI-154
aI-153
aI-152
aI-149
aI-147
aI158
atp721
Rp722
ag14
((lp723
I-142
aI-117
atp724
Rp725
ag14
((lp726
I-143
aI-117
atp727
Rp728
ag14
((lp729
tp730
Rp731
ag14
((lp732
I-122
atp733
Rp734
ag14
((lp735
I-120
atp736
Rp737
ag14
((lp738
tp739
Rp740
ag14
((lp741
I140
atp742
Rp743
ag14
((lp744
tp745
Rp746
ag14
((lp747
I-127
aI-125
aI136
aI137
aI138
aI139
aI-134
aI-132
aI-118
aI-130
aI-129
atp748
Rp749
ag14
((lp750
I-127
aI-125
aI136
aI137
aI-118
aI139
aI-135
aI-132
aI138
aI-130
aI-129
atp751
Rp752
ag14
((lp753
I-124
atp754
Rp755
ag14
((lp756
I-127
aI-125
aI136
aI137
aI138
aI139
aI-135
aI-134
aI-118
aI-130
aI-129
atp757
Rp758
ag14
((lp759
tp760
Rp761
ag14
((lp762
I-127
aI-125
aI136
aI137
aI-118
aI139
aI-135
aI-134
aI-132
aI-129
atp763
Rp764
ag14
((lp765
I-127
aI-125
aI136
aI137
aI138
aI139
aI-135
aI-134
aI-132
aI-118
aI-130
atp766
Rp767
ag14
((lp768
I143
atp769
Rp770
ag14
((lp771
I-125
aI136
aI137
aI138
aI139
aI-135
aI-134
aI-132
aI-118
aI-130
aI-129
atp772
Rp773
ag14
((lp774
tp775
Rp776
ag14
((lp777
I-127
aI136
aI137
aI138
aI139
aI-135
aI-134
aI-132
aI-118
aI-130
aI-129
atp778
Rp779
ag14
((lp780
I-133
atp781
Rp782
ag14
((lp783
tp784
Rp785
ag14
((lp786
I-140
atp787
Rp788
ag14
((lp789
tp790
Rp791
ag14
((lp792
I-139
atp793
Rp794
ag14
((lp795
tp796
Rp797
ag14
((lp798
I-127
aI-125
aI136
aI137
aI138
aI139
aI-135
aI-134
aI-132
aI-130
aI-129
atp799
Rp800
ag14
((lp801
I-143
aI-142
atp802
Rp803
ag14
((lp804
tp805
Rp806
ag14
((lp807
tp808
Rp809
ag14
((lp810
tp811
Rp812
ag14
((lp813
tp814
Rp815
ag14
((lp816
tp817
Rp818
ag14
((lp819
I-110
atp820
Rp821
ag14
((lp822
I-111
atp823
Rp824
ag14
((lp825
tp826
Rp827
ag14
((lp828
tp829
Rp830
ag14
((lp831
tp832
Rp833
ag14
((lp834
tp835
Rp836
ag14
((lp837
tp838
Rp839
ag14
((lp840
tp841
Rp842
ag14
((lp843
tp844
Rp845
ag14
((lp846
tp847
Rp848
ag14
((lp849
tp850
Rp851
ag14
((lp852
tp853
Rp854
ag14
((lp855
tp856
Rp857
ag14
((lp858
tp859
Rp860
ag14
((lp861
I-85
atp862
Rp863
ag14
((lp864
I-94
aI101
aI102
atp865
Rp866
ag14
((lp867
tp868
Rp869
ag14
((lp870
I-96
aI101
aI102
atp871
Rp872
ag14
((lp873
I96
aI97
aI98
aI-92
aI-90
aI-84
aI100
aI95
atp874
Rp875
ag14
((lp876
I96
aI97
aI98
aI-93
aI100
aI-90
aI-84
aI95
atp877
Rp878
ag14
((lp879
tp880
Rp881
ag14
((lp882
I96
aI97
aI98
aI-93
aI-92
aI-84
aI100
aI95
atp883
Rp884
ag14
((lp885
tp886
Rp887
ag14
((lp888
tp889
Rp890
ag14
((lp891
tp892
Rp893
ag14
((lp894
I105
aI106
atp895
Rp896
ag14
((lp897
I-97
atp898
Rp899
ag14
((lp900
I96
aI97
aI98
aI-93
aI-92
aI-90
aI100
aI95
atp901
Rp902
ag14
((lp903
I-77
aI93
atp904
Rp905
ag14
((lp906
I-77
aI-67
atp907
Rp908
ag14
((lp909
I89
atp910
Rp911
ag14
((lp912
tp913
Rp914
ag14
((lp915
tp916
Rp917
ag14
((lp918
I-58
aI82
aI79
aI80
aI81
aI83
aI84
aI85
aI86
aI87
aI-76
aI-66
atp919
Rp920
ag14
((lp921
I-83
aI-82
aI-67
atp922
Rp923
ag14
((lp924
I-58
aI-78
aI79
aI80
aI81
aI82
aI83
aI84
aI85
aI86
aI87
aI-66
atp925
Rp926
ag14
((lp927
I180
atp928
Rp929
ag14
((lp930
I-73
atp931
Rp932
ag14
((lp933
I-74
atp934
Rp935
ag14
((lp936
tp937
Rp938
ag14
((lp939
tp940
Rp941
ag14
((lp942
tp943
Rp944
ag14
((lp945
I-64
aI-63
aI-62
aI-61
aI-60
aI70
aI-57
aI72
aI73
aI-49
aI-48
aI-43
aI-39
aI-34
aI71
aI-68
aI-65
atp946
Rp947
ag14
((lp948
I-64
aI-63
aI-62
aI-61
aI-60
aI70
aI-57
aI72
aI73
aI-49
aI-48
aI-43
aI-39
aI-34
aI71
aI-69
aI-65
atp949
Rp950
ag14
((lp951
I-77
aI-82
atp952
Rp953
ag14
((lp954
I-58
aI-78
aI79
aI80
aI81
aI82
aI83
aI-76
aI85
aI86
aI87
aI84
atp955
Rp956
ag14
((lp957
I-64
aI-63
aI-62
aI-61
aI-60
aI70
aI-57
aI72
aI73
aI-49
aI-48
aI-43
aI-39
aI-34
aI71
aI-69
aI-68
atp958
Rp959
ag14
((lp960
I-63
aI-62
aI-61
aI-60
aI70
aI71
aI72
aI73
aI-49
aI-48
aI-43
aI-39
aI-34
aI-57
aI-69
aI-68
aI-65
atp961
Rp962
ag14
((lp963
I-64
aI-62
aI-61
aI-60
aI70
aI-57
aI72
aI73
aI-49
aI-48
aI-43
aI-39
aI-34
aI71
aI-69
aI-68
aI-65
atp964
Rp965
ag14
((lp966
I-64
aI-63
aI-61
aI-60
aI70
aI-57
aI72
aI73
aI-49
aI-48
aI-43
aI-39
aI-34
aI71
aI-69
aI-68
aI-65
atp967
Rp968
ag14
((lp969
I-64
aI-63
aI-62
aI-60
aI70
aI-57
aI72
aI73
aI-49
aI-48
aI-43
aI-39
aI-34
aI71
aI-69
aI-68
aI-65
atp970
Rp971
ag14
((lp972
I-64
aI-63
aI-62
aI-61
aI70
aI71
aI72
aI73
aI-49
aI-48
aI-43
aI-39
aI-34
aI-57
aI-69
aI-68
aI-65
atp973
Rp974
ag14
((lp975
tp976
Rp977
ag14
((lp978
I-78
aI79
aI80
aI81
aI82
aI83
aI84
aI85
aI86
aI87
aI-76
aI-66
atp979
Rp980
ag14
((lp981
I-64
aI-63
aI-62
aI-61
aI-60
aI70
aI71
aI72
aI73
aI-49
aI-48
aI-43
aI-39
aI-34
aI-69
aI-68
aI-65
atp982
Rp983
ag14
((lp984
I63
atp985
Rp986
ag14
((lp987
tp988
Rp989
ag14
((lp990
tp991
Rp992
ag14
((lp993
tp994
Rp995
ag14
((lp996
tp997
Rp998
ag14
((lp999
I-47
atp1000
Rp1001
ag14
((lp1002
tp1003
Rp1004
ag14
((lp1005
I-64
aI-63
aI-62
aI-61
aI-60
aI70
aI71
aI72
aI73
aI-48
aI-43
aI-39
aI-34
aI-57
aI-69
aI-68
aI-65
atp1006
Rp1007
ag14
((lp1008
I-64
aI-63
aI-62
aI-61
aI-60
aI70
aI-57
aI72
aI73
aI-49
aI-43
aI-39
aI71
aI-69
aI-68
aI-65
atp1009
Rp1010
ag14
((lp1011
I-51
atp1012
Rp1013
ag14
((lp1014
tp1015
Rp1016
ag14
((lp1017
tp1018
Rp1019
ag14
((lp1020
tp1021
Rp1022
ag14
((lp1023
I-64
aI-63
aI-62
aI-61
aI-60
aI70
aI-57
aI72
aI73
aI-49
aI-48
aI-39
aI-34
aI71
aI-69
aI-68
aI-65
atp1024
Rp1025
ag14
((lp1026
tp1027
Rp1028
ag14
((lp1029
I74
atp1030
Rp1031
ag14
((lp1032
tp1033
Rp1034
ag14
((lp1035
I-64
aI-63
aI-62
aI-61
aI-60
aI70
aI-57
aI72
aI73
aI-49
aI-48
aI-43
aI-34
aI71
aI-69
aI-68
aI-65
atp1036
Rp1037
ag14
((lp1038
tp1039
Rp1040
ag14
((lp1041
tp1042
Rp1043
ag14
((lp1044
tp1045
Rp1046
ag14
((lp1047
tp1048
Rp1049
ag14
((lp1050
I-64
aI-63
aI-62
aI-61
aI-60
aI70
aI71
aI72
aI73
aI-49
aI-43
aI-39
aI-57
aI-69
aI-68
aI-65
atp1051
Rp1052
ag14
((lp1053
I-31
aI35
atp1054
Rp1055
ag14
((lp1056
tp1057
Rp1058
ag14
((lp1059
I35
aI-33
atp1060
Rp1061
ag14
((lp1062
tp1063
Rp1064
ag14
((lp1065
I34
atp1066
Rp1067
ag14
((lp1068
tp1069
Rp1070
ag14
((lp1071
I33
atp1072
Rp1073
ag14
((lp1074
tp1075
Rp1076
ag14
((lp1077
I32
aI-24
aI-21
aI-19
aI-17
aI-16
aI26
aI27
aI28
aI29
aI30
aI31
atp1078
Rp1079
ag14
((lp1080
I32
aI-25
aI-21
aI-19
aI-17
aI-16
aI26
aI27
aI28
aI29
aI30
aI31
atp1081
Rp1082
ag14
((lp1083
tp1084
Rp1085
ag14
((lp1086
tp1087
Rp1088
ag14
((lp1089
I32
aI-25
aI-24
aI-19
aI-17
aI-16
aI26
aI27
aI28
aI29
aI30
aI31
atp1090
Rp1091
ag14
((lp1092
I36
atp1093
Rp1094
ag14
((lp1095
I32
aI-25
aI-24
aI-21
aI-17
aI-16
aI26
aI27
aI28
aI29
aI30
aI31
atp1096
Rp1097
ag14
((lp1098
I48
atp1099
Rp1100
ag14
((lp1101
I32
aI-25
aI-24
aI-21
aI-19
aI-16
aI26
aI27
aI28
aI29
aI30
aI31
atp1102
Rp1103
ag14
((lp1104
I32
aI-25
aI-24
aI-21
aI-19
aI-17
aI26
aI27
aI28
aI29
aI30
aI31
atp1105
Rp1106
ag14
((lp1107
tp1108
Rp1109
ag14
((lp1110
tp1111
Rp1112
ag14
((lp1113
tp1114
Rp1115
ag14
((lp1116
I156
atp1117
Rp1118
ag14
((lp1119
tp1120
Rp1121
ag14
((lp1122
tp1123
Rp1124
ag14
((lp1125
tp1126
Rp1127
ag14
((lp1128
tp1129
Rp1130
ag14
((lp1131
tp1132
Rp1133
ag14
((lp1134
tp1135
Rp1136
ag14
((lp1137
tp1138
Rp1139
ag14
((lp1140
tp1141
Rp1142
ag14
((lp1143
tp1144
Rp1145
ag14
((lp1146
tp1147
Rp1148
ag14
((lp1149
tp1150
Rp1151
atp1152
b.