cnumpy.core.multiarray
_reconstruct
p0
(cnumpy
ndarray
p1
(I0
tp2
S'b'
p3
tp4
Rp5
(I1
(I2701
tp6
cnumpy
dtype
p7
(S'O8'
p8
I0
I1
tp9
Rp10
(I3
S'|'
p11
NNNI-1
I-1
I63
tp12
bI00
(lp13
c__builtin__
set
p14
((lp15
tp16
Rp17
ag14
((lp18
tp19
Rp20
ag14
((lp21
tp22
Rp23
ag14
((lp24
tp25
Rp26
ag14
((lp27
tp28
Rp29
ag14
((lp30
tp31
Rp32
ag14
((lp33
tp34
Rp35
ag14
((lp36
tp37
Rp38
ag14
((lp39
I9
aI11
atp40
Rp41
ag14
((lp42
I8
aI11
atp43
Rp44
ag14
((lp45
tp46
Rp47
ag14
((lp48
I8
aI9
atp49
Rp50
ag14
((lp51
tp52
Rp53
ag14
((lp54
tp55
Rp56
ag14
((lp57
tp58
Rp59
ag14
((lp60
I16
atp61
Rp62
ag14
((lp63
I15
atp64
Rp65
ag14
((lp66
tp67
Rp68
ag14
((lp69
I-5
atp70
Rp71
ag14
((lp72
I-15
aI-9
atp73
Rp74
ag14
((lp75
I-6
aI21
atp76
Rp77
ag14
((lp78
I-6
aI20
atp79
Rp80
ag14
((lp81
tp82
Rp83
ag14
((lp84
tp85
Rp86
ag14
((lp87
I-11
atp88
Rp89
ag14
((lp90
I26
atp91
Rp92
ag14
((lp93
I25
atp94
Rp95
ag14
((lp96
I28
atp97
Rp98
ag14
((lp99
I-16
aI27
atp100
Rp101
ag14
((lp102
tp103
Rp104
ag14
((lp105
I32
aI-29
aI31
atp106
Rp107
ag14
((lp108
I32
aI-29
aI30
atp109
Rp110
ag14
((lp111
I-29
aI30
aI31
atp112
Rp113
ag14
((lp114
tp115
Rp116
ag14
((lp117
I35
atp118
Rp119
ag14
((lp120
I34
atp121
Rp122
ag14
((lp123
I37
aI38
aI39
aI40
aI41
aI42
atp124
Rp125
ag14
((lp126
I36
aI38
aI39
aI40
aI41
atp127
Rp128
ag14
((lp129
I36
aI37
aI39
aI40
aI41
aI42
atp130
Rp131
ag14
((lp132
I36
aI37
aI38
aI40
aI41
atp133
Rp134
ag14
((lp135
I36
aI37
aI38
aI39
aI41
aI42
atp136
Rp137
ag14
((lp138
I36
aI37
aI38
aI39
aI40
atp139
Rp140
ag14
((lp141
I40
aI36
aI38
atp142
Rp143
ag14
((lp144
I54
atp145
Rp146
ag14
((lp147
tp148
Rp149
ag14
((lp150
I53
atp151
Rp152
ag14
((lp153
I-34
atp154
Rp155
ag14
((lp156
I-30
aI-43
atp157
Rp158
ag14
((lp159
I50
aI-36
atp160
Rp161
ag14
((lp162
tp163
Rp164
ag14
((lp165
I48
aI-36
atp166
Rp167
ag14
((lp168
I-36
aI-33
atp169
Rp170
ag14
((lp171
I-43
atp172
Rp173
ag14
((lp174
I45
atp175
Rp176
ag14
((lp177
I43
atp178
Rp179
ag14
((lp180
tp181
Rp182
ag14
((lp183
I-45
aI-44
atp184
Rp185
ag14
((lp186
I-46
atp187
Rp188
ag14
((lp189
I-55
aI59
aI60
aI-47
atp190
Rp191
ag14
((lp192
I-47
aI58
aI-55
atp193
Rp194
ag14
((lp195
I-55
aI58
atp196
Rp197
ag14
((lp198
I65
aI69
atp199
Rp200
ag14
((lp201
I66
aI63
atp202
Rp203
ag14
((lp204
I66
aI62
atp205
Rp206
ag14
((lp207
I-48
aI-56
aI67
aI68
atp208
Rp209
ag14
((lp210
I69
aI61
atp211
Rp212
ag14
((lp213
I62
aI63
atp214
Rp215
ag14
((lp216
I-48
aI-56
aI64
atp217
Rp218
ag14
((lp219
I-48
aI-56
aI-28
aI64
atp220
Rp221
ag14
((lp222
I65
aI61
atp223
Rp224
ag14
((lp225
I-21
aI-2
atp226
Rp227
ag14
((lp228
I-64
aI-63
aI-61
aI72
aI73
aI74
aI-52
aI-51
aI-50
aI79
aI80
aI81
aI-70
aI-37
atp229
Rp230
ag14
((lp231
I-64
aI71
aI73
aI-50
aI79
aI80
aI81
atp232
Rp233
ag14
((lp234
I-64
aI71
aI72
aI74
aI-52
aI-50
aI79
aI80
aI81
aI-70
aI-37
atp235
Rp236
ag14
((lp237
I71
aI73
aI-70
aI-37
aI-52
atp238
Rp239
ag14
((lp240
I82
aI76
aI-62
atp241
Rp242
ag14
((lp243
I82
aI75
aI-62
atp244
Rp245
ag14
((lp246
I-39
aI83
aI-53
atp247
Rp248
ag14
((lp249
I-38
aI-61
atp250
Rp251
ag14
((lp252
I-64
aI-63
aI-61
aI71
aI72
aI73
aI-51
aI-50
aI80
aI81
aI-70
aI-37
atp253
Rp254
ag14
((lp255
I-64
aI81
aI71
aI72
aI73
aI79
atp256
Rp257
ag14
((lp258
I80
aI-64
aI72
aI73
aI71
aI79
atp259
Rp260
ag14
((lp261
I-62
aI75
aI76
atp262
Rp263
ag14
((lp264
I84
aI77
aI-74
atp265
Rp266
ag14
((lp267
I83
aI-74
atp268
Rp269
ag14
((lp270
I-73
aI86
aI87
atp271
Rp272
ag14
((lp273
I-73
aI85
aI87
atp274
Rp275
ag14
((lp276
I85
aI86
aI-73
atp277
Rp278
ag14
((lp279
I-40
aI-71
aI-77
aI-75
atp280
Rp281
ag14
((lp282
I-40
aI-71
aI-77
aI-76
atp283
Rp284
ag14
((lp285
I-85
atp286
Rp287
ag14
((lp288
tp289
Rp290
ag14
((lp291
tp292
Rp293
ag14
((lp294
tp295
Rp296
ag14
((lp297
tp298
Rp299
ag14
((lp300
tp301
Rp302
ag14
((lp303
tp304
Rp305
ag14
((lp306
tp307
Rp308
ag14
((lp309
tp310
Rp311
ag14
((lp312
tp313
Rp314
ag14
((lp315
tp316
Rp317
ag14
((lp318
tp319
Rp320
ag14
((lp321
tp322
Rp323
ag14
((lp324
tp325
Rp326
ag14
((lp327
tp328
Rp329
ag14
((lp330
tp331
Rp332
ag14
((lp333
tp334
Rp335
ag14
((lp336
tp337
Rp338
ag14
((lp339
tp340
Rp341
ag14
((lp342
tp343
Rp344
ag14
((lp345
tp346
Rp347
ag14
((lp348
tp349
Rp350
ag14
((lp351
tp352
Rp353
ag14
((lp354
tp355
Rp356
ag14
((lp357
tp358
Rp359
ag14
((lp360
tp361
Rp362
ag14
((lp363
tp364
Rp365
ag14
((lp366
tp367
Rp368
ag14
((lp369
tp370
Rp371
ag14
((lp372
I120
atp373
Rp374
ag14
((lp375
I119
atp376
Rp377
ag14
((lp378
tp379
Rp380
ag14
((lp381
tp382
Rp383
ag14
((lp384
tp385
Rp386
ag14
((lp387
tp388
Rp389
ag14
((lp390
tp391
Rp392
ag14
((lp393
tp394
Rp395
ag14
((lp396
tp397
Rp398
ag14
((lp399
I-123
atp400
Rp401
ag14
((lp402
tp403
Rp404
ag14
((lp405
tp406
Rp407
ag14
((lp408
I132
atp409
Rp410
ag14
((lp411
I131
atp412
Rp413
ag14
((lp414
tp415
Rp416
ag14
((lp417
tp418
Rp419
ag14
((lp420
tp421
Rp422
ag14
((lp423
tp424
Rp425
ag14
((lp426
tp427
Rp428
ag14
((lp429
I-133
aI-131
atp430
Rp431
ag14
((lp432
tp433
Rp434
ag14
((lp435
tp436
Rp437
ag14
((lp438
tp439
Rp440
ag14
((lp441
I-140
atp442
Rp443
ag14
((lp444
tp445
Rp446
ag14
((lp447
tp448
Rp449
ag14
((lp450
tp451
Rp452
ag14
((lp453
I-143
atp454
Rp455
ag14
((lp456
tp457
Rp458
ag14
((lp459
tp460
Rp461
ag14
((lp462
tp463
Rp464
ag14
((lp465
I-144
aI151
atp466
Rp467
ag14
((lp468
I-144
aI150
atp469
Rp470
ag14
((lp471
tp472
Rp473
ag14
((lp474
I-146
atp475
Rp476
ag14
((lp477
I156
atp478
Rp479
ag14
((lp480
tp481
Rp482
ag14
((lp483
I154
atp484
Rp485
ag14
((lp486
I-150
atp487
Rp488
ag14
((lp489
tp490
Rp491
ag14
((lp492
tp493
Rp494
ag14
((lp495
I-155
aI161
aI162
aI163
aI165
aI167
aI168
aI169
aI170
aI172
aI173
aI175
aI176
aI177
aI-142
atp496
Rp497
ag14
((lp498
I-153
aI-155
aI160
aI162
aI163
aI165
aI-154
aI167
aI168
aI169
aI170
aI171
aI172
aI173
aI174
aI175
aI176
aI177
aI-142
atp499
Rp500
ag14
((lp501
I165
aI160
aI161
aI163
aI-155
aI-154
aI-153
aI168
aI169
aI170
aI167
aI172
aI173
aI174
aI175
aI176
aI177
aI-142
atp502
Rp503
ag14
((lp504
I160
aI161
aI162
aI167
aI168
aI169
aI170
aI176
aI177
aI-142
atp505
Rp506
ag14
((lp507
I-156
atp508
Rp509
ag14
((lp510
I160
aI161
aI162
aI-155
aI-154
aI-153
aI168
aI167
aI172
aI173
aI174
aI175
atp511
Rp512
ag14
((lp513
tp514
Rp515
ag14
((lp516
I160
aI161
aI162
aI163
aI-155
aI168
aI169
aI172
aI173
aI175
aI176
aI177
aI-142
aI165
atp517
Rp518
ag14
((lp519
I-155
aI160
aI161
aI162
aI163
aI165
aI-154
aI-153
aI169
aI170
aI167
aI172
aI173
aI174
aI175
aI176
aI177
aI-142
atp520
Rp521
ag14
((lp522
I160
aI161
aI162
aI163
aI167
aI168
aI170
aI176
aI177
aI-142
atp523
Rp524
ag14
((lp525
I160
aI161
aI162
aI163
aI168
aI169
aI176
aI177
aI-142
atp526
Rp527
ag14
((lp528
I161
atp529
Rp530
ag14
((lp531
I160
aI161
aI162
aI-155
aI-154
aI-153
aI168
aI167
aI173
aI174
aI175
aI165
atp532
Rp533
ag14
((lp534
I160
aI161
aI162
aI-155
aI167
aI168
aI172
aI175
aI-142
aI165
atp535
Rp536
ag14
((lp537
I161
aI162
aI165
aI-154
aI-153
aI168
aI172
aI175
aI-155
atp538
Rp539
ag14
((lp540
I160
aI161
aI162
aI165
aI-154
aI167
aI168
aI-153
aI172
aI173
aI174
aI-155
atp541
Rp542
ag14
((lp543
I160
aI161
aI162
aI163
aI167
aI168
aI169
aI170
aI177
aI-142
atp544
Rp545
ag14
((lp546
I160
aI161
aI162
aI163
aI167
aI168
aI169
aI170
aI176
aI-142
atp547
Rp548
ag14
((lp549
I-164
aI-161
atp550
Rp551
ag14
((lp552
I-165
aI180
aI181
aI-166
aI-157
atp553
Rp554
ag14
((lp555
I-157
aI179
aI181
aI182
aI-166
aI-165
aI-129
atp556
Rp557
ag14
((lp558
I-157
aI179
aI180
aI182
aI-166
aI-165
aI-129
atp559
Rp560
ag14
((lp561
I-157
aI180
aI181
aI-166
aI-165
aI-129
atp562
Rp563
ag14
((lp564
I-168
aI-158
aI-180
atp565
Rp566
ag14
((lp567
I-179
atp568
Rp569
ag14
((lp570
I188
atp571
Rp572
ag14
((lp573
tp574
Rp575
ag14
((lp576
tp577
Rp578
ag14
((lp579
I185
atp580
Rp581
ag14
((lp582
I191
atp583
Rp584
ag14
((lp585
I193
aI191
atp586
Rp587
ag14
((lp588
I193
aI189
aI190
atp589
Rp590
ag14
((lp591
I-170
atp592
Rp593
ag14
((lp594
I190
aI191
atp595
Rp596
ag14
((lp597
tp598
Rp599
ag14
((lp600
tp601
Rp602
ag14
((lp603
I-190
aI-189
aI-171
aI198
aI199
aI-183
atp604
Rp605
ag14
((lp606
I-92
atp607
Rp608
ag14
((lp609
I-190
aI-189
aI196
aI-171
aI-183
atp610
Rp611
ag14
((lp612
I-183
aI196
aI-171
atp613
Rp614
ag14
((lp615
tp616
Rp617
ag14
((lp618
tp619
Rp620
ag14
((lp621
I-184
aI-200
atp622
Rp623
ag14
((lp624
tp625
Rp626
ag14
((lp627
tp628
Rp629
ag14
((lp630
tp631
Rp632
ag14
((lp633
tp634
Rp635
ag14
((lp636
tp637
Rp638
ag14
((lp639
I209
atp640
Rp641
ag14
((lp642
I208
atp643
Rp644
ag14
((lp645
tp646
Rp647
ag14
((lp648
tp649
Rp650
ag14
((lp651
I-191
aI-116
atp652
Rp653
ag14
((lp654
I-208
atp655
Rp656
ag14
((lp657
I-192
atp658
Rp659
ag14
((lp660
I219
atp661
Rp662
ag14
((lp663
I218
aI219
aI-212
aI-211
aI-210
atp664
Rp665
ag14
((lp666
I-209
aI-215
atp667
Rp668
ag14
((lp669
I216
aI-212
aI-211
aI-210
atp670
Rp671
ag14
((lp672
I216
aI-210
aI215
atp673
Rp674
ag14
((lp675
tp676
Rp677
ag14
((lp678
tp679
Rp680
ag14
((lp681
tp682
Rp683
ag14
((lp684
tp685
Rp686
ag14
((lp687
tp688
Rp689
ag14
((lp690
tp691
Rp692
ag14
((lp693
tp694
Rp695
ag14
((lp696
tp697
Rp698
ag14
((lp699
I229
atp700
Rp701
ag14
((lp702
I228
atp703
Rp704
ag14
((lp705
tp706
Rp707
ag14
((lp708
tp709
Rp710
ag14
((lp711
I233
aI-148
atp712
Rp713
ag14
((lp714
I232
aI-148
atp715
Rp716
ag14
((lp717
I-230
atp718
Rp719
ag14
((lp720
tp721
Rp722
ag14
((lp723
I-223
atp724
Rp725
ag14
((lp726
tp727
Rp728
ag14
((lp729
tp730
Rp731
ag14
((lp732
tp733
Rp734
ag14
((lp735
tp736
Rp737
ag14
((lp738
tp739
Rp740
ag14
((lp741
tp742
Rp743
ag14
((lp744
tp745
Rp746
ag14
((lp747
I-231
aI-242
aI-236
atp748
Rp749
ag14
((lp750
I-176
aI247
aI248
aI250
aI251
atp751
Rp752
ag14
((lp753
I-175
aI-239
aI249
aI247
aI252
aI253
atp754
Rp755
ag14
((lp756
I-176
aI-239
aI245
aI246
aI248
aI250
aI251
atp757
Rp758
ag14
((lp759
I-176
aI245
aI247
aI250
aI251
atp760
Rp761
ag14
((lp762
I-175
aI252
aI253
aI246
atp763
Rp764
ag14
((lp765
I-176
aI-239
aI245
aI247
aI248
aI251
atp766
Rp767
ag14
((lp768
I-176
aI245
aI247
aI248
aI250
atp769
Rp770
ag14
((lp771
I249
aI253
aI246
aI-175
atp772
Rp773
ag14
((lp774
I249
aI252
aI246
aI-175
atp775
Rp776
ag14
((lp777
I-205
atp778
Rp779
ag14
((lp780
tp781
Rp782
ag14
((lp783
I-247
atp784
Rp785
ag14
((lp786
tp787
Rp788
ag14
((lp789
tp790
Rp791
ag14
((lp792
I260
atp793
Rp794
ag14
((lp795
I259
atp796
Rp797
ag14
((lp798
I-260
atp799
Rp800
ag14
((lp801
tp802
Rp803
ag14
((lp804
tp805
Rp806
ag14
((lp807
tp808
Rp809
ag14
((lp810
tp811
Rp812
ag14
((lp813
I267
atp814
Rp815
ag14
((lp816
I266
atp817
Rp818
ag14
((lp819
I-99
atp820
Rp821
ag14
((lp822
tp823
Rp824
ag14
((lp825
tp826
Rp827
ag14
((lp828
I-270
atp829
Rp830
ag14
((lp831
I273
atp832
Rp833
ag14
((lp834
I272
atp835
Rp836
ag14
((lp837
I275
atp838
Rp839
ag14
((lp840
I274
atp841
Rp842
ag14
((lp843
I-275
atp844
Rp845
ag14
((lp846
tp847
Rp848
ag14
((lp849
tp850
Rp851
ag14
((lp852
tp853
Rp854
ag14
((lp855
I-254
atp856
Rp857
ag14
((lp858
tp859
Rp860
ag14
((lp861
tp862
Rp863
ag14
((lp864
tp865
Rp866
ag14
((lp867
tp868
Rp869
ag14
((lp870
I-281
atp871
Rp872
ag14
((lp873
tp874
Rp875
ag14
((lp876
tp877
Rp878
ag14
((lp879
I290
aI292
aI-265
atp880
Rp881
ag14
((lp882
tp883
Rp884
ag14
((lp885
I288
aI292
aI-265
atp886
Rp887
ag14
((lp888
tp889
Rp890
ag14
((lp891
I288
aI290
aI294
atp892
Rp893
ag14
((lp894
tp895
Rp896
ag14
((lp897
I292
aI295
atp898
Rp899
ag14
((lp900
I294
atp901
Rp902
ag14
((lp903
I-286
aI-258
atp904
Rp905
ag14
((lp906
tp907
Rp908
ag14
((lp909
I-288
aI-287
atp910
Rp911
ag14
((lp912
I300
aI-290
atp913
Rp914
ag14
((lp915
I299
aI-290
atp916
Rp917
ag14
((lp918
tp919
Rp920
ag14
((lp921
tp922
Rp923
ag14
((lp924
tp925
Rp926
ag14
((lp927
tp928
Rp929
ag14
((lp930
tp931
Rp932
ag14
((lp933
tp934
Rp935
ag14
((lp936
tp937
Rp938
ag14
((lp939
tp940
Rp941
ag14
((lp942
I-240
aI-138
atp943
Rp944
ag14
((lp945
I-308
atp946
Rp947
ag14
((lp948
tp949
Rp950
ag14
((lp951
tp952
Rp953
ag14
((lp954
tp955
Rp956
ag14
((lp957
tp958
Rp959
ag14
((lp960
I-314
atp961
Rp962
ag14
((lp963
tp964
Rp965
ag14
((lp966
tp967
Rp968
ag14
((lp969
tp970
Rp971
ag14
((lp972
I-206
atp973
Rp974
ag14
((lp975
tp976
Rp977
ag14
((lp978
tp979
Rp980
ag14
((lp981
I323
atp982
Rp983
ag14
((lp984
I322
atp985
Rp986
ag14
((lp987
tp988
Rp989
ag14
((lp990
tp991
Rp992
ag14
((lp993
I-322
atp994
Rp995
ag14
((lp996
tp997
Rp998
ag14
((lp999
tp1000
Rp1001
ag14
((lp1002
tp1003
Rp1004
ag14
((lp1005
tp1006
Rp1007
ag14
((lp1008
tp1009
Rp1010
ag14
((lp1011
I-324
aI-326
aI333
atp1012
Rp1013
ag14
((lp1014
I332
aI-326
aI-324
atp1015
Rp1016
ag14
((lp1017
tp1018
Rp1019
ag14
((lp1020
I-321
atp1021
Rp1022
ag14
((lp1023
tp1024
Rp1025
ag14
((lp1026
tp1027
Rp1028
ag14
((lp1029
tp1030
Rp1031
ag14
((lp1032
tp1033
Rp1034
ag14
((lp1035
tp1036
Rp1037
ag14
((lp1038
tp1039
Rp1040
ag14
((lp1041
tp1042
Rp1043
ag14
((lp1044
tp1045
Rp1046
ag14
((lp1047
tp1048
Rp1049
ag14
((lp1050
I346
atp1051
Rp1052
ag14
((lp1053
I345
atp1054
Rp1055
ag14
((lp1056
tp1057
Rp1058
ag14
((lp1059
I349
atp1060
Rp1061
ag14
((lp1062
I348
atp1063
Rp1064
ag14
((lp1065
tp1066
Rp1067
ag14
((lp1068
I-257
atp1069
Rp1070
ag14
((lp1071
tp1072
Rp1073
ag14
((lp1074
tp1075
Rp1076
ag14
((lp1077
tp1078
Rp1079
ag14
((lp1080
tp1081
Rp1082
ag14
((lp1083
tp1084
Rp1085
ag14
((lp1086
tp1087
Rp1088
ag14
((lp1089
tp1090
Rp1091
ag14
((lp1092
tp1093
Rp1094
ag14
((lp1095
I-358
atp1096
Rp1097
ag14
((lp1098
tp1099
Rp1100
ag14
((lp1101
I363
atp1102
Rp1103
ag14
((lp1104
I362
atp1105
Rp1106
ag14
((lp1107
tp1108
Rp1109
ag14
((lp1110
I-327
atp1111
Rp1112
ag14
((lp1113
tp1114
Rp1115
ag14
((lp1116
tp1117
Rp1118
ag14
((lp1119
tp1120
Rp1121
ag14
((lp1122
tp1123
Rp1124
ag14
((lp1125
tp1126
Rp1127
ag14
((lp1128
tp1129
Rp1130
ag14
((lp1131
tp1132
Rp1133
ag14
((lp1134
tp1135
Rp1136
ag14
((lp1137
tp1138
Rp1139
ag14
((lp1140
tp1141
Rp1142
ag14
((lp1143
tp1144
Rp1145
ag14
((lp1146
tp1147
Rp1148
ag14
((lp1149
I-375
atp1150
Rp1151
ag14
((lp1152
tp1153
Rp1154
ag14
((lp1155
I-377
atp1156
Rp1157
ag14
((lp1158
tp1159
Rp1160
ag14
((lp1161
tp1162
Rp1163
ag14
((lp1164
I384
atp1165
Rp1166
ag14
((lp1167
I383
atp1168
Rp1169
ag14
((lp1170
I386
aI-355
atp1171
Rp1172
ag14
((lp1173
I385
atp1174
Rp1175
ag14
((lp1176
I-233
atp1177
Rp1178
ag14
((lp1179
tp1180
Rp1181
ag14
((lp1182
I-384
atp1183
Rp1184
ag14
((lp1185
I-32
aI-387
atp1186
Rp1187
ag14
((lp1188
tp1189
Rp1190
ag14
((lp1191
tp1192
Rp1193
ag14
((lp1194
tp1195
Rp1196
ag14
((lp1197
tp1198
Rp1199
ag14
((lp1200
tp1201
Rp1202
ag14
((lp1203
tp1204
Rp1205
ag14
((lp1206
tp1207
Rp1208
ag14
((lp1209
tp1210
Rp1211
ag14
((lp1212
tp1213
Rp1214
ag14
((lp1215
tp1216
Rp1217
ag14
((lp1218
tp1219
Rp1220
ag14
((lp1221
tp1222
Rp1223
ag14
((lp1224
tp1225
Rp1226
ag14
((lp1227
tp1228
Rp1229
ag14
((lp1230
tp1231
Rp1232
ag14
((lp1233
I-404
atp1234
Rp1235
ag14
((lp1236
I-119
atp1237
Rp1238
ag14
((lp1239
tp1240
Rp1241
ag14
((lp1242
tp1243
Rp1244
ag14
((lp1245
tp1246
Rp1247
ag14
((lp1248
tp1249
Rp1250
ag14
((lp1251
tp1252
Rp1253
ag14
((lp1254
tp1255
Rp1256
ag14
((lp1257
tp1258
Rp1259
ag14
((lp1260
tp1261
Rp1262
ag14
((lp1263
tp1264
Rp1265
ag14
((lp1266
tp1267
Rp1268
ag14
((lp1269
tp1270
Rp1271
ag14
((lp1272
tp1273
Rp1274
ag14
((lp1275
tp1276
Rp1277
ag14
((lp1278
tp1279
Rp1280
ag14
((lp1281
tp1282
Rp1283
ag14
((lp1284
tp1285
Rp1286
ag14
((lp1287
tp1288
Rp1289
ag14
((lp1290
I426
atp1291
Rp1292
ag14
((lp1293
I425
atp1294
Rp1295
ag14
((lp1296
tp1297
Rp1298
ag14
((lp1299
I-423
aI429
aI-425
atp1300
Rp1301
ag14
((lp1302
I-423
aI428
aI-425
atp1303
Rp1304
ag14
((lp1305
tp1306
Rp1307
ag14
((lp1308
tp1309
Rp1310
ag14
((lp1311
tp1312
Rp1313
ag14
((lp1314
tp1315
Rp1316
ag14
((lp1317
tp1318
Rp1319
ag14
((lp1320
tp1321
Rp1322
ag14
((lp1323
tp1324
Rp1325
ag14
((lp1326
tp1327
Rp1328
ag14
((lp1329
tp1330
Rp1331
ag14
((lp1332
I440
aI442
atp1333
Rp1334
ag14
((lp1335
I441
aI442
aI439
atp1336
Rp1337
ag14
((lp1338
I440
aI442
atp1339
Rp1340
ag14
((lp1341
I440
aI441
aI439
atp1342
Rp1343
ag14
((lp1344
tp1345
Rp1346
ag14
((lp1347
tp1348
Rp1349
ag14
((lp1350
tp1351
Rp1352
ag14
((lp1353
tp1354
Rp1355
ag14
((lp1356
I-439
atp1357
Rp1358
ag14
((lp1359
tp1360
Rp1361
ag14
((lp1362
tp1363
Rp1364
ag14
((lp1365
tp1366
Rp1367
ag14
((lp1368
tp1369
Rp1370
ag14
((lp1371
tp1372
Rp1373
ag14
((lp1374
I-440
aI454
atp1375
Rp1376
ag14
((lp1377
I-440
aI453
atp1378
Rp1379
ag14
((lp1380
tp1381
Rp1382
ag14
((lp1383
I457
atp1384
Rp1385
ag14
((lp1386
I456
atp1387
Rp1388
ag14
((lp1389
tp1390
Rp1391
ag14
((lp1392
I461
atp1393
Rp1394
ag14
((lp1395
tp1396
Rp1397
ag14
((lp1398
I459
atp1399
Rp1400
ag14
((lp1401
tp1402
Rp1403
ag14
((lp1404
tp1405
Rp1406
ag14
((lp1407
I-463
atp1408
Rp1409
ag14
((lp1410
tp1411
Rp1412
ag14
((lp1413
tp1414
Rp1415
ag14
((lp1416
tp1417
Rp1418
ag14
((lp1419
tp1420
Rp1421
ag14
((lp1422
tp1423
Rp1424
ag14
((lp1425
I472
aI471
atp1426
Rp1427
ag14
((lp1428
I472
aI470
atp1429
Rp1430
ag14
((lp1431
I470
aI471
atp1432
Rp1433
ag14
((lp1434
tp1435
Rp1436
ag14
((lp1437
tp1438
Rp1439
ag14
((lp1440
tp1441
Rp1442
ag14
((lp1443
tp1444
Rp1445
ag14
((lp1446
tp1447
Rp1448
ag14
((lp1449
tp1450
Rp1451
ag14
((lp1452
tp1453
Rp1454
ag14
((lp1455
tp1456
Rp1457
ag14
((lp1458
tp1459
Rp1460
ag14
((lp1461
tp1462
Rp1463
ag14
((lp1464
tp1465
Rp1466
ag14
((lp1467
tp1468
Rp1469
ag14
((lp1470
tp1471
Rp1472
ag14
((lp1473
tp1474
Rp1475
ag14
((lp1476
I-479
atp1477
Rp1478
ag14
((lp1479
tp1480
Rp1481
ag14
((lp1482
I-188
aI-484
atp1483
Rp1484
ag14
((lp1485
tp1486
Rp1487
ag14
((lp1488
tp1489
Rp1490
ag14
((lp1491
I493
aI-418
atp1492
Rp1493
ag14
((lp1494
I492
atp1495
Rp1496
ag14
((lp1497
tp1498
Rp1499
ag14
((lp1500
tp1501
Rp1502
ag14
((lp1503
tp1504
Rp1505
ag14
((lp1506
I-428
atp1507
Rp1508
ag14
((lp1509
I500
atp1510
Rp1511
ag14
((lp1512
tp1513
Rp1514
ag14
((lp1515
I498
atp1516
Rp1517
ag14
((lp1518
I-464
aI-398
aI-497
atp1519
Rp1520
ag14
((lp1521
tp1522
Rp1523
ag14
((lp1524
I505
aI506
atp1525
Rp1526
ag14
((lp1527
tp1528
Rp1529
ag14
((lp1530
I506
aI503
atp1531
Rp1532
ag14
((lp1533
I505
aI503
atp1534
Rp1535
ag14
((lp1536
tp1537
Rp1538
ag14
((lp1539
I509
aI510
atp1540
Rp1541
ag14
((lp1542
I508
aI510
atp1543
Rp1544
ag14
((lp1545
I508
aI509
atp1546
Rp1547
ag14
((lp1548
tp1549
Rp1550
ag14
((lp1551
I513
atp1552
Rp1553
ag14
((lp1554
I512
atp1555
Rp1556
ag14
((lp1557
tp1558
Rp1559
ag14
((lp1560
tp1561
Rp1562
ag14
((lp1563
tp1564
Rp1565
ag14
((lp1566
I518
atp1567
Rp1568
ag14
((lp1569
I517
atp1570
Rp1571
ag14
((lp1572
I521
aI-514
atp1573
Rp1574
ag14
((lp1575
tp1576
Rp1577
ag14
((lp1578
I519
atp1579
Rp1580
ag14
((lp1581
I-453
atp1582
Rp1583
ag14
((lp1584
tp1585
Rp1586
ag14
((lp1587
tp1588
Rp1589
ag14
((lp1590
tp1591
Rp1592
ag14
((lp1593
tp1594
Rp1595
ag14
((lp1596
tp1597
Rp1598
ag14
((lp1599
I529
atp1600
Rp1601
ag14
((lp1602
I528
atp1603
Rp1604
ag14
((lp1605
tp1606
Rp1607
ag14
((lp1608
I532
aI533
atp1609
Rp1610
ag14
((lp1611
I531
aI533
atp1612
Rp1613
ag14
((lp1614
I531
aI532
atp1615
Rp1616
ag14
((lp1617
I-531
aI-530
aI535
aI536
aI537
aI538
aI540
atp1618
Rp1619
ag14
((lp1620
I537
aI540
aI534
aI-530
atp1621
Rp1622
ag14
((lp1623
I538
aI539
aI-531
aI534
atp1624
Rp1625
ag14
((lp1626
I540
aI534
aI-530
aI535
atp1627
Rp1628
ag14
((lp1629
I536
aI-531
aI534
atp1630
Rp1631
ag14
((lp1632
I536
atp1633
Rp1634
ag14
((lp1635
I537
aI-530
aI534
aI535
atp1636
Rp1637
ag14
((lp1638
I542
atp1639
Rp1640
ag14
((lp1641
I541
aI543
atp1642
Rp1643
ag14
((lp1644
I542
atp1645
Rp1646
ag14
((lp1647
tp1648
Rp1649
ag14
((lp1650
I-534
atp1651
Rp1652
ag14
((lp1653
I-519
aI-542
aI547
atp1654
Rp1655
ag14
((lp1656
I-519
aI-542
aI546
atp1657
Rp1658
ag14
((lp1659
tp1660
Rp1661
ag14
((lp1662
tp1663
Rp1664
ag14
((lp1665
I551
atp1666
Rp1667
ag14
((lp1668
I550
atp1669
Rp1670
ag14
((lp1671
I-527
aI553
atp1672
Rp1673
ag14
((lp1674
I552
atp1675
Rp1676
ag14
((lp1677
I-540
atp1678
Rp1679
ag14
((lp1680
I-526
atp1681
Rp1682
ag14
((lp1683
tp1684
Rp1685
ag14
((lp1686
I-550
atp1687
Rp1688
ag14
((lp1689
I559
atp1690
Rp1691
ag14
((lp1692
I558
atp1693
Rp1694
ag14
((lp1695
I-558
atp1696
Rp1697
ag14
((lp1698
I-551
aI562
atp1699
Rp1700
ag14
((lp1701
I-551
aI561
atp1702
Rp1703
ag14
((lp1704
I-523
aI566
atp1705
Rp1706
ag14
((lp1707
tp1708
Rp1709
ag14
((lp1710
I-556
atp1711
Rp1712
ag14
((lp1713
I563
aI-523
atp1714
Rp1715
ag14
((lp1716
tp1717
Rp1718
ag14
((lp1719
tp1720
Rp1721
ag14
((lp1722
tp1723
Rp1724
ag14
((lp1725
tp1726
Rp1727
ag14
((lp1728
tp1729
Rp1730
ag14
((lp1731
I-563
atp1732
Rp1733
ag14
((lp1734
tp1735
Rp1736
ag14
((lp1737
I579
atp1738
Rp1739
ag14
((lp1740
I-477
atp1741
Rp1742
ag14
((lp1743
tp1744
Rp1745
ag14
((lp1746
I-544
atp1747
Rp1748
ag14
((lp1749
tp1750
Rp1751
ag14
((lp1752
I574
atp1753
Rp1754
ag14
((lp1755
I-477
aI581
atp1756
Rp1757
ag14
((lp1758
I-477
aI580
atp1759
Rp1760
ag14
((lp1761
tp1762
Rp1763
ag14
((lp1764
tp1765
Rp1766
ag14
((lp1767
I-576
aI-575
atp1768
Rp1769
ag14
((lp1770
tp1771
Rp1772
ag14
((lp1773
I-584
atp1774
Rp1775
ag14
((lp1776
tp1777
Rp1778
ag14
((lp1779
I-478
aI-586
atp1780
Rp1781
ag14
((lp1782
tp1783
Rp1784
ag14
((lp1785
I591
atp1786
Rp1787
ag14
((lp1788
I590
atp1789
Rp1790
ag14
((lp1791
tp1792
Rp1793
ag14
((lp1794
tp1795
Rp1796
ag14
((lp1797
tp1798
Rp1799
ag14
((lp1800
tp1801
Rp1802
ag14
((lp1803
tp1804
Rp1805
ag14
((lp1806
tp1807
Rp1808
ag14
((lp1809
tp1810
Rp1811
ag14
((lp1812
tp1813
Rp1814
ag14
((lp1815
tp1816
Rp1817
ag14
((lp1818
tp1819
Rp1820
ag14
((lp1821
tp1822
Rp1823
ag14
((lp1824
I604
atp1825
Rp1826
ag14
((lp1827
I603
atp1828
Rp1829
ag14
((lp1830
tp1831
Rp1832
ag14
((lp1833
tp1834
Rp1835
ag14
((lp1836
I-592
atp1837
Rp1838
ag14
((lp1839
tp1840
Rp1841
ag14
((lp1842
tp1843
Rp1844
ag14
((lp1845
tp1846
Rp1847
ag14
((lp1848
I613
atp1849
Rp1850
ag14
((lp1851
tp1852
Rp1853
ag14
((lp1854
I611
atp1855
Rp1856
ag14
((lp1857
tp1858
Rp1859
ag14
((lp1860
I-610
atp1861
Rp1862
ag14
((lp1863
tp1864
Rp1865
ag14
((lp1866
tp1867
Rp1868
ag14
((lp1869
tp1870
Rp1871
ag14
((lp1872
tp1873
Rp1874
ag14
((lp1875
tp1876
Rp1877
ag14
((lp1878
tp1879
Rp1880
ag14
((lp1881
I-603
aI-617
aI-616
aI-598
aI-553
aI623
atp1882
Rp1883
ag14
((lp1884
I-603
aI-553
aI-616
aI-598
aI-617
aI622
atp1885
Rp1886
ag14
((lp1887
I-606
aI-618
atp1888
Rp1889
ag14
((lp1890
tp1891
Rp1892
ag14
((lp1893
tp1894
Rp1895
ag14
((lp1896
tp1897
Rp1898
ag14
((lp1899
tp1900
Rp1901
ag14
((lp1902
I630
aI631
atp1903
Rp1904
ag14
((lp1905
I629
aI631
atp1906
Rp1907
ag14
((lp1908
I629
aI630
atp1909
Rp1910
ag14
((lp1911
tp1912
Rp1913
ag14
((lp1914
tp1915
Rp1916
ag14
((lp1917
I-632
atp1918
Rp1919
ag14
((lp1920
tp1921
Rp1922
ag14
((lp1923
I-596
atp1924
Rp1925
ag14
((lp1926
I-627
atp1927
Rp1928
ag14
((lp1929
tp1930
Rp1931
ag14
((lp1932
I-637
atp1933
Rp1934
ag14
((lp1935
tp1936
Rp1937
ag14
((lp1938
I642
aI643
atp1939
Rp1940
ag14
((lp1941
I641
aI643
atp1942
Rp1943
ag14
((lp1944
I641
aI642
atp1945
Rp1946
ag14
((lp1947
tp1948
Rp1949
ag14
((lp1950
tp1951
Rp1952
ag14
((lp1953
tp1954
Rp1955
ag14
((lp1956
tp1957
Rp1958
ag14
((lp1959
I-639
atp1960
Rp1961
ag14
((lp1962
I650
aI651
aI652
aI653
aI655
atp1963
Rp1964
ag14
((lp1965
I649
aI652
atp1966
Rp1967
ag14
((lp1968
I649
aI652
aI653
aI654
aI655
atp1969
Rp1970
ag14
((lp1971
I649
aI650
aI651
aI653
aI655
atp1972
Rp1973
ag14
((lp1974
I649
aI651
aI652
aI655
atp1975
Rp1976
ag14
((lp1977
I651
atp1978
Rp1979
ag14
((lp1980
I649
aI651
aI652
aI653
atp1981
Rp1982
ag14
((lp1983
tp1984
Rp1985
ag14
((lp1986
I-516
atp1987
Rp1988
ag14
((lp1989
I-650
atp1990
Rp1991
ag14
((lp1992
tp1993
Rp1994
ag14
((lp1995
I664
aI662
atp1996
Rp1997
ag14
((lp1998
I663
atp1999
Rp2000
ag14
((lp2001
I664
aI660
atp2002
Rp2003
ag14
((lp2004
I661
atp2005
Rp2006
ag14
((lp2007
I660
aI662
atp2008
Rp2009
ag14
((lp2010
tp2011
Rp2012
ag14
((lp2013
I667
atp2014
Rp2015
ag14
((lp2016
I666
atp2017
Rp2018
ag14
((lp2019
I-660
atp2020
Rp2021
ag14
((lp2022
I670
atp2023
Rp2024
ag14
((lp2025
I669
atp2026
Rp2027
ag14
((lp2028
I-636
atp2029
Rp2030
ag14
((lp2031
tp2032
Rp2033
ag14
((lp2034
I674
aI-571
atp2035
Rp2036
ag14
((lp2037
I673
aI-571
atp2038
Rp2039
ag14
((lp2040
I-671
aI-662
aI-668
atp2041
Rp2042
ag14
((lp2043
tp2044
Rp2045
ag14
((lp2046
I-614
atp2047
Rp2048
ag14
((lp2049
I679
atp2050
Rp2051
ag14
((lp2052
I678
atp2053
Rp2054
ag14
((lp2055
I681
atp2056
Rp2057
ag14
((lp2058
I680
atp2059
Rp2060
ag14
((lp2061
I-680
atp2062
Rp2063
ag14
((lp2064
tp2065
Rp2066
ag14
((lp2067
tp2068
Rp2069
ag14
((lp2070
I-657
atp2071
Rp2072
ag14
((lp2073
I687
atp2074
Rp2075
ag14
((lp2076
I686
atp2077
Rp2078
ag14
((lp2079
I690
atp2080
Rp2081
ag14
((lp2082
tp2083
Rp2084
ag14
((lp2085
I688
atp2086
Rp2087
ag14
((lp2088
I-685
atp2089
Rp2090
ag14
((lp2091
I696
aI-582
aI693
aI695
atp2092
Rp2093
ag14
((lp2094
I692
aI-681
aI-676
aI695
atp2095
Rp2096
ag14
((lp2097
tp2098
Rp2099
ag14
((lp2100
I696
aI-582
aI692
aI693
atp2101
Rp2102
ag14
((lp2103
I-582
aI692
aI695
atp2104
Rp2105
ag14
((lp2106
tp2107
Rp2108
ag14
((lp2109
tp2110
Rp2111
ag14
((lp2112
I-561
atp2113
Rp2114
ag14
((lp2115
I-698
atp2116
Rp2117
ag14
((lp2118
tp2119
Rp2120
ag14
((lp2121
tp2122
Rp2123
ag14
((lp2124
tp2125
Rp2126
ag14
((lp2127
tp2128
Rp2129
ag14
((lp2130
tp2131
Rp2132
ag14
((lp2133
tp2134
Rp2135
ag14
((lp2136
I708
atp2137
Rp2138
ag14
((lp2139
I707
atp2140
Rp2141
ag14
((lp2142
tp2143
Rp2144
ag14
((lp2145
tp2146
Rp2147
ag14
((lp2148
I-709
atp2149
Rp2150
ag14
((lp2151
tp2152
Rp2153
ag14
((lp2154
tp2155
Rp2156
ag14
((lp2157
tp2158
Rp2159
ag14
((lp2160
tp2161
Rp2162
ag14
((lp2163
tp2164
Rp2165
ag14
((lp2166
I-693
aI719
atp2167
Rp2168
ag14
((lp2169
tp2170
Rp2171
ag14
((lp2172
I-693
aI717
aI-573
atp2173
Rp2174
ag14
((lp2175
I-664
atp2176
Rp2177
ag14
((lp2178
tp2179
Rp2180
ag14
((lp2181
tp2182
Rp2183
ag14
((lp2184
tp2185
Rp2186
ag14
((lp2187
tp2188
Rp2189
ag14
((lp2190
I-600
atp2191
Rp2192
ag14
((lp2193
tp2194
Rp2195
ag14
((lp2196
I-725
atp2197
Rp2198
ag14
((lp2199
tp2200
Rp2201
ag14
((lp2202
tp2203
Rp2204
ag14
((lp2205
tp2206
Rp2207
ag14
((lp2208
tp2209
Rp2210
ag14
((lp2211
tp2212
Rp2213
ag14
((lp2214
tp2215
Rp2216
ag14
((lp2217
I-728
atp2218
Rp2219
ag14
((lp2220
tp2221
Rp2222
ag14
((lp2223
tp2224
Rp2225
ag14
((lp2226
I738
atp2227
Rp2228
ag14
((lp2229
I737
atp2230
Rp2231
ag14
((lp2232
tp2233
Rp2234
ag14
((lp2235
tp2236
Rp2237
ag14
((lp2238
tp2239
Rp2240
ag14
((lp2241
tp2242
Rp2243
ag14
((lp2244
I744
atp2245
Rp2246
ag14
((lp2247
I743
atp2248
Rp2249
ag14
((lp2250
tp2251
Rp2252
ag14
((lp2253
tp2254
Rp2255
ag14
((lp2256
tp2257
Rp2258
ag14
((lp2259
tp2260
Rp2261
ag14
((lp2262
I-736
aI750
atp2263
Rp2264
ag14
((lp2265
I-736
aI749
atp2266
Rp2267
ag14
((lp2268
tp2269
Rp2270
ag14
((lp2271
tp2272
Rp2273
ag14
((lp2274
tp2275
Rp2276
ag14
((lp2277
I-753
atp2278
Rp2279
ag14
((lp2280
tp2281
Rp2282
ag14
((lp2283
tp2284
Rp2285
ag14
((lp2286
I-724
aI-755
atp2287
Rp2288
ag14
((lp2289
tp2290
Rp2291
ag14
((lp2292
tp2293
Rp2294
ag14
((lp2295
I-758
aI-749
atp2296
Rp2297
ag14
((lp2298
tp2299
Rp2300
ag14
((lp2301
tp2302
Rp2303
ag14
((lp2304
tp2305
Rp2306
ag14
((lp2307
tp2308
Rp2309
ag14
((lp2310
tp2311
Rp2312
ag14
((lp2313
I768
aI767
atp2314
Rp2315
ag14
((lp2316
I766
atp2317
Rp2318
ag14
((lp2319
I769
aI766
atp2320
Rp2321
ag14
((lp2322
I768
atp2323
Rp2324
ag14
((lp2325
tp2326
Rp2327
ag14
((lp2328
tp2329
Rp2330
ag14
((lp2331
I-764
atp2332
Rp2333
ag14
((lp2334
tp2335
Rp2336
ag14
((lp2337
tp2338
Rp2339
ag14
((lp2340
tp2341
Rp2342
ag14
((lp2343
I-543
atp2344
Rp2345
ag14
((lp2346
tp2347
Rp2348
ag14
((lp2349
tp2350
Rp2351
ag14
((lp2352
tp2353
Rp2354
ag14
((lp2355
tp2356
Rp2357
ag14
((lp2358
tp2359
Rp2360
ag14
((lp2361
I-767
aI-658
atp2362
Rp2363
ag14
((lp2364
tp2365
Rp2366
ag14
((lp2367
tp2368
Rp2369
ag14
((lp2370
tp2371
Rp2372
ag14
((lp2373
I-768
atp2374
Rp2375
ag14
((lp2376
tp2377
Rp2378
ag14
((lp2379
tp2380
Rp2381
ag14
((lp2382
I-752
atp2383
Rp2384
ag14
((lp2385
tp2386
Rp2387
ag14
((lp2388
tp2389
Rp2390
ag14
((lp2391
tp2392
Rp2393
ag14
((lp2394
tp2395
Rp2396
ag14
((lp2397
I-779
atp2398
Rp2399
ag14
((lp2400
I796
atp2401
Rp2402
ag14
((lp2403
I795
atp2404
Rp2405
ag14
((lp2406
I-300
atp2407
Rp2408
ag14
((lp2409
tp2410
Rp2411
ag14
((lp2412
tp2413
Rp2414
ag14
((lp2415
tp2416
Rp2417
ag14
((lp2418
tp2419
Rp2420
ag14
((lp2421
tp2422
Rp2423
ag14
((lp2424
I-765
atp2425
Rp2426
ag14
((lp2427
tp2428
Rp2429
ag14
((lp2430
tp2431
Rp2432
ag14
((lp2433
tp2434
Rp2435
ag14
((lp2436
tp2437
Rp2438
ag14
((lp2439
tp2440
Rp2441
ag14
((lp2442
tp2443
Rp2444
ag14
((lp2445
tp2446
Rp2447
ag14
((lp2448
tp2449
Rp2450
ag14
((lp2451
tp2452
Rp2453
ag14
((lp2454
tp2455
Rp2456
ag14
((lp2457
tp2458
Rp2459
ag14
((lp2460
tp2461
Rp2462
ag14
((lp2463
tp2464
Rp2465
ag14
((lp2466
I-816
atp2467
Rp2468
ag14
((lp2469
I-655
aI819
aI-780
atp2470
Rp2471
ag14
((lp2472
I-655
aI818
aI-780
atp2473
Rp2474
ag14
((lp2475
tp2476
Rp2477
ag14
((lp2478
I-740
aI823
atp2479
Rp2480
ag14
((lp2481
tp2482
Rp2483
ag14
((lp2484
I-740
aI821
atp2485
Rp2486
ag14
((lp2487
tp2488
Rp2489
ag14
((lp2490
I-792
aI826
atp2491
Rp2492
ag14
((lp2493
I-792
aI825
atp2494
Rp2495
ag14
((lp2496
tp2497
Rp2498
ag14
((lp2499
tp2500
Rp2501
ag14
((lp2502
tp2503
Rp2504
ag14
((lp2505
I-824
atp2506
Rp2507
ag14
((lp2508
tp2509
Rp2510
ag14
((lp2511
tp2512
Rp2513
ag14
((lp2514
I-818
atp2515
Rp2516
ag14
((lp2517
I835
aI-829
aI-825
atp2518
Rp2519
ag14
((lp2520
I834
aI-829
aI-825
atp2521
Rp2522
ag14
((lp2523
tp2524
Rp2525
ag14
((lp2526
tp2527
Rp2528
ag14
((lp2529
I-815
aI-734
aI-819
aI-834
atp2530
Rp2531
ag14
((lp2532
I840
aI841
aI843
atp2533
Rp2534
ag14
((lp2535
I843
aI839
atp2536
Rp2537
ag14
((lp2538
I843
aI839
atp2539
Rp2540
ag14
((lp2541
tp2542
Rp2543
ag14
((lp2544
I840
aI841
aI839
atp2545
Rp2546
ag14
((lp2547
I-835
atp2548
Rp2549
ag14
((lp2550
tp2551
Rp2552
ag14
((lp2553
tp2554
Rp2555
ag14
((lp2556
tp2557
Rp2558
ag14
((lp2559
tp2560
Rp2561
ag14
((lp2562
tp2563
Rp2564
ag14
((lp2565
I-843
aI-842
atp2566
Rp2567
ag14
((lp2568
tp2569
Rp2570
ag14
((lp2571
tp2572
Rp2573
ag14
((lp2574
tp2575
Rp2576
ag14
((lp2577
tp2578
Rp2579
ag14
((lp2580
I856
atp2581
Rp2582
ag14
((lp2583
I855
atp2584
Rp2585
ag14
((lp2586
tp2587
Rp2588
ag14
((lp2589
tp2590
Rp2591
ag14
((lp2592
tp2593
Rp2594
ag14
((lp2595
tp2596
Rp2597
ag14
((lp2598
tp2599
Rp2600
ag14
((lp2601
tp2602
Rp2603
ag14
((lp2604
I-790
atp2605
Rp2606
ag14
((lp2607
tp2608
Rp2609
ag14
((lp2610
tp2611
Rp2612
ag14
((lp2613
tp2614
Rp2615
ag14
((lp2616
tp2617
Rp2618
ag14
((lp2619
tp2620
Rp2621
ag14
((lp2622
tp2623
Rp2624
ag14
((lp2625
tp2626
Rp2627
ag14
((lp2628
I-870
atp2629
Rp2630
ag14
((lp2631
I-870
atp2632
Rp2633
ag14
((lp2634
tp2635
Rp2636
ag14
((lp2637
tp2638
Rp2639
ag14
((lp2640
I-854
atp2641
Rp2642
ag14
((lp2643
tp2644
Rp2645
ag14
((lp2646
I-846
atp2647
Rp2648
ag14
((lp2649
tp2650
Rp2651
ag14
((lp2652
I-800
atp2653
Rp2654
ag14
((lp2655
tp2656
Rp2657
ag14
((lp2658
tp2659
Rp2660
ag14
((lp2661
tp2662
Rp2663
ag14
((lp2664
tp2665
Rp2666
ag14
((lp2667
I-739
aI-794
atp2668
Rp2669
ag14
((lp2670
tp2671
Rp2672
ag14
((lp2673
tp2674
Rp2675
ag14
((lp2676
I-679
atp2677
Rp2678
ag14
((lp2679
tp2680
Rp2681
ag14
((lp2682
I890
atp2683
Rp2684
ag14
((lp2685
I889
atp2686
Rp2687
ag14
((lp2688
I896
aI892
aI893
aI894
aI895
atp2689
Rp2690
ag14
((lp2691
I896
aI891
aI893
aI894
aI895
atp2692
Rp2693
ag14
((lp2694
I896
aI891
aI892
aI894
aI895
atp2695
Rp2696
ag14
((lp2697
I896
aI891
aI892
aI893
aI895
atp2698
Rp2699
ag14
((lp2700
I896
aI891
aI892
aI893
aI894
atp2701
Rp2702
ag14
((lp2703
I891
aI892
aI893
aI894
aI895
atp2704
Rp2705
ag14
((lp2706
I899
aI-892
atp2707
Rp2708
ag14
((lp2709
I-773
atp2710
Rp2711
ag14
((lp2712
I897
aI-892
atp2713
Rp2714
ag14
((lp2715
I-891
atp2716
Rp2717
ag14
((lp2718
I902
atp2719
Rp2720
ag14
((lp2721
I901
atp2722
Rp2723
ag14
((lp2724
I904
aI906
aI907
aI909
atp2725
Rp2726
ag14
((lp2727
I903
atp2728
Rp2729
ag14
((lp2730
I906
aI907
aI908
aI-883
aI909
aI-845
aI-901
aI-898
aI-897
atp2731
Rp2732
ag14
((lp2733
I903
aI905
aI907
aI908
aI909
aI-901
aI-898
aI-897
atp2734
Rp2735
ag14
((lp2736
I903
aI905
aI906
aI908
aI909
aI-901
aI-898
aI-897
atp2737
Rp2738
ag14
((lp2739
I905
aI906
aI907
aI909
aI-845
aI-901
aI-898
aI-897
atp2740
Rp2741
ag14
((lp2742
I903
aI905
aI906
aI907
aI908
aI-901
aI-898
aI-897
atp2743
Rp2744
ag14
((lp2745
I-878
atp2746
Rp2747
ag14
((lp2748
I-859
atp2749
Rp2750
ag14
((lp2751
I-904
aI-696
aI-910
atp2752
Rp2753
ag14
((lp2754
I914
aI-905
atp2755
Rp2756
ag14
((lp2757
I913
aI-905
atp2758
Rp2759
ag14
((lp2760
I916
aI-899
aI-906
aI917
atp2761
Rp2762
ag14
((lp2763
I915
aI917
aI-906
aI-899
aI918
atp2764
Rp2765
ag14
((lp2766
I915
aI916
aI-906
atp2767
Rp2768
ag14
((lp2769
I916
atp2770
Rp2771
ag14
((lp2772
tp2773
Rp2774
ag14
((lp2775
I-907
atp2776
Rp2777
ag14
((lp2778
I-912
aI922
aI-667
aI-659
atp2779
Rp2780
ag14
((lp2781
I-912
aI921
aI-659
aI-667
atp2782
Rp2783
ag14
((lp2784
I-720
aI-894
aI-42
aI-900
aI-915
atp2785
Rp2786
ag14
((lp2787
I-922
aI-889
aI-920
aI-919
aI-917
aI-916
aI-880
aI-908
aI-921
aI925
atp2788
Rp2789
ag14
((lp2790
I-922
aI-889
aI-919
aI924
aI-921
aI-916
atp2791
Rp2792
ag14
((lp2793
I-920
aI-880
aI-917
aI-772
atp2794
Rp2795
ag14
((lp2796
I-924
atp2797
Rp2798
ag14
((lp2799
I-924
atp2800
Rp2801
ag14
((lp2802
I-895
atp2803
Rp2804
ag14
((lp2805
I-923
atp2806
Rp2807
ag14
((lp2808
tp2809
Rp2810
ag14
((lp2811
tp2812
Rp2813
ag14
((lp2814
tp2815
Rp2816
ag14
((lp2817
I-932
atp2818
Rp2819
ag14
((lp2820
tp2821
Rp2822
ag14
((lp2823
tp2824
Rp2825
ag14
((lp2826
I-934
aI-909
atp2827
Rp2828
ag14
((lp2829
I-937
atp2830
Rp2831
ag14
((lp2832
I-735
atp2833
Rp2834
ag14
((lp2835
tp2836
Rp2837
ag14
((lp2838
tp2839
Rp2840
ag14
((lp2841
tp2842
Rp2843
ag14
((lp2844
tp2845
Rp2846
ag14
((lp2847
tp2848
Rp2849
ag14
((lp2850
tp2851
Rp2852
ag14
((lp2853
tp2854
Rp2855
ag14
((lp2856
I-884
atp2857
Rp2858
ag14
((lp2859
tp2860
Rp2861
ag14
((lp2862
tp2863
Rp2864
ag14
((lp2865
I-782
atp2866
Rp2867
ag14
((lp2868
I-887
atp2869
Rp2870
ag14
((lp2871
tp2872
Rp2873
ag14
((lp2874
tp2875
Rp2876
ag14
((lp2877
tp2878
Rp2879
ag14
((lp2880
I956
atp2881
Rp2882
ag14
((lp2883
I955
atp2884
Rp2885
ag14
((lp2886
tp2887
Rp2888
ag14
((lp2889
tp2890
Rp2891
ag14
((lp2892
tp2893
Rp2894
ag14
((lp2895
tp2896
Rp2897
ag14
((lp2898
tp2899
Rp2900
ag14
((lp2901
tp2902
Rp2903
ag14
((lp2904
tp2905
Rp2906
ag14
((lp2907
tp2908
Rp2909
ag14
((lp2910
tp2911
Rp2912
ag14
((lp2913
I-500
atp2914
Rp2915
ag14
((lp2916
tp2917
Rp2918
ag14
((lp2919
tp2920
Rp2921
ag14
((lp2922
tp2923
Rp2924
ag14
((lp2925
tp2926
Rp2927
ag14
((lp2928
tp2929
Rp2930
ag14
((lp2931
tp2932
Rp2933
ag14
((lp2934
I974
atp2935
Rp2936
ag14
((lp2937
I973
atp2938
Rp2939
ag14
((lp2940
tp2941
Rp2942
ag14
((lp2943
tp2944
Rp2945
ag14
((lp2946
tp2947
Rp2948
ag14
((lp2949
tp2950
Rp2951
ag14
((lp2952
tp2953
Rp2954
ag14
((lp2955
tp2956
Rp2957
ag14
((lp2958
tp2959
Rp2960
ag14
((lp2961
tp2962
Rp2963
ag14
((lp2964
tp2965
Rp2966
ag14
((lp2967
tp2968
Rp2969
ag14
((lp2970
tp2971
Rp2972
ag14
((lp2973
tp2974
Rp2975
ag14
((lp2976
I-985
atp2977
Rp2978
ag14
((lp2979
tp2980
Rp2981
ag14
((lp2982
I-762
atp2983
Rp2984
ag14
((lp2985
tp2986
Rp2987
ag14
((lp2988
I-989
atp2989
Rp2990
ag14
((lp2991
I-945
atp2992
Rp2993
ag14
((lp2994
tp2995
Rp2996
ag14
((lp2997
tp2998
Rp2999
ag14
((lp3000
tp3001
Rp3002
ag14
((lp3003
tp3004
Rp3005
ag14
((lp3006
tp3007
Rp3008
ag14
((lp3009
I999
atp3010
Rp3011
ag14
((lp3012
I998
atp3013
Rp3014
ag14
((lp3015
I1001
aI-914
atp3016
Rp3017
ag14
((lp3018
I1000
atp3019
Rp3020
ag14
((lp3021
I1003
atp3022
Rp3023
ag14
((lp3024
I1002
atp3025
Rp3026
ag14
((lp3027
tp3028
Rp3029
ag14
((lp3030
tp3031
Rp3032
ag14
((lp3033
tp3034
Rp3035
ag14
((lp3036
tp3037
Rp3038
ag14
((lp3039
tp3040
Rp3041
ag14
((lp3042
tp3043
Rp3044
ag14
((lp3045
tp3046
Rp3047
ag14
((lp3048
tp3049
Rp3050
ag14
((lp3051
tp3052
Rp3053
ag14
((lp3054
tp3055
Rp3056
ag14
((lp3057
tp3058
Rp3059
ag14
((lp3060
tp3061
Rp3062
ag14
((lp3063
tp3064
Rp3065
ag14
((lp3066
tp3067
Rp3068
ag14
((lp3069
tp3070
Rp3071
ag14
((lp3072
tp3073
Rp3074
ag14
((lp3075
tp3076
Rp3077
ag14
((lp3078
tp3079
Rp3080
ag14
((lp3081
tp3082
Rp3083
ag14
((lp3084
I1024
atp3085
Rp3086
ag14
((lp3087
I1023
atp3088
Rp3089
ag14
((lp3090
tp3091
Rp3092
ag14
((lp3093
tp3094
Rp3095
ag14
((lp3096
tp3097
Rp3098
ag14
((lp3099
tp3100
Rp3101
ag14
((lp3102
tp3103
Rp3104
ag14
((lp3105
tp3106
Rp3107
ag14
((lp3108
tp3109
Rp3110
ag14
((lp3111
tp3112
Rp3113
ag14
((lp3114
I-1030
atp3115
Rp3116
ag14
((lp3117
tp3118
Rp3119
ag14
((lp3120
tp3121
Rp3122
ag14
((lp3123
tp3124
Rp3125
ag14
((lp3126
tp3127
Rp3128
ag14
((lp3129
tp3130
Rp3131
ag14
((lp3132
tp3133
Rp3134
ag14
((lp3135
I1041
atp3136
Rp3137
ag14
((lp3138
I1040
atp3139
Rp3140
ag14
((lp3141
tp3142
Rp3143
ag14
((lp3144
tp3145
Rp3146
ag14
((lp3147
I-107
atp3148
Rp3149
ag14
((lp3150
tp3151
Rp3152
ag14
((lp3153
tp3154
Rp3155
ag14
((lp3156
tp3157
Rp3158
ag14
((lp3159
tp3160
Rp3161
ag14
((lp3162
tp3163
Rp3164
ag14
((lp3165
I-1049
atp3166
Rp3167
ag14
((lp3168
I1052
aI1054
atp3169
Rp3170
ag14
((lp3171
I1051
aI1054
atp3172
Rp3173
ag14
((lp3174
tp3175
Rp3176
ag14
((lp3177
I1051
aI1052
atp3178
Rp3179
ag14
((lp3180
I-438
atp3181
Rp3182
ag14
((lp3183
I-1046
atp3184
Rp3185
ag14
((lp3186
I1058
atp3187
Rp3188
ag14
((lp3189
I1057
atp3190
Rp3191
ag14
((lp3192
tp3193
Rp3194
ag14
((lp3195
tp3196
Rp3197
ag14
((lp3198
tp3199
Rp3200
ag14
((lp3201
tp3202
Rp3203
ag14
((lp3204
tp3205
Rp3206
ag14
((lp3207
tp3208
Rp3209
ag14
((lp3210
tp3211
Rp3212
ag14
((lp3213
I1068
atp3214
Rp3215
ag14
((lp3216
tp3217
Rp3218
ag14
((lp3219
I1066
atp3220
Rp3221
ag14
((lp3222
tp3223
Rp3224
ag14
((lp3225
I-1066
atp3226
Rp3227
ag14
((lp3228
tp3229
Rp3230
ag14
((lp3231
tp3232
Rp3233
ag14
((lp3234
tp3235
Rp3236
ag14
((lp3237
I1075
aI1076
atp3238
Rp3239
ag14
((lp3240
I1074
atp3241
Rp3242
ag14
((lp3243
I1074
atp3244
Rp3245
ag14
((lp3246
tp3247
Rp3248
ag14
((lp3249
tp3250
Rp3251
ag14
((lp3252
tp3253
Rp3254
ag14
((lp3255
tp3256
Rp3257
ag14
((lp3258
tp3259
Rp3260
ag14
((lp3261
I-1068
aI1083
aI1084
atp3262
Rp3263
ag14
((lp3264
I1082
aI1084
atp3265
Rp3266
ag14
((lp3267
I-1068
aI1082
aI1083
atp3268
Rp3269
ag14
((lp3270
tp3271
Rp3272
ag14
((lp3273
tp3274
Rp3275
ag14
((lp3276
tp3277
Rp3278
ag14
((lp3279
tp3280
Rp3281
ag14
((lp3282
tp3283
Rp3284
ag14
((lp3285
tp3286
Rp3287
ag14
((lp3288
tp3289
Rp3290
ag14
((lp3291
tp3292
Rp3293
ag14
((lp3294
tp3295
Rp3296
ag14
((lp3297
I-1056
atp3298
Rp3299
ag14
((lp3300
tp3301
Rp3302
ag14
((lp3303
tp3304
Rp3305
ag14
((lp3306
tp3307
Rp3308
ag14
((lp3309
tp3310
Rp3311
ag14
((lp3312
I-1094
aI-94
atp3313
Rp3314
ag14
((lp3315
tp3316
Rp3317
ag14
((lp3318
tp3319
Rp3320
ag14
((lp3321
tp3322
Rp3323
ag14
((lp3324
tp3325
Rp3326
ag14
((lp3327
tp3328
Rp3329
ag14
((lp3330
I-1084
atp3331
Rp3332
ag14
((lp3333
tp3334
Rp3335
ag14
((lp3336
I1112
aI1111
atp3337
Rp3338
ag14
((lp3339
I1110
atp3340
Rp3341
ag14
((lp3342
I1114
atp3343
Rp3344
ag14
((lp3345
I1108
atp3346
Rp3347
ag14
((lp3348
I1107
atp3349
Rp3350
ag14
((lp3351
I1107
atp3352
Rp3353
ag14
((lp3354
tp3355
Rp3356
ag14
((lp3357
I1109
aI-1102
atp3358
Rp3359
ag14
((lp3360
I1117
atp3361
Rp3362
ag14
((lp3363
tp3364
Rp3365
ag14
((lp3366
I1115
atp3367
Rp3368
ag14
((lp3369
I-1106
atp3370
Rp3371
ag14
((lp3372
I1120
aI-1107
atp3373
Rp3374
ag14
((lp3375
I-1107
aI1119
atp3376
Rp3377
ag14
((lp3378
tp3379
Rp3380
ag14
((lp3381
I1125
atp3382
Rp3383
ag14
((lp3384
tp3385
Rp3386
ag14
((lp3387
tp3388
Rp3389
ag14
((lp3390
I1122
atp3391
Rp3392
ag14
((lp3393
tp3394
Rp3395
ag14
((lp3396
I1128
atp3397
Rp3398
ag14
((lp3399
I1127
atp3400
Rp3401
ag14
((lp3402
I-1069
atp3403
Rp3404
ag14
((lp3405
I-1127
aI1132
aI1133
aI1134
atp3406
Rp3407
ag14
((lp3408
tp3409
Rp3410
ag14
((lp3411
I-1127
aI1130
aI1133
aI1134
atp3412
Rp3413
ag14
((lp3414
I-1127
aI1130
aI1132
aI1134
atp3415
Rp3416
ag14
((lp3417
I-1127
aI1130
aI1132
aI1133
atp3418
Rp3419
ag14
((lp3420
I1136
aI-1129
aI-1122
atp3421
Rp3422
ag14
((lp3423
I1135
aI-1122
aI-1129
atp3424
Rp3425
ag14
((lp3426
tp3427
Rp3428
ag14
((lp3429
I-1123
atp3430
Rp3431
ag14
((lp3432
I-1121
atp3433
Rp3434
ag14
((lp3435
I1142
aI1159
aI1162
aI1147
aI1148
aI-1137
atp3436
Rp3437
ag14
((lp3438
I1160
aI-1131
atp3439
Rp3440
ag14
((lp3441
I1159
aI1162
aI-1137
aI1140
aI1147
aI1148
aI1149
atp3442
Rp3443
ag14
((lp3444
I1154
aI1147
atp3445
Rp3446
ag14
((lp3447
I1147
atp3448
Rp3449
ag14
((lp3450
tp3451
Rp3452
ag14
((lp3453
I1155
aI1157
atp3454
Rp3455
ag14
((lp3456
I1154
aI1159
aI1160
aI1162
aI-1140
aI-1137
aI1140
aI1142
aI1143
aI1144
aI1148
aI1149
aI1150
atp3457
Rp3458
ag14
((lp3459
I1159
aI1160
aI1162
aI-1137
aI1140
aI1142
aI1147
atp3460
Rp3461
ag14
((lp3462
I1147
aI1142
aI1159
atp3463
Rp3464
ag14
((lp3465
I1147
atp3466
Rp3467
ag14
((lp3468
I1152
aI1161
aI-1108
atp3469
Rp3470
ag14
((lp3471
I1161
aI-1108
aI1151
atp3472
Rp3473
ag14
((lp3474
tp3475
Rp3476
ag14
((lp3477
I1147
aI1143
atp3478
Rp3479
ag14
((lp3480
I1146
aI1157
atp3481
Rp3482
ag14
((lp3483
I1158
atp3484
Rp3485
ag14
((lp3486
I1146
aI1155
atp3487
Rp3488
ag14
((lp3489
I1156
atp3490
Rp3491
ag14
((lp3492
I1162
aI-1137
aI1140
aI1142
aI1147
aI1148
aI1149
atp3493
Rp3494
ag14
((lp3495
I1147
aI1148
aI-1131
aI1141
atp3496
Rp3497
ag14
((lp3498
I1152
aI-1108
aI1151
atp3499
Rp3500
ag14
((lp3501
I1140
aI1142
aI1159
aI1147
aI1148
aI-1137
atp3502
Rp3503
ag14
((lp3504
I-1144
aI-1143
aI-1142
aI-1141
atp3505
Rp3506
ag14
((lp3507
I-1151
aI-1147
aI1166
aI1168
aI1169
aI-1132
aI1173
aI1174
aI1176
aI1178
aI1179
aI1180
aI1184
aI-1110
aI-714
aI-1153
atp3508
Rp3509
ag14
((lp3510
I-1150
aI-1149
aI-1148
aI-1109
aI1167
aI1170
aI1172
aI-1163
aI1175
aI1177
aI1181
aI1182
aI1183
atp3511
Rp3512
ag14
((lp3513
I-1151
aI-1147
aI-1146
aI1164
aI1168
aI1169
aI-1132
aI1173
aI1174
aI1179
aI1180
aI-1153
atp3514
Rp3515
ag14
((lp3516
I-1150
aI-1149
aI-1148
aI-1109
aI1165
aI1170
aI1172
aI-1163
aI1175
aI1177
aI1181
aI1182
aI1183
atp3517
Rp3518
ag14
((lp3519
I-1151
aI-1147
aI-1146
aI1164
aI1166
aI1169
aI-1132
aI1173
aI-714
aI1179
aI1180
aI1174
aI-1153
atp3520
Rp3521
ag14
((lp3522
I-1151
aI-1147
aI-1146
aI1164
aI1166
aI1168
aI-1132
aI1173
aI1174
aI1179
aI1180
aI-1153
atp3523
Rp3524
ag14
((lp3525
I-1150
aI-1149
aI-1148
aI-1147
aI1165
aI1167
aI1172
aI1175
aI1177
aI1178
aI1180
aI1181
aI1182
aI1183
aI-1110
aI-1109
aI-1163
atp3526
Rp3527
ag14
((lp3528
I-1164
atp3529
Rp3530
ag14
((lp3531
I-1150
aI-1149
aI-1148
aI-1109
aI1165
aI1167
aI1170
aI-1163
aI1175
aI1177
aI1181
aI1182
aI1183
atp3532
Rp3533
ag14
((lp3534
I-1151
aI-1147
aI1164
aI1166
aI1168
aI1169
aI-1132
aI-714
aI1179
aI1180
aI1174
aI-1153
atp3535
Rp3536
ag14
((lp3537
I-1151
aI-1147
aI-1146
aI1164
aI1166
aI1168
aI1169
aI-1132
aI1173
aI1179
aI1180
aI-1153
atp3538
Rp3539
ag14
((lp3540
I-1150
aI-1149
aI-1148
aI-1147
aI1165
aI1167
aI1170
aI1172
aI1177
aI1178
aI1180
aI1181
aI1182
aI1183
aI-1110
aI-1109
aI-1163
atp3541
Rp3542
ag14
((lp3543
I1184
aI-1147
aI-1110
aI1164
aI-714
aI1178
aI1179
aI1180
atp3544
Rp3545
ag14
((lp3546
I-1150
aI-1149
aI-1148
aI-1109
aI1165
aI1167
aI1170
aI1172
aI-1163
aI1175
aI1181
aI1182
aI1183
atp3547
Rp3548
ag14
((lp3549
I1184
aI-1147
aI-1110
aI1164
aI1170
aI-714
aI1175
aI1176
aI1179
aI1180
atp3550
Rp3551
ag14
((lp3552
I-1151
aI-1147
aI-1146
aI1164
aI1166
aI1168
aI1169
aI-1132
aI1173
aI1174
aI1176
aI1178
aI1180
aI1184
aI-1110
aI-714
aI-1153
atp3553
Rp3554
ag14
((lp3555
I-1151
aI-1147
aI1164
aI1166
aI1168
aI1169
aI1170
aI-1132
aI1173
aI1174
aI1175
aI1176
aI1178
aI1179
aI1184
aI-1110
aI-714
aI-1153
atp3556
Rp3557
ag14
((lp3558
I-1150
aI-1149
aI-1148
aI-1109
aI1165
aI1167
aI1170
aI1172
aI-1163
aI1175
aI1177
aI1182
aI1183
atp3559
Rp3560
ag14
((lp3561
I-1150
aI-1149
aI-1148
aI-1109
aI1165
aI1167
aI1170
aI1172
aI-1163
aI1175
aI1177
aI1181
aI1183
atp3562
Rp3563
ag14
((lp3564
I-1150
aI-1149
aI-1148
aI-1109
aI1165
aI1167
aI1170
aI1172
aI-1163
aI1175
aI1177
aI1181
aI1182
atp3565
Rp3566
ag14
((lp3567
I-1147
aI-1110
aI1164
aI-714
aI1176
aI1178
aI1179
aI1180
atp3568
Rp3569
ag14
((lp3570
I1186
aI-1165
atp3571
Rp3572
ag14
((lp3573
I1185
aI-1165
atp3574
Rp3575
ag14
((lp3576
tp3577
Rp3578
ag14
((lp3579
tp3580
Rp3581
ag14
((lp3582
I-1167
aI1194
aI1190
atp3583
Rp3584
ag14
((lp3585
I-1167
aI1195
aI1189
atp3586
Rp3587
ag14
((lp3588
I1193
aI-1171
aI-1170
aI-1105
aI-1168
aI-1188
aI-1186
atp3589
Rp3590
ag14
((lp3591
I-1168
aI-1188
atp3592
Rp3593
ag14
((lp3594
I1191
aI-1171
aI-1170
aI-1105
aI-1168
aI-1188
aI-1186
atp3595
Rp3596
ag14
((lp3597
I1189
atp3598
Rp3599
ag14
((lp3600
I-1166
aI1190
aI-1185
atp3601
Rp3602
ag14
((lp3603
I-1191
aI-1189
aI-1169
atp3604
Rp3605
ag14
((lp3606
tp3607
Rp3608
ag14
((lp3609
tp3610
Rp3611
ag14
((lp3612
I-1196
aI-1155
atp3613
Rp3614
ag14
((lp3615
I-1139
atp3616
Rp3617
ag14
((lp3618
I1202
atp3619
Rp3620
ag14
((lp3621
I1201
atp3622
Rp3623
ag14
((lp3624
I-1156
aI-442
atp3625
Rp3626
ag14
((lp3627
tp3628
Rp3629
ag14
((lp3630
tp3631
Rp3632
ag14
((lp3633
tp3634
Rp3635
ag14
((lp3636
I-1201
atp3637
Rp3638
ag14
((lp3639
I1209
atp3640
Rp3641
ag14
((lp3642
I1208
atp3643
Rp3644
ag14
((lp3645
I-1203
atp3646
Rp3647
ag14
((lp3648
I1212
atp3649
Rp3650
ag14
((lp3651
I1211
atp3652
Rp3653
ag14
((lp3654
tp3655
Rp3656
ag14
((lp3657
tp3658
Rp3659
ag14
((lp3660
I-1053
atp3661
Rp3662
ag14
((lp3663
tp3664
Rp3665
ag14
((lp3666
tp3667
Rp3668
ag14
((lp3669
I-1157
atp3670
Rp3671
ag14
((lp3672
I-1215
aI1220
aI1221
aI-1159
aI-1173
aI-1124
atp3673
Rp3674
ag14
((lp3675
I-1215
aI1219
aI1221
aI-1159
aI-1173
aI-1124
atp3676
Rp3677
ag14
((lp3678
I-1215
aI1219
aI1220
aI-1209
aI-1175
aI-1174
aI1223
aI-1173
aI-1158
aI-1124
atp3679
Rp3680
ag14
((lp3681
I-1175
aI-1174
aI-1158
aI1223
atp3682
Rp3683
ag14
((lp3684
I1221
aI1222
aI-1209
aI-1175
aI-1174
aI-1158
atp3685
Rp3686
ag14
((lp3687
I-1160
aI1225
atp3688
Rp3689
ag14
((lp3690
I-1160
aI1224
atp3691
Rp3692
ag14
((lp3693
I-1218
atp3694
Rp3695
ag14
((lp3696
I-1221
aI-1194
aI-1177
aI-1176
aI-1111
aI1229
atp3697
Rp3698
ag14
((lp3699
I-1216
aI-1220
aI1230
aI-1161
atp3700
Rp3701
ag14
((lp3702
I1227
aI-1194
aI-1177
aI-1111
aI-1222
aI-1221
atp3703
Rp3704
ag14
((lp3705
I-1216
aI1228
aI-1161
atp3706
Rp3707
ag14
((lp3708
I-1227
atp3709
Rp3710
ag14
((lp3711
I1233
aI1234
aI-1227
aI-1119
atp3712
Rp3713
ag14
((lp3714
I1232
aI-1119
aI1234
aI-1227
atp3715
Rp3716
ag14
((lp3717
I1232
aI1233
aI-1227
aI-1119
atp3718
Rp3719
ag14
((lp3720
I-1228
aI-1219
atp3721
Rp3722
ag14
((lp3723
I-1120
aI-1182
aI-1181
aI-1180
aI-1179
aI-1230
aI-1198
aI-1223
aI-1217
atp3724
Rp3725
ag14
((lp3726
I-1180
aI-963
atp3727
Rp3728
ag14
((lp3729
I-1205
atp3730
Rp3731
ag14
((lp3732
tp3733
Rp3734
ag14
((lp3735
tp3736
Rp3737
ag14
((lp3738
tp3739
Rp3740
ag14
((lp3741
tp3742
Rp3743
ag14
((lp3744
tp3745
Rp3746
ag14
((lp3747
tp3748
Rp3749
ag14
((lp3750
I-1134
atp3751
Rp3752
ag14
((lp3753
I-1079
atp3754
Rp3755
ag14
((lp3756
tp3757
Rp3758
ag14
((lp3759
tp3760
Rp3761
ag14
((lp3762
tp3763
Rp3764
ag14
((lp3765
I-1214
atp3766
Rp3767
ag14
((lp3768
tp3769
Rp3770
ag14
((lp3771
tp3772
Rp3773
ag14
((lp3774
tp3775
Rp3776
ag14
((lp3777
tp3778
Rp3779
ag14
((lp3780
tp3781
Rp3782
ag14
((lp3783
tp3784
Rp3785
ag14
((lp3786
tp3787
Rp3788
ag14
((lp3789
tp3790
Rp3791
ag14
((lp3792
tp3793
Rp3794
ag14
((lp3795
I-396
aI-721
atp3796
Rp3797
ag14
((lp3798
tp3799
Rp3800
ag14
((lp3801
I-1103
atp3802
Rp3803
ag14
((lp3804
tp3805
Rp3806
ag14
((lp3807
tp3808
Rp3809
ag14
((lp3810
tp3811
Rp3812
ag14
((lp3813
tp3814
Rp3815
ag14
((lp3816
tp3817
Rp3818
ag14
((lp3819
tp3820
Rp3821
ag14
((lp3822
tp3823
Rp3824
ag14
((lp3825
tp3826
Rp3827
ag14
((lp3828
I-1267
atp3829
Rp3830
ag14
((lp3831
tp3832
Rp3833
ag14
((lp3834
tp3835
Rp3836
ag14
((lp3837
I-1272
atp3838
Rp3839
ag14
((lp3840
tp3841
Rp3842
ag14
((lp3843
tp3844
Rp3845
ag14
((lp3846
tp3847
Rp3848
ag14
((lp3849
tp3850
Rp3851
ag14
((lp3852
tp3853
Rp3854
ag14
((lp3855
tp3856
Rp3857
ag14
((lp3858
I-1279
aI-1238
atp3859
Rp3860
ag14
((lp3861
I-1279
atp3862
Rp3863
ag14
((lp3864
tp3865
Rp3866
ag14
((lp3867
tp3868
Rp3869
ag14
((lp3870
I1286
atp3871
Rp3872
ag14
((lp3873
I1285
atp3874
Rp3875
ag14
((lp3876
tp3877
Rp3878
ag14
((lp3879
tp3880
Rp3881
ag14
((lp3882
tp3883
Rp3884
ag14
((lp3885
tp3886
Rp3887
ag14
((lp3888
tp3889
Rp3890
ag14
((lp3891
tp3892
Rp3893
ag14
((lp3894
tp3895
Rp3896
ag14
((lp3897
I-1273
aI1295
atp3898
Rp3899
ag14
((lp3900
I-1273
aI1294
atp3901
Rp3902
ag14
((lp3903
I-1114
atp3904
Rp3905
ag14
((lp3906
tp3907
Rp3908
ag14
((lp3909
I-1266
atp3910
Rp3911
ag14
((lp3912
tp3913
Rp3914
ag14
((lp3915
tp3916
Rp3917
ag14
((lp3918
tp3919
Rp3920
ag14
((lp3921
I-1282
atp3922
Rp3923
ag14
((lp3924
tp3925
Rp3926
ag14
((lp3927
tp3928
Rp3929
ag14
((lp3930
I-1072
aI-1303
atp3931
Rp3932
ag14
((lp3933
tp3934
Rp3935
ag14
((lp3936
tp3937
Rp3938
ag14
((lp3939
I-1291
aI1309
atp3940
Rp3941
ag14
((lp3942
I1308
aI-1291
atp3943
Rp3944
ag14
((lp3945
I-1307
atp3946
Rp3947
ag14
((lp3948
tp3949
Rp3950
ag14
((lp3951
tp3952
Rp3953
ag14
((lp3954
tp3955
Rp3956
ag14
((lp3957
I-1299
atp3958
Rp3959
ag14
((lp3960
tp3961
Rp3962
ag14
((lp3963
tp3964
Rp3965
ag14
((lp3966
tp3967
Rp3968
ag14
((lp3969
tp3970
Rp3971
ag14
((lp3972
tp3973
Rp3974
ag14
((lp3975
tp3976
Rp3977
ag14
((lp3978
tp3979
Rp3980
ag14
((lp3981
tp3982
Rp3983
ag14
((lp3984
tp3985
Rp3986
ag14
((lp3987
tp3988
Rp3989
ag14
((lp3990
tp3991
Rp3992
ag14
((lp3993
I1327
atp3994
Rp3995
ag14
((lp3996
I1326
atp3997
Rp3998
ag14
((lp3999
I-1252
atp4000
Rp4001
ag14
((lp4002
tp4003
Rp4004
ag14
((lp4005
tp4006
Rp4007
ag14
((lp4008
tp4009
Rp4010
ag14
((lp4011
tp4012
Rp4013
ag14
((lp4014
tp4015
Rp4016
ag14
((lp4017
I-1288
aI-1332
aI-1331
atp4018
Rp4019
ag14
((lp4020
tp4021
Rp4022
ag14
((lp4023
tp4024
Rp4025
ag14
((lp4026
I1338
atp4027
Rp4028
ag14
((lp4029
I1337
atp4030
Rp4031
ag14
((lp4032
tp4033
Rp4034
ag14
((lp4035
tp4036
Rp4037
ag14
((lp4038
tp4039
Rp4040
ag14
((lp4041
tp4042
Rp4043
ag14
((lp4044
tp4045
Rp4046
ag14
((lp4047
tp4048
Rp4049
ag14
((lp4050
tp4051
Rp4052
ag14
((lp4053
tp4054
Rp4055
ag14
((lp4056
tp4057
Rp4058
ag14
((lp4059
tp4060
Rp4061
ag14
((lp4062
tp4063
Rp4064
ag14
((lp4065
tp4066
Rp4067
ag14
((lp4068
tp4069
Rp4070
ag14
((lp4071
tp4072
Rp4073
ag14
((lp4074
tp4075
Rp4076
ag14
((lp4077
I-1089
atp4078
Rp4079
ag14
((lp4080
tp4081
Rp4082
ag14
((lp4083
tp4084
Rp4085
ag14
((lp4086
tp4087
Rp4088
ag14
((lp4089
tp4090
Rp4091
ag14
((lp4092
tp4093
Rp4094
ag14
((lp4095
tp4096
Rp4097
ag14
((lp4098
tp4099
Rp4100
ag14
((lp4101
tp4102
Rp4103
ag14
((lp4104
tp4105
Rp4106
ag14
((lp4107
tp4108
Rp4109
ag14
((lp4110
tp4111
Rp4112
ag14
((lp4113
I-1316
atp4114
Rp4115
ag14
((lp4116
I-1260
aI-1313
atp4117
Rp4118
ag14
((lp4119
tp4120
Rp4121
ag14
((lp4122
I-1288
aI-1331
aI1334
atp4123
Rp4124
ag14
((lp4125
I-1288
aI-1332
aI1334
atp4126
Rp4127
ag14
((lp4128
tp4129
Rp4130
ag14
((lp4131
tp4132
Rp4133
ag14
((lp4134
tp4135
Rp4136
ag14
((lp4137
tp4138
Rp4139
ag14
((lp4140
I-1306
atp4141
Rp4142
ag14
((lp4143
tp4144
Rp4145
ag14
((lp4146
tp4147
Rp4148
ag14
((lp4149
tp4150
Rp4151
ag14
((lp4152
I-1070
atp4153
Rp4154
ag14
((lp4155
tp4156
Rp4157
ag14
((lp4158
tp4159
Rp4160
ag14
((lp4161
tp4162
Rp4163
ag14
((lp4164
tp4165
Rp4166
ag14
((lp4167
tp4168
Rp4169
ag14
((lp4170
I-1335
atp4171
Rp4172
ag14
((lp4173
tp4174
Rp4175
ag14
((lp4176
tp4177
Rp4178
ag14
((lp4179
I-1334
atp4180
Rp4181
ag14
((lp4182
tp4183
Rp4184
ag14
((lp4185
tp4186
Rp4187
ag14
((lp4188
tp4189
Rp4190
ag14
((lp4191
tp4192
Rp4193
ag14
((lp4194
tp4195
Rp4196
ag14
((lp4197
I1310
atp4198
Rp4199
ag14
((lp4200
I-1326
atp4201
Rp4202
ag14
((lp4203
tp4204
Rp4205
ag14
((lp4206
I-1277
atp4207
Rp4208
ag14
((lp4209
I-1072
aI1305
atp4210
Rp4211
ag14
((lp4212
I-560
atp4213
Rp4214
ag14
((lp4215
tp4216
Rp4217
ag14
((lp4218
tp4219
Rp4220
ag14
((lp4221
I1314
atp4222
Rp4223
ag14
((lp4224
tp4225
Rp4226
ag14
((lp4227
tp4228
Rp4229
ag14
((lp4230
tp4231
Rp4232
ag14
((lp4233
I-1268
atp4234
Rp4235
ag14
((lp4236
tp4237
Rp4238
ag14
((lp4239
tp4240
Rp4241
ag14
((lp4242
I-1286
atp4243
Rp4244
ag14
((lp4245
I1308
aI1309
atp4246
Rp4247
ag14
((lp4248
I-1274
atp4249
Rp4250
ag14
((lp4251
tp4252
Rp4253
ag14
((lp4254
I-1332
aI-1331
aI1334
atp4255
Rp4256
ag14
((lp4257
tp4258
Rp4259
ag14
((lp4260
I-1292
atp4261
Rp4262
ag14
((lp4263
tp4264
Rp4265
ag14
((lp4266
tp4267
Rp4268
ag14
((lp4269
tp4270
Rp4271
ag14
((lp4272
I1302
atp4273
Rp4274
ag14
((lp4275
tp4276
Rp4277
ag14
((lp4278
tp4279
Rp4280
ag14
((lp4281
I1282
aI1281
atp4282
Rp4283
ag14
((lp4284
tp4285
Rp4286
ag14
((lp4287
I-1304
atp4288
Rp4289
ag14
((lp4290
tp4291
Rp4292
ag14
((lp4293
tp4294
Rp4295
ag14
((lp4296
I-1290
atp4297
Rp4298
ag14
((lp4299
I1294
aI1295
atp4300
Rp4301
ag14
((lp4302
I1274
atp4303
Rp4304
ag14
((lp4305
I-1200
atp4306
Rp4307
ag14
((lp4308
tp4309
Rp4310
ag14
((lp4311
tp4312
Rp4313
ag14
((lp4314
I-1295
atp4315
Rp4316
ag14
((lp4317
I1271
atp4318
Rp4319
ag14
((lp4320
I1298
atp4321
Rp4322
ag14
((lp4323
tp4324
Rp4325
ag14
((lp4326
I-1101
atp4327
Rp4328
ag14
((lp4329
tp4330
Rp4331
ag14
((lp4332
tp4333
Rp4334
ag14
((lp4335
tp4336
Rp4337
ag14
((lp4338
I-1334
atp4339
Rp4340
ag14
((lp4341
tp4342
Rp4343
ag14
((lp4344
tp4345
Rp4346
ag14
((lp4347
tp4348
Rp4349
ag14
((lp4350
tp4351
Rp4352
ag14
((lp4353
tp4354
Rp4355
ag14
((lp4356
tp4357
Rp4358
ag14
((lp4359
tp4360
Rp4361
ag14
((lp4362
I1328
atp4363
Rp4364
ag14
((lp4365
tp4366
Rp4367
ag14
((lp4368
tp4369
Rp4370
ag14
((lp4371
tp4372
Rp4373
ag14
((lp4374
tp4375
Rp4376
ag14
((lp4377
tp4378
Rp4379
ag14
((lp4380
tp4381
Rp4382
ag14
((lp4383
tp4384
Rp4385
ag14
((lp4386
tp4387
Rp4388
ag14
((lp4389
tp4390
Rp4391
ag14
((lp4392
tp4393
Rp4394
ag14
((lp4395
tp4396
Rp4397
ag14
((lp4398
I-1125
atp4399
Rp4400
ag14
((lp4401
I-1207
atp4402
Rp4403
ag14
((lp4404
I1281
atp4405
Rp4406
ag14
((lp4407
tp4408
Rp4409
ag14
((lp4410
I-1234
atp4411
Rp4412
ag14
((lp4413
I-1183
aI-1179
aI-1210
aI-1233
aI-1230
aI-1195
aI-1162
aI-1223
atp4414
Rp4415
ag14
((lp4416
I-1236
atp4417
Rp4418
ag14
((lp4419
I-1183
aI-1179
aI-1210
aI-1235
aI-1230
aI-1195
aI-1162
aI-1223
atp4420
Rp4421
ag14
((lp4422
I-1229
aI-1178
atp4423
Rp4424
ag14
((lp4425
tp4426
Rp4427
ag14
((lp4428
I-1120
aI-1183
aI-1182
aI-1180
aI-1179
aI-1210
aI-1235
aI-1233
aI1236
aI-1195
aI-1162
aI-1223
aI-1217
atp4429
Rp4430
ag14
((lp4431
I-1232
aI-1178
atp4432
Rp4433
ag14
((lp4434
I1235
aI-1225
atp4435
Rp4436
ag14
((lp4437
I1232
aI1233
aI1234
aI-1119
aI1231
atp4438
Rp4439
ag14
((lp4440
tp4441
Rp4442
ag14
((lp4443
I-1228
atp4444
Rp4445
ag14
((lp4446
I-1220
atp4447
Rp4448
ag14
((lp4449
I-1183
aI-1182
aI-1179
aI-1210
aI-1235
aI-1233
aI-1230
aI1236
aI-1195
aI-1162
atp4450
Rp4451
ag14
((lp4452
I1229
atp4453
Rp4454
ag14
((lp4455
I-1194
aI-1177
aI-1176
aI-1111
aI1227
aI1229
atp4456
Rp4457
ag14
((lp4458
I-1224
aI1228
atp4459
Rp4460
ag14
((lp4461
I1235
atp4462
Rp4463
ag14
((lp4464
I1226
aI-1133
atp4465
Rp4466
ag14
((lp4467
I-1120
aI-1182
aI-1181
aI-1180
aI-1198
aI-1230
aI1236
atp4468
Rp4469
ag14
((lp4470
I1228
aI1230
aI-1161
atp4471
Rp4472
ag14
((lp4473
I1219
aI1220
aI1221
aI-1159
aI-1173
aI-1124
atp4474
Rp4475
ag14
((lp4476
I1250
atp4477
Rp4478
ag14
((lp4479
I-1208
aI-1211
aI-1193
atp4480
Rp4481
ag14
((lp4482
tp4483
Rp4484
ag14
((lp4485
I-1213
aI-1193
atp4486
Rp4487
ag14
((lp4488
I-1183
aI-1179
aI-1235
aI-1233
aI-1230
aI-1195
aI-1162
aI-1223
atp4489
Rp4490
ag14
((lp4491
I1221
aI1223
aI-1175
aI-1158
aI-1174
atp4492
Rp4493
ag14
((lp4494
I-1213
aI-1193
atp4495
Rp4496
ag14
((lp4497
I-1239
atp4498
Rp4499
ag14
((lp4500
tp4501
Rp4502
ag14
((lp4503
I1238
atp4504
Rp4505
ag14
((lp4506
tp4507
Rp4508
ag14
((lp4509
I1210
atp4510
Rp4511
ag14
((lp4512
tp4513
Rp4514
ag14
((lp4515
I1207
atp4516
Rp4517
ag14
((lp4518
I-1271
atp4519
Rp4520
ag14
((lp4521
tp4522
Rp4523
ag14
((lp4524
I-1120
aI-1181
aI-1180
aI1236
aI-1217
atp4525
Rp4526
ag14
((lp4527
tp4528
Rp4529
ag14
((lp4530
I-1172
aI1199
atp4531
Rp4532
ag14
((lp4533
I-1183
aI-1179
aI-1210
aI-1235
aI-1233
aI-1230
aI-1162
aI-1223
atp4534
Rp4535
ag14
((lp4536
I-1221
aI-1177
aI-1176
aI-1111
aI1227
aI1229
atp4537
Rp4538
ag14
((lp4539
I-1208
aI-1213
aI-1211
atp4540
Rp4541
ag14
((lp4542
tp4543
Rp4544
ag14
((lp4545
I-1189
aI1196
aI-1169
atp4546
Rp4547
ag14
((lp4548
I-1154
atp4549
Rp4550
ag14
((lp4551
I-1191
aI1196
aI-1169
atp4552
Rp4553
ag14
((lp4554
I1191
aI1192
aI1193
aI-1171
aI-1170
aI-1105
aI-1168
aI-1186
atp4555
Rp4556
ag14
((lp4557
tp4558
Rp4559
ag14
((lp4560
I1191
aI1193
aI-1171
aI-1170
aI-1105
aI-1168
aI-1188
atp4561
Rp4562
ag14
((lp4563
I-1166
aI1195
atp4564
Rp4565
ag14
((lp4566
tp4567
Rp4568
ag14
((lp4569
I-1179
aI-1210
aI-1235
aI-1233
aI-1230
aI-1195
aI-1162
aI-1223
atp4570
Rp4571
ag14
((lp4572
I-1120
aI-1180
aI-1179
aI-1230
aI1236
aI-1223
aI-1217
atp4573
Rp4574
ag14
((lp4575
I-1120
aI-1198
aI1236
aI-1180
aI-1217
atp4576
Rp4577
ag14
((lp4578
I-1120
aI-1182
aI-1181
aI-1230
aI-1198
aI1236
aI1237
aI-963
aI-1217
atp4579
Rp4580
ag14
((lp4581
I-1183
aI-1182
aI-1210
aI-1235
aI-1233
aI-1230
aI1236
aI-1195
aI-1162
aI-1223
atp4582
Rp4583
ag14
((lp4584
I-1232
aI-1229
atp4585
Rp4586
ag14
((lp4587
I1227
aI-1194
aI-1176
aI-1111
aI-1221
aI1229
atp4588
Rp4589
ag14
((lp4590
I-1221
aI-1194
aI1227
aI-1177
atp4591
Rp4592
ag14
((lp4593
I1221
aI1222
aI1223
aI-1158
aI-1209
aI-1174
atp4594
Rp4595
ag14
((lp4596
I1221
aI1222
aI-1209
aI-1175
aI-1158
aI1223
atp4597
Rp4598
ag14
((lp4599
I-1215
aI1219
aI1220
aI1221
aI-1159
aI-1124
atp4600
Rp4601
ag14
((lp4602
I-1196
atp4603
Rp4604
ag14
((lp4605
I1191
aI1193
aI-1170
aI-1105
aI-1168
aI-1188
aI-1186
atp4606
Rp4607
ag14
((lp4608
I1191
aI1193
aI-1171
aI-1105
aI-1168
aI-1188
aI-1186
atp4609
Rp4610
ag14
((lp4611
I-1191
aI-1189
aI1196
atp4612
Rp4613
ag14
((lp4614
I1191
aI1192
aI1193
aI-1171
aI-1170
aI-1105
aI-1188
aI-1186
atp4615
Rp4616
ag14
((lp4617
I1189
aI1190
atp4618
Rp4619
ag14
((lp4620
I1195
aI-1185
atp4621
Rp4622
ag14
((lp4623
I1185
aI1186
atp4624
Rp4625
ag14
((lp4626
I1171
atp4627
Rp4628
ag14
((lp4629
I-1150
aI-1149
aI-1148
aI-1109
aI1165
aI1167
aI1170
aI1172
aI1175
aI1177
aI1181
aI1182
aI1183
atp4630
Rp4631
ag14
((lp4632
I-1183
aI-1179
aI-1210
aI-1235
aI-1233
aI-1230
aI-1195
aI-1223
atp4633
Rp4634
ag14
((lp4635
I-1216
aI1228
aI1230
atp4636
Rp4637
ag14
((lp4638
I1224
aI1225
atp4639
Rp4640
ag14
((lp4641
I-1215
aI1219
aI1220
aI-1173
aI-1124
atp4642
Rp4643
ag14
((lp4644
I1221
aI1222
aI1223
aI-1175
aI-1174
aI-1209
atp4645
Rp4646
ag14
((lp4647
I1218
atp4648
Rp4649
ag14
((lp4650
I1203
aI-442
atp4651
Rp4652
ag14
((lp4653
I1199
atp4654
Rp4655
ag14
((lp4656
I-1190
atp4657
Rp4658
ag14
((lp4659
I-1151
aI-1147
aI-1146
aI1164
aI1166
aI1168
aI1169
aI-1132
aI1173
aI1174
aI1179
aI1180
atp4660
Rp4661
ag14
((lp4662
tp4663
Rp4664
ag14
((lp4665
I-1147
aI-1146
aI1164
aI1166
aI1168
aI1169
aI-1132
aI1173
aI1174
aI1179
aI1180
aI-1153
atp4666
Rp4667
ag14
((lp4668
I-1149
aI-1148
aI-1109
aI1165
aI1167
aI1170
aI1172
aI-1163
aI1175
aI1177
aI1181
aI1182
aI1183
atp4669
Rp4670
ag14
((lp4671
I-1150
aI-1148
aI-1109
aI1165
aI1167
aI1170
aI1172
aI-1163
aI1175
aI1177
aI1181
aI1182
aI1183
atp4672
Rp4673
ag14
((lp4674
I-1150
aI-1149
aI-1109
aI1165
aI1167
aI1170
aI1172
aI-1163
aI1175
aI1177
aI1181
aI1182
aI1183
atp4675
Rp4676
ag14
((lp4677
I-1151
aI-1146
aI-1145
aI1164
aI1166
aI1168
aI1169
aI1170
aI-1132
aI1173
aI1174
aI1175
aI1176
aI1178
aI1179
aI1180
aI1184
aI-1110
aI-714
aI-1153
atp4678
Rp4679
ag14
((lp4680
I-1151
aI-1147
aI1166
aI1168
aI1169
aI1174
aI1179
aI-1153
atp4681
Rp4682
ag14
((lp4683
I-1147
atp4684
Rp4685
ag14
((lp4686
I-1143
aI-1142
aI1163
aI-1141
atp4687
Rp4688
ag14
((lp4689
I-1144
aI-1142
aI1163
aI-1141
atp4690
Rp4691
ag14
((lp4692
I-1144
aI-1143
aI-1141
aI1163
atp4693
Rp4694
ag14
((lp4695
I-1144
aI-1143
aI-1142
aI1163
atp4696
Rp4697
ag14
((lp4698
I1147
atp4699
Rp4700
ag14
((lp4701
I1200
atp4702
Rp4703
ag14
((lp4704
I-1032
atp4705
Rp4706
ag14
((lp4707
I1140
aI1142
aI1159
aI1162
aI1147
aI1148
atp4708
Rp4709
ag14
((lp4710
tp4711
Rp4712
ag14
((lp4713
tp4714
Rp4715
ag14
((lp4716
I1245
atp4717
Rp4718
ag14
((lp4719
I-1218
atp4720
Rp4721
ag14
((lp4722
I-1151
aI-1147
aI1164
aI1166
aI1168
aI1169
aI1173
aI-714
aI1179
aI1180
aI1174
aI-1153
atp4723
Rp4724
ag14
((lp4725
I1160
aI1141
atp4726
Rp4727
ag14
((lp4728
tp4729
Rp4730
ag14
((lp4731
I1136
aI1135
aI-1122
atp4732
Rp4733
ag14
((lp4734
tp4735
Rp4736
ag14
((lp4737
I1130
aI1132
aI1133
aI1134
atp4738
Rp4739
ag14
((lp4740
tp4741
Rp4742
ag14
((lp4743
I-1240
atp4744
Rp4745
ag14
((lp4746
I-1215
aI1219
aI1220
aI1221
aI-1159
aI-1173
atp4747
Rp4748
ag14
((lp4749
I1138
atp4750
Rp4751
ag14
((lp4752
I1136
aI1135
aI-1129
atp4753
Rp4754
ag14
((lp4755
I1139
atp4756
Rp4757
ag14
((lp4758
I-1182
aI-1181
aI-1180
aI-1198
aI-1230
aI1236
aI-1217
atp4759
Rp4760
ag14
((lp4761
I1232
aI1233
aI1234
aI-1227
atp4762
Rp4763
ag14
((lp4764
tp4765
Rp4766
ag14
((lp4767
tp4768
Rp4769
ag14
((lp4770
tp4771
Rp4772
ag14
((lp4773
tp4774
Rp4775
ag14
((lp4776
I1296
atp4777
Rp4778
ag14
((lp4779
tp4780
Rp4781
ag14
((lp4782
I-346
atp4783
Rp4784
ag14
((lp4785
I-1221
aI-1194
aI-1177
aI1227
aI1229
atp4786
Rp4787
ag14
((lp4788
I1184
aI-1147
aI1164
aI1170
aI-714
aI1175
aI1176
aI1178
aI1179
aI1180
atp4789
Rp4790
ag14
((lp4791
I-1150
aI-1149
aI-1148
aI1165
aI1167
aI1170
aI1172
aI-1163
aI1175
aI1177
aI1181
aI1182
aI1183
atp4792
Rp4793
ag14
((lp4794
I1152
aI1161
aI1151
atp4795
Rp4796
ag14
((lp4797
I1120
aI1119
atp4798
Rp4799
ag14
((lp4800
I1118
atp4801
Rp4802
ag14
((lp4803
I1191
aI1193
aI-1171
aI-1170
aI-1168
aI-1188
aI-1186
atp4804
Rp4805
ag14
((lp4806
tp4807
Rp4808
ag14
((lp4809
I1262
atp4810
Rp4811
ag14
((lp4812
I1114
atp4813
Rp4814
ag14
((lp4815
I-1264
atp4816
Rp4817
ag14
((lp4818
tp4819
Rp4820
ag14
((lp4821
tp4822
Rp4823
ag14
((lp4824
tp4825
Rp4826
ag14
((lp4827
tp4828
Rp4829
ag14
((lp4830
tp4831
Rp4832
ag14
((lp4833
tp4834
Rp4835
ag14
((lp4836
I-94
aI1099
atp4837
Rp4838
ag14
((lp4839
tp4840
Rp4841
ag14
((lp4842
tp4843
Rp4844
ag14
((lp4845
tp4846
Rp4847
ag14
((lp4848
tp4849
Rp4850
ag14
((lp4851
I-1347
atp4852
Rp4853
ag14
((lp4854
I-565
atp4855
Rp4856
ag14
((lp4857
tp4858
Rp4859
ag14
((lp4860
tp4861
Rp4862
ag14
((lp4863
tp4864
Rp4865
ag14
((lp4866
I1105
atp4867
Rp4868
ag14
((lp4869
tp4870
Rp4871
ag14
((lp4872
tp4873
Rp4874
ag14
((lp4875
tp4876
Rp4877
ag14
((lp4878
tp4879
Rp4880
ag14
((lp4881
I1246
atp4882
Rp4883
ag14
((lp4884
tp4885
Rp4886
ag14
((lp4887
I-890
atp4888
Rp4889
ag14
((lp4890
tp4891
Rp4892
ag14
((lp4893
tp4894
Rp4895
ag14
((lp4896
tp4897
Rp4898
ag14
((lp4899
tp4900
Rp4901
ag14
((lp4902
I1305
aI-1303
atp4903
Rp4904
ag14
((lp4905
tp4906
Rp4907
ag14
((lp4908
I-1322
atp4909
Rp4910
ag14
((lp4911
I1129
atp4912
Rp4913
ag14
((lp4914
I1082
aI1084
atp4915
Rp4916
ag14
((lp4917
tp4918
Rp4919
ag14
((lp4920
I1070
atp4921
Rp4922
ag14
((lp4923
tp4924
Rp4925
ag14
((lp4926
tp4927
Rp4928
ag14
((lp4929
tp4930
Rp4931
ag14
((lp4932
tp4933
Rp4934
ag14
((lp4935
tp4936
Rp4937
ag14
((lp4938
tp4939
Rp4940
ag14
((lp4941
tp4942
Rp4943
ag14
((lp4944
tp4945
Rp4946
ag14
((lp4947
tp4948
Rp4949
ag14
((lp4950
I1094
atp4951
Rp4952
ag14
((lp4953
tp4954
Rp4955
ag14
((lp4956
tp4957
Rp4958
ag14
((lp4959
I1215
atp4960
Rp4961
ag14
((lp4962
tp4963
Rp4964
ag14
((lp4965
tp4966
Rp4967
ag14
((lp4968
I-1043
atp4969
Rp4970
ag14
((lp4971
I1050
atp4972
Rp4973
ag14
((lp4974
tp4975
Rp4976
ag14
((lp4977
tp4978
Rp4979
ag14
((lp4980
I1056
atp4981
Rp4982
ag14
((lp4983
I-863
aI-1044
atp4984
Rp4985
ag14
((lp4986
I-863
aI-1045
atp4987
Rp4988
ag14
((lp4989
I-1050
atp4990
Rp4991
ag14
((lp4992
tp4993
Rp4994
ag14
((lp4995
tp4996
Rp4997
ag14
((lp4998
tp4999
Rp5000
ag14
((lp5001
tp5002
Rp5003
ag14
((lp5004
tp5005
Rp5006
ag14
((lp5007
tp5008
Rp5009
ag14
((lp5010
tp5011
Rp5012
ag14
((lp5013
tp5014
Rp5015
ag14
((lp5016
tp5017
Rp5018
ag14
((lp5019
tp5020
Rp5021
ag14
((lp5022
I-1138
atp5023
Rp5024
ag14
((lp5025
tp5026
Rp5027
ag14
((lp5028
I1033
atp5029
Rp5030
ag14
((lp5031
I-120
atp5032
Rp5033
ag14
((lp5034
tp5035
Rp5036
ag14
((lp5037
tp5038
Rp5039
ag14
((lp5040
tp5041
Rp5042
ag14
((lp5043
tp5044
Rp5045
ag14
((lp5046
tp5047
Rp5048
ag14
((lp5049
tp5050
Rp5051
ag14
((lp5052
tp5053
Rp5054
ag14
((lp5055
tp5056
Rp5057
ag14
((lp5058
tp5059
Rp5060
ag14
((lp5061
tp5062
Rp5063
ag14
((lp5064
tp5065
Rp5066
ag14
((lp5067
tp5068
Rp5069
ag14
((lp5070
tp5071
Rp5072
ag14
((lp5073
I-1014
atp5074
Rp5075
ag14
((lp5076
I-1015
atp5077
Rp5078
ag14
((lp5079
tp5080
Rp5081
ag14
((lp5082
tp5083
Rp5084
ag14
((lp5085
tp5086
Rp5087
ag14
((lp5088
tp5089
Rp5090
ag14
((lp5091
tp5092
Rp5093
ag14
((lp5094
tp5095
Rp5096
ag14
((lp5097
tp5098
Rp5099
ag14
((lp5100
tp5101
Rp5102
ag14
((lp5103
tp5104
Rp5105
ag14
((lp5106
tp5107
Rp5108
ag14
((lp5109
tp5110
Rp5111
ag14
((lp5112
tp5113
Rp5114
ag14
((lp5115
tp5116
Rp5117
ag14
((lp5118
tp5119
Rp5120
ag14
((lp5121
tp5122
Rp5123
ag14
((lp5124
tp5125
Rp5126
ag14
((lp5127
tp5128
Rp5129
ag14
((lp5130
tp5131
Rp5132
ag14
((lp5133
tp5134
Rp5135
ag14
((lp5136
tp5137
Rp5138
ag14
((lp5139
tp5140
Rp5141
ag14
((lp5142
I-983
atp5143
Rp5144
ag14
((lp5145
I-971
aI-977
atp5146
Rp5147
ag14
((lp5148
tp5149
Rp5150
ag14
((lp5151
I-264
aI991
atp5152
Rp5153
ag14
((lp5154
tp5155
Rp5156
ag14
((lp5157
tp5158
Rp5159
ag14
((lp5160
tp5161
Rp5162
ag14
((lp5163
I987
atp5164
Rp5165
ag14
((lp5166
tp5167
Rp5168
ag14
((lp5169
I-992
atp5170
Rp5171
ag14
((lp5172
tp5173
Rp5174
ag14
((lp5175
tp5176
Rp5177
ag14
((lp5178
tp5179
Rp5180
ag14
((lp5181
tp5182
Rp5183
ag14
((lp5184
tp5185
Rp5186
ag14
((lp5187
I-991
aI-971
atp5188
Rp5189
ag14
((lp5190
tp5191
Rp5192
ag14
((lp5193
tp5194
Rp5195
ag14
((lp5196
tp5197
Rp5198
ag14
((lp5199
tp5200
Rp5201
ag14
((lp5202
tp5203
Rp5204
ag14
((lp5205
I-991
aI-977
atp5206
Rp5207
ag14
((lp5208
tp5209
Rp5210
ag14
((lp5211
tp5212
Rp5213
ag14
((lp5214
tp5215
Rp5216
ag14
((lp5217
tp5218
Rp5219
ag14
((lp5220
tp5221
Rp5222
ag14
((lp5223
tp5224
Rp5225
ag14
((lp5226
tp5227
Rp5228
ag14
((lp5229
I-1180
aI1237
atp5230
Rp5231
ag14
((lp5232
tp5233
Rp5234
ag14
((lp5235
tp5236
Rp5237
ag14
((lp5238
tp5239
Rp5240
ag14
((lp5241
tp5242
Rp5243
ag14
((lp5244
tp5245
Rp5246
ag14
((lp5247
tp5248
Rp5249
ag14
((lp5250
tp5251
Rp5252
ag14
((lp5253
tp5254
Rp5255
ag14
((lp5256
tp5257
Rp5258
ag14
((lp5259
I-913
atp5260
Rp5261
ag14
((lp5262
tp5263
Rp5264
ag14
((lp5265
tp5266
Rp5267
ag14
((lp5268
tp5269
Rp5270
ag14
((lp5271
tp5272
Rp5273
ag14
((lp5274
tp5275
Rp5276
ag14
((lp5277
tp5278
Rp5279
ag14
((lp5280
tp5281
Rp5282
ag14
((lp5283
I992
atp5284
Rp5285
ag14
((lp5286
tp5287
Rp5288
ag14
((lp5289
tp5290
Rp5291
ag14
((lp5292
tp5293
Rp5294
ag14
((lp5295
tp5296
Rp5297
ag14
((lp5298
tp5299
Rp5300
ag14
((lp5301
tp5302
Rp5303
ag14
((lp5304
tp5305
Rp5306
ag14
((lp5307
I938
atp5308
Rp5309
ag14
((lp5310
tp5311
Rp5312
ag14
((lp5313
I-926
atp5314
Rp5315
ag14
((lp5316
I937
aI-909
atp5317
Rp5318
ag14
((lp5319
tp5320
Rp5321
ag14
((lp5322
I934
atp5323
Rp5324
ag14
((lp5325
tp5326
Rp5327
ag14
((lp5328
tp5329
Rp5330
ag14
((lp5331
tp5332
Rp5333
ag14
((lp5334
tp5335
Rp5336
ag14
((lp5337
I-874
atp5338
Rp5339
ag14
((lp5340
I-935
atp5341
Rp5342
ag14
((lp5343
tp5344
Rp5345
ag14
((lp5346
I928
aI-476
aI927
atp5347
Rp5348
ag14
((lp5349
I930
atp5350
Rp5351
ag14
((lp5352
I-889
aI-920
aI-919
aI-917
aI-916
aI-908
aI924
aI925
atp5353
Rp5354
ag14
((lp5355
I-916
aI-889
aI924
aI925
atp5356
Rp5357
ag14
((lp5358
I-922
aI-889
aI-919
aI-917
aI-880
aI-908
aI924
aI926
atp5359
Rp5360
ag14
((lp5361
I-922
aI-889
aI-920
aI-917
aI-916
aI-908
aI924
aI925
atp5362
Rp5363
ag14
((lp5364
tp5365
Rp5366
ag14
((lp5367
I-922
aI-889
aI-920
aI-919
aI-880
aI-908
aI924
aI926
atp5368
Rp5369
ag14
((lp5370
I-922
aI-921
aI-919
aI924
aI-889
aI925
atp5371
Rp5372
ag14
((lp5373
I-720
aI-894
aI-42
aI923
aI-900
atp5374
Rp5375
ag14
((lp5376
I1000
atp5377
Rp5378
ag14
((lp5379
I-953
atp5380
Rp5381
ag14
((lp5382
I921
aI922
aI-659
atp5383
Rp5384
ag14
((lp5385
tp5386
Rp5387
ag14
((lp5388
I912
aI-696
aI-904
aI-905
atp5389
Rp5390
ag14
((lp5391
I937
aI-934
atp5392
Rp5393
ag14
((lp5394
I-922
aI-889
aI-920
aI-919
aI-917
aI-880
aI924
atp5395
Rp5396
ag14
((lp5397
I920
atp5398
Rp5399
ag14
((lp5400
I915
aI916
aI-899
aI917
atp5401
Rp5402
ag14
((lp5403
I913
aI-910
aI914
atp5404
Rp5405
ag14
((lp5406
I912
aI-696
aI-910
atp5407
Rp5408
ag14
((lp5409
I-859
atp5410
Rp5411
ag14
((lp5412
tp5413
Rp5414
ag14
((lp5415
I905
aI906
aI907
aI908
aI909
aI-898
aI-897
atp5416
Rp5417
ag14
((lp5418
I-720
aI-894
aI-42
aI923
aI-915
atp5419
Rp5420
ag14
((lp5421
I915
aI916
aI-906
atp5422
Rp5423
ag14
((lp5424
I905
aI906
aI907
aI908
aI909
aI-845
aI-901
aI-897
atp5425
Rp5426
ag14
((lp5427
I905
aI906
aI907
aI908
aI909
aI-901
aI-898
atp5428
Rp5429
ag14
((lp5430
tp5431
Rp5432
ag14
((lp5433
I929
atp5434
Rp5435
ag14
((lp5436
I-720
aI-42
aI923
aI-900
aI-915
atp5437
Rp5438
ag14
((lp5439
tp5440
Rp5441
ag14
((lp5442
I897
aI899
atp5443
Rp5444
ag14
((lp5445
I900
aI-746
atp5446
Rp5447
ag14
((lp5448
I-1077
atp5449
Rp5450
ag14
((lp5451
I-922
aI-921
aI-920
aI-919
aI924
aI-917
aI-916
aI-908
aI925
atp5452
Rp5453
ag14
((lp5454
tp5455
Rp5456
ag14
((lp5457
I951
atp5458
Rp5459
ag14
((lp5460
tp5461
Rp5462
ag14
((lp5463
tp5464
Rp5465
ag14
((lp5466
I947
atp5467
Rp5468
ag14
((lp5469
I905
aI-845
atp5470
Rp5471
ag14
((lp5472
tp5473
Rp5474
ag14
((lp5475
tp5476
Rp5477
ag14
((lp5478
I-908
aI-920
aI-917
aI924
aI926
atp5479
Rp5480
ag14
((lp5481
tp5482
Rp5483
ag14
((lp5484
I910
atp5485
Rp5486
ag14
((lp5487
tp5488
Rp5489
ag14
((lp5490
I-855
atp5491
Rp5492
ag14
((lp5493
I-850
atp5494
Rp5495
ag14
((lp5496
I-927
atp5497
Rp5498
ag14
((lp5499
tp5500
Rp5501
ag14
((lp5502
tp5503
Rp5504
ag14
((lp5505
I-846
aI-756
atp5506
Rp5507
ag14
((lp5508
I872
aI871
atp5509
Rp5510
ag14
((lp5511
tp5512
Rp5513
ag14
((lp5514
tp5515
Rp5516
ag14
((lp5517
tp5518
Rp5519
ag14
((lp5520
tp5521
Rp5522
ag14
((lp5523
I-787
atp5524
Rp5525
ag14
((lp5526
tp5527
Rp5528
ag14
((lp5529
I-1045
aI-1044
atp5530
Rp5531
ag14
((lp5532
tp5533
Rp5534
ag14
((lp5535
tp5536
Rp5537
ag14
((lp5538
I-811
atp5539
Rp5540
ag14
((lp5541
I-903
aI911
atp5542
Rp5543
ag14
((lp5544
tp5545
Rp5546
ag14
((lp5547
tp5548
Rp5549
ag14
((lp5550
tp5551
Rp5552
ag14
((lp5553
I-876
atp5554
Rp5555
ag14
((lp5556
I875
atp5557
Rp5558
ag14
((lp5559
I-448
aI-830
aI-828
aI-851
aI-722
aI-849
aI-844
atp5560
Rp5561
ag14
((lp5562
tp5563
Rp5564
ag14
((lp5565
I-448
aI-830
aI-828
aI-853
aI-722
aI-849
aI-844
atp5566
Rp5567
ag14
((lp5568
I-875
atp5569
Rp5570
ag14
((lp5571
I-448
aI-830
aI-828
aI-853
aI-851
aI-722
aI-844
atp5572
Rp5573
ag14
((lp5574
tp5575
Rp5576
ag14
((lp5577
tp5578
Rp5579
ag14
((lp5580
I-871
aI877
atp5581
Rp5582
ag14
((lp5583
I905
aI908
aI-883
aI-898
atp5584
Rp5585
ag14
((lp5586
I-448
aI-830
aI-828
aI-853
aI-851
aI-722
aI-849
atp5587
Rp5588
ag14
((lp5589
I850
aI-842
atp5590
Rp5591
ag14
((lp5592
I850
aI-843
atp5593
Rp5594
ag14
((lp5595
I-569
aI-588
atp5596
Rp5597
ag14
((lp5598
tp5599
Rp5600
ag14
((lp5601
tp5602
Rp5603
ag14
((lp5604
tp5605
Rp5606
ag14
((lp5607
tp5608
Rp5609
ag14
((lp5610
I-799
atp5611
Rp5612
ag14
((lp5613
I844
atp5614
Rp5615
ag14
((lp5616
I-815
aI838
atp5617
Rp5618
ag14
((lp5619
tp5620
Rp5621
ag14
((lp5622
tp5623
Rp5624
ag14
((lp5625
I-813
atp5626
Rp5627
ag14
((lp5628
I-448
aI-828
aI-853
aI-851
aI-722
aI-849
aI-844
atp5629
Rp5630
ag14
((lp5631
I834
aI835
aI-825
atp5632
Rp5633
ag14
((lp5634
I-448
aI-830
aI-853
aI-851
aI-722
aI-849
aI-844
atp5635
Rp5636
ag14
((lp5637
tp5638
Rp5639
ag14
((lp5640
tp5641
Rp5642
ag14
((lp5643
I834
aI835
aI-829
atp5644
Rp5645
ag14
((lp5646
I830
atp5647
Rp5648
ag14
((lp5649
I-822
atp5650
Rp5651
ag14
((lp5652
I-823
atp5653
Rp5654
ag14
((lp5655
tp5656
Rp5657
ag14
((lp5658
I-666
atp5659
Rp5660
ag14
((lp5661
I-734
aI838
atp5662
Rp5663
ag14
((lp5664
I833
atp5665
Rp5666
ag14
((lp5667
tp5668
Rp5669
ag14
((lp5670
I817
atp5671
Rp5672
ag14
((lp5673
I-734
aI838
aI-834
atp5674
Rp5675
ag14
((lp5676
tp5677
Rp5678
ag14
((lp5679
I-831
atp5680
Rp5681
ag14
((lp5682
tp5683
Rp5684
ag14
((lp5685
I-860
atp5686
Rp5687
ag14
((lp5688
tp5689
Rp5690
ag14
((lp5691
tp5692
Rp5693
ag14
((lp5694
tp5695
Rp5696
ag14
((lp5697
tp5698
Rp5699
ag14
((lp5700
tp5701
Rp5702
ag14
((lp5703
tp5704
Rp5705
ag14
((lp5706
tp5707
Rp5708
ag14
((lp5709
I-732
atp5710
Rp5711
ag14
((lp5712
I-593
atp5713
Rp5714
ag14
((lp5715
tp5716
Rp5717
ag14
((lp5718
I879
atp5719
Rp5720
ag14
((lp5721
I-836
atp5722
Rp5723
ag14
((lp5724
tp5725
Rp5726
ag14
((lp5727
tp5728
Rp5729
ag14
((lp5730
tp5731
Rp5732
ag14
((lp5733
I-774
aI-466
atp5734
Rp5735
ag14
((lp5736
I884
aI-739
atp5737
Rp5738
ag14
((lp5739
tp5740
Rp5741
ag14
((lp5742
I825
aI826
atp5743
Rp5744
ag14
((lp5745
tp5746
Rp5747
ag14
((lp5748
I863
atp5749
Rp5750
ag14
((lp5751
tp5752
Rp5753
ag14
((lp5754
tp5755
Rp5756
ag14
((lp5757
I-865
atp5758
Rp5759
ag14
((lp5760
tp5761
Rp5762
ag14
((lp5763
tp5764
Rp5765
ag14
((lp5766
tp5767
Rp5768
ag14
((lp5769
tp5770
Rp5771
ag14
((lp5772
I950
atp5773
Rp5774
ag14
((lp5775
tp5776
Rp5777
ag14
((lp5778
I-655
aI818
aI819
atp5779
Rp5780
ag14
((lp5781
I794
atp5782
Rp5783
ag14
((lp5784
tp5785
Rp5786
ag14
((lp5787
tp5788
Rp5789
ag14
((lp5790
tp5791
Rp5792
ag14
((lp5793
tp5794
Rp5795
ag14
((lp5796
I-795
atp5797
Rp5798
ag14
((lp5799
I898
atp5800
Rp5801
ag14
((lp5802
I926
atp5803
Rp5804
ag14
((lp5805
tp5806
Rp5807
ag14
((lp5808
tp5809
Rp5810
ag14
((lp5811
tp5812
Rp5813
ag14
((lp5814
I786
atp5815
Rp5816
ag14
((lp5817
I-658
aI782
atp5818
Rp5819
ag14
((lp5820
tp5821
Rp5822
ag14
((lp5823
I803
atp5824
Rp5825
ag14
((lp5826
I772
atp5827
Rp5828
ag14
((lp5829
tp5830
Rp5831
ag14
((lp5832
I989
atp5833
Rp5834
ag14
((lp5835
tp5836
Rp5837
ag14
((lp5838
tp5839
Rp5840
ag14
((lp5841
tp5842
Rp5843
ag14
((lp5844
I760
aI-749
atp5845
Rp5846
ag14
((lp5847
tp5848
Rp5849
ag14
((lp5850
I-871
atp5851
Rp5852
ag14
((lp5853
I-724
aI757
atp5854
Rp5855
ag14
((lp5856
tp5857
Rp5858
ag14
((lp5859
I754
atp5860
Rp5861
ag14
((lp5862
I789
atp5863
Rp5864
ag14
((lp5865
tp5866
Rp5867
ag14
((lp5868
tp5869
Rp5870
ag14
((lp5871
I760
aI-758
atp5872
Rp5873
ag14
((lp5874
tp5875
Rp5876
ag14
((lp5877
tp5878
Rp5879
ag14
((lp5880
I-891
atp5881
Rp5882
ag14
((lp5883
tp5884
Rp5885
ag14
((lp5886
tp5887
Rp5888
ag14
((lp5889
tp5890
Rp5891
ag14
((lp5892
tp5893
Rp5894
ag14
((lp5895
tp5896
Rp5897
ag14
((lp5898
I821
aI823
atp5899
Rp5900
ag14
((lp5901
I884
aI-794
atp5902
Rp5903
ag14
((lp5904
tp5905
Rp5906
ag14
((lp5907
tp5908
Rp5909
ag14
((lp5910
I749
aI750
atp5911
Rp5912
ag14
((lp5913
I939
atp5914
Rp5915
ag14
((lp5916
I-815
aI-819
aI838
atp5917
Rp5918
ag14
((lp5919
tp5920
Rp5921
ag14
((lp5922
I-803
atp5923
Rp5924
ag14
((lp5925
tp5926
Rp5927
ag14
((lp5928
tp5929
Rp5930
ag14
((lp5931
tp5932
Rp5933
ag14
((lp5934
I734
atp5935
Rp5936
ag14
((lp5937
tp5938
Rp5939
ag14
((lp5940
tp5941
Rp5942
ag14
((lp5943
I727
atp5944
Rp5945
ag14
((lp5946
I757
aI-755
atp5947
Rp5948
ag14
((lp5949
tp5950
Rp5951
ag14
((lp5952
I-448
aI-830
aI-828
aI-853
aI-851
aI-849
aI-844
atp5953
Rp5954
ag14
((lp5955
I1260
aI-396
atp5956
Rp5957
ag14
((lp5958
I-894
aI-42
aI923
aI-900
aI-915
atp5959
Rp5960
ag14
((lp5961
I-630
atp5962
Rp5963
ag14
((lp5964
tp5965
Rp5966
ag14
((lp5967
tp5968
Rp5969
ag14
((lp5970
tp5971
Rp5972
ag14
((lp5973
tp5974
Rp5975
ag14
((lp5976
I1184
aI-1147
aI-1110
aI1164
aI1168
aI-1132
aI1173
aI1176
aI1178
aI1179
aI1180
atp5977
Rp5978
ag14
((lp5979
tp5980
Rp5981
ag14
((lp5982
tp5983
Rp5984
ag14
((lp5985
tp5986
Rp5987
ag14
((lp5988
tp5989
Rp5990
ag14
((lp5991
I711
atp5992
Rp5993
ag14
((lp5994
tp5995
Rp5996
ag14
((lp5997
tp5998
Rp5999
ag14
((lp6000
tp6001
Rp6002
ag14
((lp6003
tp6004
Rp6005
ag14
((lp6006
tp6007
Rp6008
ag14
((lp6009
tp6010
Rp6011
ag14
((lp6012
tp6013
Rp6014
ag14
((lp6015
tp6016
Rp6017
ag14
((lp6018
tp6019
Rp6020
ag14
((lp6021
tp6022
Rp6023
ag14
((lp6024
I700
atp6025
Rp6026
ag14
((lp6027
tp6028
Rp6029
ag14
((lp6030
I-904
aI-910
aI912
atp6031
Rp6032
ag14
((lp6033
tp6034
Rp6035
ag14
((lp6036
tp6037
Rp6038
ag14
((lp6039
I717
aI-573
aI719
atp6040
Rp6041
ag14
((lp6042
I-687
atp6043
Rp6044
ag14
((lp6045
tp6046
Rp6047
ag14
((lp6048
tp6049
Rp6050
ag14
((lp6051
tp6052
Rp6053
ag14
((lp6054
I-686
atp6055
Rp6056
ag14
((lp6057
I-692
atp6058
Rp6059
ag14
((lp6060
I-688
atp6061
Rp6062
ag14
((lp6063
I691
atp6064
Rp6065
ag14
((lp6066
tp6067
Rp6068
ag14
((lp6069
tp6070
Rp6071
ag14
((lp6072
tp6073
Rp6074
ag14
((lp6075
I-676
aI693
atp6076
Rp6077
ag14
((lp6078
I682
atp6079
Rp6080
ag14
((lp6081
I887
atp6082
Rp6083
ag14
((lp6084
tp6085
Rp6086
ag14
((lp6087
I-675
aI-673
atp6088
Rp6089
ag14
((lp6090
I693
aI-681
atp6091
Rp6092
ag14
((lp6093
I-672
aI-656
aI-677
aI-673
atp6094
Rp6095
ag14
((lp6096
tp6097
Rp6098
ag14
((lp6099
I-672
aI-656
aI-677
aI-675
atp6100
Rp6101
ag14
((lp6102
I-656
aI-675
aI-673
atp6103
Rp6104
ag14
((lp6105
I-662
aI675
aI-668
atp6106
Rp6107
ag14
((lp6108
tp6109
Rp6110
ag14
((lp6111
I-622
atp6112
Rp6113
ag14
((lp6114
I-671
aI-662
aI675
atp6115
Rp6116
ag14
((lp6117
I921
aI922
aI-659
atp6118
Rp6119
ag14
((lp6120
I-820
atp6121
Rp6122
ag14
((lp6123
tp6124
Rp6125
ag14
((lp6126
I720
atp6127
Rp6128
ag14
((lp6129
tp6130
Rp6131
ag14
((lp6132
I-671
aI675
aI-668
atp6133
Rp6134
ag14
((lp6135
tp6136
Rp6137
ag14
((lp6138
I668
atp6139
Rp6140
ag14
((lp6141
I-912
aI921
aI922
aI-667
atp6142
Rp6143
ag14
((lp6144
I-767
aI782
atp6145
Rp6146
ag14
((lp6147
I685
atp6148
Rp6149
ag14
((lp6150
I-672
aI-675
aI-673
atp6151
Rp6152
ag14
((lp6153
I818
aI819
aI-780
atp6154
Rp6155
ag14
((lp6156
tp6157
Rp6158
ag14
((lp6159
tp6160
Rp6161
ag14
((lp6162
tp6163
Rp6164
ag14
((lp6165
tp6166
Rp6167
ag14
((lp6168
I658
atp6169
Rp6170
ag14
((lp6171
tp6172
Rp6173
ag14
((lp6174
tp6175
Rp6176
ag14
((lp6177
tp6178
Rp6179
ag14
((lp6180
tp6181
Rp6182
ag14
((lp6183
tp6184
Rp6185
ag14
((lp6186
I-639
atp6187
Rp6188
ag14
((lp6189
tp6190
Rp6191
ag14
((lp6192
tp6193
Rp6194
ag14
((lp6195
tp6196
Rp6197
ag14
((lp6198
tp6199
Rp6200
ag14
((lp6201
I648
aI-644
atp6202
Rp6203
ag14
((lp6204
tp6205
Rp6206
ag14
((lp6207
I639
atp6208
Rp6209
ag14
((lp6210
I671
atp6211
Rp6212
ag14
((lp6213
tp6214
Rp6215
ag14
((lp6216
tp6217
Rp6218
ag14
((lp6219
tp6220
Rp6221
ag14
((lp6222
I634
atp6223
Rp6224
ag14
((lp6225
tp6226
Rp6227
ag14
((lp6228
I-719
atp6229
Rp6230
ag14
((lp6231
tp6232
Rp6233
ag14
((lp6234
tp6235
Rp6236
ag14
((lp6237
I637
atp6238
Rp6239
ag14
((lp6240
tp6241
Rp6242
ag14
((lp6243
tp6244
Rp6245
ag14
((lp6246
tp6247
Rp6248
ag14
((lp6249
tp6250
Rp6251
ag14
((lp6252
I-669
atp6253
Rp6254
ag14
((lp6255
tp6256
Rp6257
ag14
((lp6258
tp6259
Rp6260
ag14
((lp6261
tp6262
Rp6263
ag14
((lp6264
I624
atp6265
Rp6266
ag14
((lp6267
I-603
aI-553
aI-616
aI-598
aI622
aI623
atp6268
Rp6269
ag14
((lp6270
I-603
aI-553
aI-598
aI-617
aI622
aI623
atp6271
Rp6272
ag14
((lp6273
tp6274
Rp6275
ag14
((lp6276
I677
atp6277
Rp6278
ag14
((lp6279
tp6280
Rp6281
ag14
((lp6282
tp6283
Rp6284
ag14
((lp6285
tp6286
Rp6287
ag14
((lp6288
I615
atp6289
Rp6290
ag14
((lp6291
tp6292
Rp6293
ag14
((lp6294
I-513
atp6295
Rp6296
ag14
((lp6297
tp6298
Rp6299
ag14
((lp6300
I624
atp6301
Rp6302
ag14
((lp6303
tp6304
Rp6305
ag14
((lp6306
tp6307
Rp6308
ag14
((lp6309
I-553
aI-616
aI-598
aI-617
aI622
aI623
atp6310
Rp6311
ag14
((lp6312
tp6313
Rp6314
ag14
((lp6315
I-532
atp6316
Rp6317
ag14
((lp6318
I725
atp6319
Rp6320
ag14
((lp6321
tp6322
Rp6323
ag14
((lp6324
I-603
aI-617
aI-616
aI-553
aI622
aI623
atp6325
Rp6326
ag14
((lp6327
tp6328
Rp6329
ag14
((lp6330
I636
atp6331
Rp6332
ag14
((lp6333
I-592
atp6334
Rp6335
ag14
((lp6336
tp6337
Rp6338
ag14
((lp6339
I-802
atp6340
Rp6341
ag14
((lp6342
I-595
aI607
atp6343
Rp6344
ag14
((lp6345
I-126
atp6346
Rp6347
ag14
((lp6348
tp6349
Rp6350
ag14
((lp6351
tp6352
Rp6353
ag14
((lp6354
I-841
atp6355
Rp6356
ag14
((lp6357
I-532
atp6358
Rp6359
ag14
((lp6360
I588
atp6361
Rp6362
ag14
((lp6363
tp6364
Rp6365
ag14
((lp6366
I586
atp6367
Rp6368
ag14
((lp6369
tp6370
Rp6371
ag14
((lp6372
I696
aI692
aI695
atp6373
Rp6374
ag14
((lp6375
tp6376
Rp6377
ag14
((lp6378
I-520
aI-342
aI-579
atp6379
Rp6380
ag14
((lp6381
I-342
aI-580
atp6382
Rp6383
ag14
((lp6384
tp6385
Rp6386
ag14
((lp6387
I-568
atp6388
Rp6389
ag14
((lp6390
I584
aI-575
atp6391
Rp6392
ag14
((lp6393
I-576
aI584
atp6394
Rp6395
ag14
((lp6396
tp6397
Rp6398
ag14
((lp6399
I-693
aI719
atp6400
Rp6401
ag14
((lp6402
tp6403
Rp6404
ag14
((lp6405
I673
aI674
atp6406
Rp6407
ag14
((lp6408
tp6409
Rp6410
ag14
((lp6411
I-841
atp6412
Rp6413
ag14
((lp6414
I-577
atp6415
Rp6416
ag14
((lp6417
tp6418
Rp6419
ag14
((lp6420
tp6421
Rp6422
ag14
((lp6423
I-1088
atp6424
Rp6425
ag14
((lp6426
tp6427
Rp6428
ag14
((lp6429
I572
atp6430
Rp6431
ag14
((lp6432
tp6433
Rp6434
ag14
((lp6435
I699
atp6436
Rp6437
ag14
((lp6438
I-1302
atp6439
Rp6440
ag14
((lp6441
I-489
atp6442
Rp6443
ag14
((lp6444
I560
atp6445
Rp6446
ag14
((lp6447
tp6448
Rp6449
ag14
((lp6450
I565
atp6451
Rp6452
ag14
((lp6453
tp6454
Rp6455
ag14
((lp6456
tp6457
Rp6458
ag14
((lp6459
I-603
aI-617
aI-616
aI-598
aI622
aI623
atp6460
Rp6461
ag14
((lp6462
I-545
atp6463
Rp6464
ag14
((lp6465
I561
aI562
atp6466
Rp6467
ag14
((lp6468
I557
atp6469
Rp6470
ag14
((lp6471
tp6472
Rp6473
ag14
((lp6474
tp6475
Rp6476
ag14
((lp6477
tp6478
Rp6479
ag14
((lp6480
tp6481
Rp6482
ag14
((lp6483
I-552
atp6484
Rp6485
ag14
((lp6486
I577
atp6487
Rp6488
ag14
((lp6489
I776
atp6490
Rp6491
ag14
((lp6492
I-519
aI546
aI547
atp6493
Rp6494
ag14
((lp6495
I-536
aI-535
atp6496
Rp6497
ag14
((lp6498
I554
aI-427
atp6499
Rp6500
ag14
((lp6501
tp6502
Rp6503
ag14
((lp6504
I-495
aI-537
atp6505
Rp6506
ag14
((lp6507
I-495
aI-538
atp6508
Rp6509
ag14
((lp6510
I-535
aI-541
atp6511
Rp6512
ag14
((lp6513
I-536
aI-541
atp6514
Rp6515
ag14
((lp6516
I545
atp6517
Rp6518
ag14
((lp6519
tp6520
Rp6521
ag14
((lp6522
I-587
aI-601
atp6523
Rp6524
ag14
((lp6525
I536
aI538
aI-530
aI534
atp6526
Rp6527
ag14
((lp6528
I534
aI535
aI537
aI540
aI-531
atp6529
Rp6530
ag14
((lp6531
tp6532
Rp6533
ag14
((lp6534
tp6535
Rp6536
ag14
((lp6537
I552
atp6538
Rp6539
ag14
((lp6540
I555
atp6541
Rp6542
ag14
((lp6543
tp6544
Rp6545
ag14
((lp6546
tp6547
Rp6548
ag14
((lp6549
I563
aI566
atp6550
Rp6551
ag14
((lp6552
tp6553
Rp6554
ag14
((lp6555
tp6556
Rp6557
ag14
((lp6558
I-580
atp6559
Rp6560
ag14
((lp6561
I-542
aI547
aI546
atp6562
Rp6563
ag14
((lp6564
tp6565
Rp6566
ag14
((lp6567
tp6568
Rp6569
ag14
((lp6570
I657
atp6571
Rp6572
ag14
((lp6573
tp6574
Rp6575
ag14
((lp6576
I519
atp6577
Rp6578
ag14
((lp6579
I-608
atp6580
Rp6581
ag14
((lp6582
tp6583
Rp6584
ag14
((lp6585
tp6586
Rp6587
ag14
((lp6588
tp6589
Rp6590
ag14
((lp6591
I-482
atp6592
Rp6593
ag14
((lp6594
I-503
atp6595
Rp6596
ag14
((lp6597
tp6598
Rp6599
ag14
((lp6600
tp6601
Rp6602
ag14
((lp6603
tp6604
Rp6605
ag14
((lp6606
tp6607
Rp6608
ag14
((lp6609
I-508
atp6610
Rp6611
ag14
((lp6612
tp6613
Rp6614
ag14
((lp6615
tp6616
Rp6617
ag14
((lp6618
I966
atp6619
Rp6620
ag14
((lp6621
tp6622
Rp6623
ag14
((lp6624
tp6625
Rp6626
ag14
((lp6627
I-464
aI-398
aI501
atp6628
Rp6629
ag14
((lp6630
tp6631
Rp6632
ag14
((lp6633
I-538
aI-537
atp6634
Rp6635
ag14
((lp6636
tp6637
Rp6638
ag14
((lp6639
tp6640
Rp6641
ag14
((lp6642
tp6643
Rp6644
ag14
((lp6645
tp6646
Rp6647
ag14
((lp6648
tp6649
Rp6650
ag14
((lp6651
I-559
atp6652
Rp6653
ag14
((lp6654
I-475
atp6655
Rp6656
ag14
((lp6657
tp6658
Rp6659
ag14
((lp6660
tp6661
Rp6662
ag14
((lp6663
I-471
atp6664
Rp6665
ag14
((lp6666
I489
aI-188
atp6667
Rp6668
ag14
((lp6669
tp6670
Rp6671
ag14
((lp6672
I-509
atp6673
Rp6674
ag14
((lp6675
tp6676
Rp6677
ag14
((lp6678
tp6679
Rp6680
ag14
((lp6681
I487
atp6682
Rp6683
ag14
((lp6684
I588
atp6685
Rp6686
ag14
((lp6687
I580
aI581
aI575
atp6688
Rp6689
ag14
((lp6690
I-924
atp6691
Rp6692
ag14
((lp6693
I-488
atp6694
Rp6695
ag14
((lp6696
tp6697
Rp6698
ag14
((lp6699
tp6700
Rp6701
ag14
((lp6702
tp6703
Rp6704
ag14
((lp6705
I-485
atp6706
Rp6707
ag14
((lp6708
I-468
atp6709
Rp6710
ag14
((lp6711
tp6712
Rp6713
ag14
((lp6714
I-470
atp6715
Rp6716
ag14
((lp6717
tp6718
Rp6719
ag14
((lp6720
I-795
atp6721
Rp6722
ag14
((lp6723
tp6724
Rp6725
ag14
((lp6726
I-398
aI501
aI-497
atp6727
Rp6728
ag14
((lp6729
I464
atp6730
Rp6731
ag14
((lp6732
tp6733
Rp6734
ag14
((lp6735
tp6736
Rp6737
ag14
((lp6738
tp6739
Rp6740
ag14
((lp6741
tp6742
Rp6743
ag14
((lp6744
tp6745
Rp6746
ag14
((lp6747
tp6748
Rp6749
ag14
((lp6750
tp6751
Rp6752
ag14
((lp6753
tp6754
Rp6755
ag14
((lp6756
tp6757
Rp6758
ag14
((lp6759
I522
atp6760
Rp6761
ag14
((lp6762
tp6763
Rp6764
ag14
((lp6765
tp6766
Rp6767
ag14
((lp6768
tp6769
Rp6770
ag14
((lp6771
tp6772
Rp6773
ag14
((lp6774
I-830
aI-828
aI-853
aI-851
aI-722
aI-849
aI-844
atp6775
Rp6776
ag14
((lp6777
I-437
atp6778
Rp6779
ag14
((lp6780
tp6781
Rp6782
ag14
((lp6783
tp6784
Rp6785
ag14
((lp6786
tp6787
Rp6788
ag14
((lp6789
tp6790
Rp6791
ag14
((lp6792
I1203
aI-1156
atp6793
Rp6794
ag14
((lp6795
tp6796
Rp6797
ag14
((lp6798
I453
aI454
atp6799
Rp6800
ag14
((lp6801
I447
atp6802
Rp6803
ag14
((lp6804
I1055
atp6805
Rp6806
ag14
((lp6807
I-447
atp6808
Rp6809
ag14
((lp6810
tp6811
Rp6812
ag14
((lp6813
tp6814
Rp6815
ag14
((lp6816
tp6817
Rp6818
ag14
((lp6819
tp6820
Rp6821
ag14
((lp6822
tp6823
Rp6824
ag14
((lp6825
tp6826
Rp6827
ag14
((lp6828
tp6829
Rp6830
ag14
((lp6831
tp6832
Rp6833
ag14
((lp6834
I497
atp6835
Rp6836
ag14
((lp6837
I-540
atp6838
Rp6839
ag14
((lp6840
tp6841
Rp6842
ag14
((lp6843
I-423
aI428
aI429
atp6844
Rp6845
ag14
((lp6846
tp6847
Rp6848
ag14
((lp6849
I428
aI429
aI-425
atp6850
Rp6851
ag14
((lp6852
tp6853
Rp6854
ag14
((lp6855
tp6856
Rp6857
ag14
((lp6858
tp6859
Rp6860
ag14
((lp6861
tp6862
Rp6863
ag14
((lp6864
I492
atp6865
Rp6866
ag14
((lp6867
tp6868
Rp6869
ag14
((lp6870
tp6871
Rp6872
ag14
((lp6873
tp6874
Rp6875
ag14
((lp6876
tp6877
Rp6878
ag14
((lp6879
tp6880
Rp6881
ag14
((lp6882
tp6883
Rp6884
ag14
((lp6885
tp6886
Rp6887
ag14
((lp6888
tp6889
Rp6890
ag14
((lp6891
tp6892
Rp6893
ag14
((lp6894
tp6895
Rp6896
ag14
((lp6897
tp6898
Rp6899
ag14
((lp6900
tp6901
Rp6902
ag14
((lp6903
tp6904
Rp6905
ag14
((lp6906
I406
atp6907
Rp6908
ag14
((lp6909
tp6910
Rp6911
ag14
((lp6912
tp6913
Rp6914
ag14
((lp6915
tp6916
Rp6917
ag14
((lp6918
tp6919
Rp6920
ag14
((lp6921
tp6922
Rp6923
ag14
((lp6924
I-464
aI501
aI-497
atp6925
Rp6926
ag14
((lp6927
tp6928
Rp6929
ag14
((lp6930
I1260
aI-721
atp6931
Rp6932
ag14
((lp6933
tp6934
Rp6935
ag14
((lp6936
tp6937
Rp6938
ag14
((lp6939
I-268
atp6940
Rp6941
ag14
((lp6942
tp6943
Rp6944
ag14
((lp6945
tp6946
Rp6947
ag14
((lp6948
tp6949
Rp6950
ag14
((lp6951
I-151
aI-372
atp6952
Rp6953
ag14
((lp6954
tp6955
Rp6956
ag14
((lp6957
I-32
aI390
atp6958
Rp6959
ag14
((lp6960
tp6961
Rp6962
ag14
((lp6963
tp6964
Rp6965
ag14
((lp6966
I389
atp6967
Rp6968
ag14
((lp6969
tp6970
Rp6971
ag14
((lp6972
tp6973
Rp6974
ag14
((lp6975
tp6976
Rp6977
ag14
((lp6978
tp6979
Rp6980
ag14
((lp6981
I-313
atp6982
Rp6983
ag14
((lp6984
I-376
aI-377
atp6985
Rp6986
ag14
((lp6987
I-376
aI380
aI-378
atp6988
Rp6989
ag14
((lp6990
I-378
aI-377
atp6991
Rp6992
ag14
((lp6993
I378
atp6994
Rp6995
ag14
((lp6996
tp6997
Rp6998
ag14
((lp6999
tp7000
Rp7001
ag14
((lp7002
I-389
atp7003
Rp7004
ag14
((lp7005
tp7006
Rp7007
ag14
((lp7008
tp7009
Rp7010
ag14
((lp7011
tp7012
Rp7013
ag14
((lp7014
tp7015
Rp7016
ag14
((lp7017
tp7018
Rp7019
ag14
((lp7020
tp7021
Rp7022
ag14
((lp7023
tp7024
Rp7025
ag14
((lp7026
tp7027
Rp7028
ag14
((lp7029
tp7030
Rp7031
ag14
((lp7032
tp7033
Rp7034
ag14
((lp7035
tp7036
Rp7037
ag14
((lp7038
tp7039
Rp7040
ag14
((lp7041
tp7042
Rp7043
ag14
((lp7044
I360
atp7045
Rp7046
ag14
((lp7047
tp7048
Rp7049
ag14
((lp7050
tp7051
Rp7052
ag14
((lp7053
I385
atp7054
Rp7055
ag14
((lp7056
tp7057
Rp7058
ag14
((lp7059
tp7060
Rp7061
ag14
((lp7062
tp7063
Rp7064
ag14
((lp7065
tp7066
Rp7067
ag14
((lp7068
tp7069
Rp7070
ag14
((lp7071
tp7072
Rp7073
ag14
((lp7074
tp7075
Rp7076
ag14
((lp7077
tp7078
Rp7079
ag14
((lp7080
I-1112
atp7081
Rp7082
ag14
((lp7083
tp7084
Rp7085
ag14
((lp7086
tp7087
Rp7088
ag14
((lp7089
tp7090
Rp7091
ag14
((lp7092
I-580
aI-579
atp7093
Rp7094
ag14
((lp7095
tp7096
Rp7097
ag14
((lp7098
tp7099
Rp7100
ag14
((lp7101
tp7102
Rp7103
ag14
((lp7104
tp7105
Rp7106
ag14
((lp7107
tp7108
Rp7109
ag14
((lp7110
I-334
atp7111
Rp7112
ag14
((lp7113
tp7114
Rp7115
ag14
((lp7116
I-336
atp7117
Rp7118
ag14
((lp7119
tp7120
Rp7121
ag14
((lp7122
tp7123
Rp7124
ag14
((lp7125
tp7126
Rp7127
ag14
((lp7128
tp7129
Rp7130
ag14
((lp7131
tp7132
Rp7133
ag14
((lp7134
tp7135
Rp7136
ag14
((lp7137
I365
atp7138
Rp7139
ag14
((lp7140
I-324
aI332
aI333
atp7141
Rp7142
ag14
((lp7143
tp7144
Rp7145
ag14
((lp7146
I332
aI-326
aI333
atp7147
Rp7148
ag14
((lp7149
tp7150
Rp7151
ag14
((lp7152
I326
atp7153
Rp7154
ag14
((lp7155
I335
atp7156
Rp7157
ag14
((lp7158
tp7159
Rp7160
ag14
((lp7161
tp7162
Rp7163
ag14
((lp7164
tp7165
Rp7166
ag14
((lp7167
tp7168
Rp7169
ag14
((lp7170
tp7171
Rp7172
ag14
((lp7173
tp7174
Rp7175
ag14
((lp7176
I315
atp7177
Rp7178
ag14
((lp7179
I-379
atp7180
Rp7181
ag14
((lp7182
tp7183
Rp7184
ag14
((lp7185
tp7186
Rp7187
ag14
((lp7188
tp7189
Rp7190
ag14
((lp7191
tp7192
Rp7193
ag14
((lp7194
I310
atp7195
Rp7196
ag14
((lp7197
tp7198
Rp7199
ag14
((lp7200
tp7201
Rp7202
ag14
((lp7203
tp7204
Rp7205
ag14
((lp7206
tp7207
Rp7208
ag14
((lp7209
tp7210
Rp7211
ag14
((lp7212
tp7213
Rp7214
ag14
((lp7215
I-293
atp7216
Rp7217
ag14
((lp7218
I797
atp7219
Rp7220
ag14
((lp7221
tp7222
Rp7223
ag14
((lp7224
tp7225
Rp7226
ag14
((lp7227
tp7228
Rp7229
ag14
((lp7230
tp7231
Rp7232
ag14
((lp7233
tp7234
Rp7235
ag14
((lp7236
tp7237
Rp7238
ag14
((lp7239
I-301
atp7240
Rp7241
ag14
((lp7242
tp7243
Rp7244
ag14
((lp7245
tp7246
Rp7247
ag14
((lp7248
I299
aI300
atp7249
Rp7250
ag14
((lp7251
tp7252
Rp7253
ag14
((lp7254
I-287
aI298
atp7255
Rp7256
ag14
((lp7257
I-288
aI298
atp7258
Rp7259
ag14
((lp7260
I296
aI-258
atp7261
Rp7262
ag14
((lp7263
tp7264
Rp7265
ag14
((lp7266
tp7267
Rp7268
ag14
((lp7269
tp7270
Rp7271
ag14
((lp7272
tp7273
Rp7274
ag14
((lp7275
I285
atp7276
Rp7277
ag14
((lp7278
I-279
atp7279
Rp7280
ag14
((lp7281
I-280
atp7282
Rp7283
ag14
((lp7284
tp7285
Rp7286
ag14
((lp7287
tp7288
Rp7289
ag14
((lp7290
tp7291
Rp7292
ag14
((lp7293
I276
atp7294
Rp7295
ag14
((lp7296
tp7297
Rp7298
ag14
((lp7299
tp7300
Rp7301
ag14
((lp7302
tp7303
Rp7304
ag14
((lp7305
tp7306
Rp7307
ag14
((lp7308
I271
atp7309
Rp7310
ag14
((lp7311
tp7312
Rp7313
ag14
((lp7314
I-393
atp7315
Rp7316
ag14
((lp7317
tp7318
Rp7319
ag14
((lp7320
tp7321
Rp7322
ag14
((lp7323
I288
aI290
atp7324
Rp7325
ag14
((lp7326
I-989
atp7327
Rp7328
ag14
((lp7329
tp7330
Rp7331
ag14
((lp7332
I-229
aI-251
aI-234
atp7333
Rp7334
ag14
((lp7335
I-221
aI-243
aI-194
aI-249
atp7336
Rp7337
ag14
((lp7338
I261
atp7339
Rp7340
ag14
((lp7341
tp7342
Rp7343
ag14
((lp7344
I296
aI-286
atp7345
Rp7346
ag14
((lp7347
I351
atp7348
Rp7349
ag14
((lp7350
tp7351
Rp7352
ag14
((lp7353
tp7354
Rp7355
ag14
((lp7356
I280
atp7357
Rp7358
ag14
((lp7359
tp7360
Rp7361
ag14
((lp7362
tp7363
Rp7364
ag14
((lp7365
I-262
aI-229
aI-234
atp7366
Rp7367
ag14
((lp7368
tp7369
Rp7370
ag14
((lp7371
I-261
aI-221
aI-243
aI-194
atp7372
Rp7373
ag14
((lp7374
tp7375
Rp7376
ag14
((lp7377
I256
atp7378
Rp7379
ag14
((lp7380
tp7381
Rp7382
ag14
((lp7383
tp7384
Rp7385
ag14
((lp7386
tp7387
Rp7388
ag14
((lp7389
I-221
aI-261
aI-194
aI-249
atp7390
Rp7391
ag14
((lp7392
I244
aI-236
aI-231
atp7393
Rp7394
ag14
((lp7395
tp7396
Rp7397
ag14
((lp7398
I309
aI-138
atp7399
Rp7400
ag14
((lp7401
I250
aI246
aI247
atp7402
Rp7403
ag14
((lp7404
tp7405
Rp7406
ag14
((lp7407
tp7408
Rp7409
ag14
((lp7410
I-231
aI244
aI-242
atp7411
Rp7412
ag14
((lp7413
tp7414
Rp7415
ag14
((lp7416
I-262
aI-229
aI-251
atp7417
Rp7418
ag14
((lp7419
I387
atp7420
Rp7421
ag14
((lp7422
tp7423
Rp7424
ag14
((lp7425
I-236
aI244
aI-242
atp7426
Rp7427
ag14
((lp7428
I234
atp7429
Rp7430
ag14
((lp7431
I-262
aI-251
aI-234
atp7432
Rp7433
ag14
((lp7434
I-227
atp7435
Rp7436
ag14
((lp7437
I-228
atp7438
Rp7439
ag14
((lp7440
tp7441
Rp7442
ag14
((lp7443
I-214
atp7444
Rp7445
ag14
((lp7446
tp7447
Rp7448
ag14
((lp7449
I236
atp7450
Rp7451
ag14
((lp7452
tp7453
Rp7454
ag14
((lp7455
I-249
aI-243
aI-194
aI-261
atp7456
Rp7457
ag14
((lp7458
I-219
aI-201
atp7459
Rp7460
ag14
((lp7461
I-220
aI-201
atp7462
Rp7463
ag14
((lp7464
tp7465
Rp7466
ag14
((lp7467
I-216
aI-193
atp7468
Rp7469
ag14
((lp7470
I-217
aI-193
atp7471
Rp7472
ag14
((lp7473
I217
aI-209
atp7474
Rp7475
ag14
((lp7476
I-225
atp7477
Rp7478
ag14
((lp7479
tp7480
Rp7481
ag14
((lp7482
I216
aI218
aI-211
aI-210
atp7483
Rp7484
ag14
((lp7485
I216
aI218
aI-212
aI-210
atp7486
Rp7487
ag14
((lp7488
I216
aI218
aI219
aI-212
aI-211
atp7489
Rp7490
ag14
((lp7491
I217
aI-215
atp7492
Rp7493
ag14
((lp7494
I213
atp7495
Rp7496
ag14
((lp7497
tp7498
Rp7499
ag14
((lp7500
I319
atp7501
Rp7502
ag14
((lp7503
I254
atp7504
Rp7505
ag14
((lp7506
tp7507
Rp7508
ag14
((lp7509
tp7510
Rp7511
ag14
((lp7512
tp7513
Rp7514
ag14
((lp7515
I-220
aI-219
atp7516
Rp7517
ag14
((lp7518
I-184
aI202
atp7519
Rp7520
ag14
((lp7521
tp7522
Rp7523
ag14
((lp7524
I-191
atp7525
Rp7526
ag14
((lp7527
I-174
atp7528
Rp7529
ag14
((lp7530
I-185
atp7531
Rp7532
ag14
((lp7533
tp7534
Rp7535
ag14
((lp7536
I-249
aI-221
aI-243
aI-261
atp7537
Rp7538
ag14
((lp7539
I-216
aI-217
atp7540
Rp7541
ag14
((lp7542
I214
atp7543
Rp7544
ag14
((lp7545
I-116
aI-198
aI212
atp7546
Rp7547
ag14
((lp7548
I-189
aI196
aI-171
aI198
aI-183
atp7549
Rp7550
ag14
((lp7551
I-190
aI196
aI-171
aI198
aI-183
atp7552
Rp7553
ag14
((lp7554
I489
aI-484
atp7555
Rp7556
ag14
((lp7557
tp7558
Rp7559
ag14
((lp7560
tp7561
Rp7562
ag14
((lp7563
I-196
atp7564
Rp7565
ag14
((lp7566
I-200
aI202
atp7567
Rp7568
ag14
((lp7569
I-190
aI-189
aI196
aI-171
aI198
aI199
atp7570
Rp7571
ag14
((lp7572
tp7573
Rp7574
ag14
((lp7575
tp7576
Rp7577
ag14
((lp7578
I-168
aI183
atp7579
Rp7580
ag14
((lp7581
I-168
aI184
aI-158
atp7582
Rp7583
ag14
((lp7584
tp7585
Rp7586
ag14
((lp7587
tp7588
Rp7589
ag14
((lp7590
I245
aI247
aI248
aI250
aI251
atp7591
Rp7592
ag14
((lp7593
I249
aI252
aI253
aI246
atp7594
Rp7595
ag14
((lp7596
I-197
atp7597
Rp7598
ag14
((lp7599
tp7600
Rp7601
ag14
((lp7602
tp7603
Rp7604
ag14
((lp7605
I-190
aI-189
aI196
aI198
aI199
aI-183
atp7606
Rp7607
ag14
((lp7608
I192
aI-145
atp7609
Rp7610
ag14
((lp7611
I-127
aI-147
atp7612
Rp7613
ag14
((lp7614
I-158
aI-180
aI-179
aI183
atp7615
Rp7616
ag14
((lp7617
tp7618
Rp7619
ag14
((lp7620
I-157
aI179
aI180
aI181
aI182
aI-165
aI-129
atp7621
Rp7622
ag14
((lp7623
I-157
aI179
aI180
aI181
aI182
aI-166
aI-129
atp7624
Rp7625
ag14
((lp7626
I178
aI-149
aI-162
aI-161
atp7627
Rp7628
ag14
((lp7629
tp7630
Rp7631
ag14
((lp7632
I-149
aI-164
atp7633
Rp7634
ag14
((lp7635
I178
aI-164
atp7636
Rp7637
ag14
((lp7638
tp7639
Rp7640
ag14
((lp7641
tp7642
Rp7643
ag14
((lp7644
I-168
aI-179
aI183
atp7645
Rp7646
ag14
((lp7647
I179
aI180
aI181
aI182
aI-166
aI-165
aI-129
atp7648
Rp7649
ag14
((lp7650
I164
atp7651
Rp7652
ag14
((lp7653
I160
aI161
aI162
aI165
aI-154
aI167
aI168
aI-153
aI172
aI173
aI174
aI175
aI-142
atp7654
Rp7655
ag14
((lp7656
I161
aI162
aI-155
aI-153
aI168
aI172
aI174
aI175
aI165
atp7657
Rp7658
ag14
((lp7659
I161
aI162
aI-155
aI-154
aI168
aI172
aI174
aI175
aI165
atp7660
Rp7661
ag14
((lp7662
tp7663
Rp7664
ag14
((lp7665
I-389
atp7666
Rp7667
ag14
((lp7668
I157
atp7669
Rp7670
ag14
((lp7671
I-164
aI-162
atp7672
Rp7673
ag14
((lp7674
I232
aI233
atp7675
Rp7676
ag14
((lp7677
I-127
aI-169
atp7678
Rp7679
ag14
((lp7680
I153
atp7681
Rp7682
ag14
((lp7683
I-170
atp7684
Rp7685
ag14
((lp7686
I150
aI151
atp7687
Rp7688
ag14
((lp7689
I146
atp7690
Rp7691
ag14
((lp7692
I160
aI161
aI162
aI163
aI-155
aI167
aI168
aI169
aI170
aI173
aI176
aI177
atp7693
Rp7694
ag14
((lp7695
tp7696
Rp7697
ag14
((lp7698
I142
atp7699
Rp7700
ag14
((lp7701
tp7702
Rp7703
ag14
((lp7704
I-240
aI309
atp7705
Rp7706
ag14
((lp7707
tp7708
Rp7709
ag14
((lp7710
tp7711
Rp7712
ag14
((lp7713
I-134
atp7714
Rp7715
ag14
((lp7716
I-135
atp7717
Rp7718
ag14
((lp7719
I138
aI-131
atp7720
Rp7721
ag14
((lp7722
tp7723
Rp7724
ag14
((lp7725
I138
aI-133
atp7726
Rp7727
ag14
((lp7728
tp7729
Rp7730
ag14
((lp7731
I-157
aI180
aI181
aI182
aI-166
aI-165
atp7732
Rp7733
ag14
((lp7734
tp7735
Rp7736
ag14
((lp7737
I-147
aI-169
atp7738
Rp7739
ag14
((lp7740
I-591
atp7741
Rp7742
ag14
((lp7743
tp7744
Rp7745
ag14
((lp7746
tp7747
Rp7748
ag14
((lp7749
I128
atp7750
Rp7751
ag14
((lp7752
tp7753
Rp7754
ag14
((lp7755
tp7756
Rp7757
ag14
((lp7758
I-1029
atp7759
Rp7760
ag14
((lp7761
I407
atp7762
Rp7763
ag14
((lp7764
tp7765
Rp7766
ag14
((lp7767
tp7768
Rp7769
ag14
((lp7770
I-191
aI212
atp7771
Rp7772
ag14
((lp7773
tp7774
Rp7775
ag14
((lp7776
tp7777
Rp7778
ag14
((lp7779
tp7780
Rp7781
ag14
((lp7782
tp7783
Rp7784
ag14
((lp7785
tp7786
Rp7787
ag14
((lp7788
tp7789
Rp7790
ag14
((lp7791
tp7792
Rp7793
ag14
((lp7794
tp7795
Rp7796
ag14
((lp7797
I1044
atp7798
Rp7799
ag14
((lp7800
tp7801
Rp7802
ag14
((lp7803
tp7804
Rp7805
ag14
((lp7806
tp7807
Rp7808
ag14
((lp7809
tp7810
Rp7811
ag14
((lp7812
tp7813
Rp7814
ag14
((lp7815
tp7816
Rp7817
ag14
((lp7818
tp7819
Rp7820
ag14
((lp7821
I268
atp7822
Rp7823
ag14
((lp7824
tp7825
Rp7826
ag14
((lp7827
tp7828
Rp7829
ag14
((lp7830
tp7831
Rp7832
ag14
((lp7833
tp7834
Rp7835
ag14
((lp7836
I-1094
aI1099
atp7837
Rp7838
ag14
((lp7839
tp7840
Rp7841
ag14
((lp7842
I197
atp7843
Rp7844
ag14
((lp7845
I-59
aI-89
aI-88
aI-87
aI-54
aI-17
aI-79
aI-78
aI-41
aI-81
aI-67
atp7846
Rp7847
ag14
((lp7848
I-79
aI-89
aI-87
aI-54
aI-41
aI-84
atp7849
Rp7850
ag14
((lp7851
I-91
aI-90
aI-87
aI-86
aI-84
aI-83
aI-79
aI-41
aI-54
aI-66
aI-65
atp7852
Rp7853
ag14
((lp7854
I-78
aI-91
aI-81
aI-17
aI-59
atp7855
Rp7856
ag14
((lp7857
I-91
aI-90
aI-89
aI-54
aI-84
aI-79
aI-41
aI-67
atp7858
Rp7859
ag14
((lp7860
I-65
aI-83
aI-89
atp7861
Rp7862
ag14
((lp7863
I90
atp7864
Rp7865
ag14
((lp7866
I-79
aI-90
aI-41
aI-87
aI-89
aI-66
atp7867
Rp7868
ag14
((lp7869
I-86
aI-89
aI-65
atp7870
Rp7871
ag14
((lp7872
tp7873
Rp7874
ag14
((lp7875
I-78
aI-59
aI-17
aI-88
aI-91
atp7876
Rp7877
ag14
((lp7878
tp7879
Rp7880
ag14
((lp7881
I-91
aI-90
aI-89
aI-87
aI-54
aI-84
aI-78
aI-41
aI-67
aI-66
atp7882
Rp7883
ag14
((lp7884
I-59
aI-88
aI-17
aI-79
aI-81
aI-67
aI-91
atp7885
Rp7886
ag14
((lp7887
I-40
aI-75
aI89
aI88
aI-71
atp7888
Rp7889
ag14
((lp7890
I89
aI-71
atp7891
Rp7892
ag14
((lp7893
I-40
aI-77
aI-73
aI88
aI-71
atp7894
Rp7895
ag14
((lp7896
I83
aI84
atp7897
Rp7898
ag14
((lp7899
I87
aI86
aI-75
aI85
atp7900
Rp7901
ag14
((lp7902
tp7903
Rp7904
ag14
((lp7905
I88
aI-77
aI-76
aI-75
aI89
aI-40
atp7906
Rp7907
ag14
((lp7908
I71
aI73
aI74
aI-52
aI-50
aI79
aI-37
atp7909
Rp7910
ag14
((lp7911
tp7912
Rp7913
ag14
((lp7914
tp7915
Rp7916
ag14
((lp7917
I-79
aI-78
aI-87
aI-91
atp7918
Rp7919
ag14
((lp7920
I-79
aI-84
aI-89
atp7921
Rp7922
ag14
((lp7923
I-86
aI-83
aI-89
atp7924
Rp7925
ag14
((lp7926
I71
aI72
aI73
aI-50
aI79
aI80
aI81
atp7927
Rp7928
ag14
((lp7929
I71
aI-51
aI79
atp7930
Rp7931
ag14
((lp7932
I82
aI75
aI76
atp7933
Rp7934
ag14
((lp7935
I71
aI-38
aI-51
aI78
aI79
atp7936
Rp7937
ag14
((lp7938
tp7939
Rp7940
ag14
((lp7941
I-88
aI-78
aI-91
aI-81
atp7942
Rp7943
ag14
((lp7944
tp7945
Rp7946
ag14
((lp7947
I-22
atp7948
Rp7949
ag14
((lp7950
I-48
aI67
aI68
aI64
atp7951
Rp7952
ag14
((lp7953
I-47
aI58
aI59
aI60
atp7954
Rp7955
ag14
((lp7956
I-79
aI-91
aI-90
aI-41
aI-87
aI-89
atp7957
Rp7958
ag14
((lp7959
I-39
aI77
atp7960
Rp7961
ag14
((lp7962
I71
aI73
aI-70
aI-37
aI74
atp7963
Rp7964
ag14
((lp7965
I-63
aI-61
aI71
aI-38
aI79
atp7966
Rp7967
ag14
((lp7968
I-64
aI71
aI72
aI73
aI79
aI-70
aI-37
atp7969
Rp7970
ag14
((lp7971
tp7972
Rp7973
ag14
((lp7974
I-56
aI64
aI67
aI68
atp7975
Rp7976
ag14
((lp7977
I-55
aI58
aI59
atp7978
Rp7979
ag14
((lp7980
I57
atp7981
Rp7982
ag14
((lp7983
I56
atp7984
Rp7985
ag14
((lp7986
I56
atp7987
Rp7988
ag14
((lp7989
I-30
aI52
aI47
atp7990
Rp7991
ag14
((lp7992
I-720
aI-894
aI923
aI-900
aI-915
atp7993
Rp7994
ag14
((lp7995
I-91
aI-90
aI-89
aI-87
aI-54
aI-84
aI-79
atp7996
Rp7997
ag14
((lp7998
I88
aI-77
aI-75
aI89
aI-71
atp7999
Rp8000
ag14
((lp8001
I-53
aI77
atp8002
Rp8003
ag14
((lp8004
I-61
aI-51
aI78
atp8005
Rp8006
ag14
((lp8007
I71
aI73
aI74
aI-52
aI-50
aI79
aI-70
atp8008
Rp8009
ag14
((lp8010
I48
aI50
aI51
atp8011
Rp8012
ag14
((lp8013
tp8014
Rp8015
ag14
((lp8016
I46
atp8017
Rp8018
ag14
((lp8019
I51
atp8020
Rp8021
ag14
((lp8022
I-387
aI390
atp8023
Rp8024
ag14
((lp8025
tp8026
Rp8027
ag14
((lp8028
I-43
aI47
atp8029
Rp8030
ag14
((lp8031
I32
aI30
aI31
atp8032
Rp8033
ag14
((lp8034
I68
atp8035
Rp8036
ag14
((lp8037
tp8038
Rp8039
ag14
((lp8040
tp8041
Rp8042
ag14
((lp8043
tp8044
Rp8045
ag14
((lp8046
I-20
atp8047
Rp8048
ag14
((lp8049
tp8050
Rp8051
ag14
((lp8052
I-57
atp8053
Rp8054
ag14
((lp8055
I70
atp8056
Rp8057
ag14
((lp8058
I-24
aI-18
atp8059
Rp8060
ag14
((lp8061
tp8062
Rp8063
ag14
((lp8064
I-20
atp8065
Rp8066
ag14
((lp8067
I-88
aI-78
aI-81
aI-91
atp8068
Rp8069
ag14
((lp8070
I28
atp8071
Rp8072
ag14
((lp8073
I19
aI-9
atp8074
Rp8075
ag14
((lp8076
tp8077
Rp8078
ag14
((lp8079
tp8080
Rp8081
ag14
((lp8082
tp8083
Rp8084
ag14
((lp8085
I24
atp8086
Rp8087
ag14
((lp8088
tp8089
Rp8090
ag14
((lp8091
I-15
aI19
atp8092
Rp8093
ag14
((lp8094
tp8095
Rp8096
ag14
((lp8097
tp8098
Rp8099
ag14
((lp8100
I20
aI21
atp8101
Rp8102
ag14
((lp8103
I18
atp8104
Rp8105
ag14
((lp8106
tp8107
Rp8108
ag14
((lp8109
tp8110
Rp8111
ag14
((lp8112
I70
atp8113
Rp8114
ag14
((lp8115
tp8116
Rp8117
atp8118
b.